(dp0
S'NGC6860'
p1
(dp2
S'chi2'
p3
F51351.5285316599
sS'psf'
p4
(dp5
S'center_x'
p6
(F210.534
F0.0252
tp7
sS'center_y'
p8
(F153.9332
F0.0269
tp9
sS'mag'
p10
(F0.6008
F0.012
tp11
ssS'sky'
p12
(dp13
S'sky_dx'
p14
(F0.0
F0.0
tp15
sS'sky_dy'
p16
(F0.0
F0.0
tp17
sS'sky_center'
p18
(F0.0001125
F6.304e-06
tp19
ssS'ndof'
p20
I5772
sS'chi2nu'
p21
F8.896661
sS'nfree'
p22
I4
sS'fit_notes'
p23
(lp24
sS'nfix'
p25
I2
ssS'NGC4051'
p26
(dp27
g3
F92823.6892067714
sg4
(dp28
g6
(F302.778
F0.0508
tp29
sg8
(F289.9786
F0.0536
tp30
sg10
(F1.3083
F0.0234
tp31
ssg12
(dp32
g14
(F0.0
F0.0
tp33
sg16
(F0.0
F0.0
tp34
sg18
(F0.0002583
F3.268e-06
tp35
ssg20
I40397
sg21
F2.297787
sg22
I4
sg23
(lp36
sg25
I2
ssS'NGC7469'
p37
(dp38
g3
F32732.9962246615
sg4
(dp39
g6
(F209.0933
F0.0084
tp40
sg8
(F159.5238
F0.0076
tp41
sg10
(F-3.6696
F0.0036
tp42
ssg12
(dp43
g14
(F0.0
F0.0
tp44
sg16
(F0.0
F0.0
tp45
sg18
(F6.198e-05
F5.335e-06
tp46
ssg20
I5772
sg21
F5.670997
sg22
I4
sg23
(lp47
sg25
I2
ssS'IISZ010'
p48
(dp49
g3
F1540.87085334904
sg4
(dp50
g6
(F207.5187
F0.0197
tp51
sg8
(F148.3647
F0.0202
tp52
sg10
(F2.8601
F0.0099
tp53
ssg12
(dp54
g14
(F0.0
F0.0
tp55
sg16
(F0.0
F0.0
tp56
sg18
(F1.699e-05
F1.07e-06
tp57
ssg20
I5772
sg21
F0.2669562
sg22
I4
sg23
(lp58
sg25
I2
ssS'NGC2992'
p59
(dp60
g3
F63637.1824888026
sg4
(dp61
g6
(F306.3944
F0.0175
tp62
sg8
(F321.4213
F0.0185
tp63
sg10
(F-2.0668
F0.0093
tp64
ssg12
(dp65
g14
(F0.0
F0.0
tp66
sg16
(F0.0
F0.0
tp67
sg18
(F0.0001496
F8.463e-06
tp68
ssg20
I5772
sg21
F11.02515
sg22
I4
sg23
(lp69
S'Source not detected.'
p70
asg25
I2
ssS'NGC3783'
p71
(dp72
g3
F64301.2415202337
sg4
(dp73
g6
(F208.2042
F0.0212
tp74
sg8
(F154.3642
F0.0203
tp75
sg10
(F-0.6706
F0.0111
tp76
ssg12
(dp77
g14
(F0.0
F0.0
tp78
sg16
(F0.0
F0.0
tp79
sg18
(F0.0002924
F7.024e-06
tp80
ssg20
I5772
sg21
F11.1402
sg22
I4
sg23
(lp81
sg25
I2
ssS'NGC7582'
p82
(dp83
g3
F102276.702409829
sg4
(dp84
g6
(F334.4737
F0.0311
tp85
sg8
(F288.7099
F0.0265
tp86
sg10
(F-4.468
F0.0127
tp87
ssg12
(dp88
g14
(F0.0
F0.0
tp89
sg16
(F0.0
F0.0
tp90
sg18
(F0.0008961
F2.627e-05
tp91
ssg20
I5772
sg21
F17.71946
sg22
I4
sg23
(lp92
g70
asg25
I2
ssS'NGC1365'
p93
(dp94
g3
F2243599.95103081
sg4
(dp95
g6
(F335.4903
F0.0146
tp96
sg8
(F335.7231
F0.0128
tp97
sg10
(F-4.479
F0.0069
tp98
ssg12
(dp99
g14
(F0.0
F0.0
tp100
sg16
(F0.0
F0.0
tp101
sg18
(F0.000532
F6.066e-06
tp102
ssg20
I46868
sg21
F47.87061
sg22
I4
sg23
(lp103
sg25
I2
ssS'Mrk335'
p104
(dp105
g3
F1610.27161309679
sg4
(dp106
g6
(F210.8806
F0.0067
tp107
sg8
(F154.0162
F0.0065
tp108
sg10
(F1.3987
F0.0038
tp109
ssg12
(dp110
g14
(F0.0
F0.0
tp111
sg16
(F0.0
F0.0
tp112
sg18
(F-1.28e-05
F1.093e-06
tp113
ssg20
I5772
sg21
F0.2789798
sg22
I4
sg23
(lp114
sg25
I2
ssS'NGC3081'
p115
(dp116
g3
F19044.3695878127
sg4
(dp117
g6
(F210.1219
F0.0113
tp118
sg8
(F157.7057
F0.0104
tp119
sg10
(F-0.8198
F0.0054
tp120
ssg12
(dp121
g14
(F0.0
F0.0
tp122
sg16
(F0.0
F0.0
tp123
sg18
(F0.0001252
F3.858e-06
tp124
ssg20
I5772
sg21
F3.29944
sg22
I4
sg23
(lp125
sg25
I2
ssS'NGC4151'
p126
(dp127
g3
F5144.89881827104
sg4
(dp128
g6
(F333.4779
F0.0174
tp129
sg8
(F327.2623
F0.0169
tp130
sg10
(F-1.7504
F0.009
tp131
ssg12
(dp132
g14
(F0.0
F0.0
tp133
sg16
(F0.0
F0.0
tp134
sg18
(F0.0003761
F6.692e-06
tp135
ssg20
I5772
sg21
F0.8913546
sg22
I4
sg23
(lp136
sg25
I2
ssS'NGC5728'
p137
(dp138
g3
F87104.4845947899
sg4
(dp139
g6
(F208.9737
F0.0149
tp140
sg8
(F156.6532
F0.0156
tp141
sg10
(F-2.2805
F0.0081
tp142
ssg12
(dp143
g14
(F0.0
F0.0
tp144
sg16
(F0.0
F0.0
tp145
sg18
(F0.0002879
F8.554e-06
tp146
ssg20
I5772
sg21
F15.09087
sg22
I4
sg23
(lp147
sg25
I2
ssS'Mrk290'
p148
(dp149
g3
F1644.88129431932
sg4
(dp150
g6
(F206.2612
F0.0111
tp151
sg8
(F152.6012
F0.0106
tp152
sg10
(F2.0067
F0.0056
tp153
ssg12
(dp154
g14
(F0.0
F0.0
tp155
sg16
(F0.0
F0.0
tp156
sg18
(F-1.022e-05
F1.105e-06
tp157
ssg20
I5772
sg21
F0.284976
sg22
I4
sg23
(lp158
sg25
I2
ssS'Mrk348'
p159
(dp160
g3
F4744.41855582887
sg4
(dp161
g6
(F208.224
F0.0094
tp162
sg8
(F152.1877
F0.0089
tp163
sg10
(F0.4584
F0.0041
tp164
ssg12
(dp165
g14
(F0.0
F0.0
tp166
sg16
(F0.0
F0.0
tp167
sg18
(F4.252e-05
F1.904e-06
tp168
ssg20
I5772
sg21
F0.8219714
sg22
I4
sg23
(lp169
sg25
I2
ssS'NGC6240'
p170
(dp171
g3
F3767.58221500485
sg4
(dp172
g6
(F211.5294
F0.0105
tp173
sg8
(F247.4813
F0.0115
tp174
sg10
(F-3.5631
F0.0049
tp175
ssg12
(dp176
g14
(F0.0
F0.0
tp177
sg16
(F0.0
F0.0
tp178
sg18
(F-6.926e-05
F6.591e-06
tp179
ssg20
I5772
sg21
F0.6527343
sg22
I4
sg23
(lp180
sg25
I2
ssS'NGC3281'
p181
(dp182
g3
F5802.69161481456
sg4
(dp183
g6
(F268.6537
F0.0063
tp184
sg8
(F268.2342
F0.0058
tp185
sg10
(F-2.1164
F0.0035
tp186
ssg12
(dp187
g14
(F0.0
F0.0
tp188
sg16
(F0.0
F0.0
tp189
sg18
(F4.909e-05
F2.489e-06
tp190
ssg20
I5772
sg21
F1.005317
sg22
I4
sg23
(lp191
sg25
I2
ssS'PG2304+042'
p192
(dp193
g3
F1468.89436265958
sg4
(dp194
g6
(F210.3972
F0.0659
tp195
sg8
(F156.1069
F0.0724
tp196
sg10
(F4.176
F0.031
tp197
ssg12
(dp198
g14
(F0.0
F0.0
tp199
sg16
(F0.0
F0.0
tp200
sg18
(F5.341e-07
F1.039e-06
tp201
ssg20
I5772
sg21
F0.2544862
sg22
I4
sg23
(lp202
g70
asg25
I2
ssS'NGC5506'
p203
(dp204
g3
F10510.550732158
sg4
(dp205
g6
(F207.5071
F0.0072
tp206
sg8
(F152.1667
F0.0063
tp207
sg10
(F-2.325
F0.003
tp208
ssg12
(dp209
g14
(F0.0
F0.0
tp210
sg16
(F0.0
F0.0
tp211
sg18
(F3.25e-05
F3.008e-06
tp212
ssg20
I5772
sg21
F1.820955
sg22
I4
sg23
(lp213
sg25
I2
ssS'CenA'
p214
(dp215
g3
F8334113.33929087
sg4
(dp216
g6
(F936.7231
F0.0219
tp217
sg8
(F934.4553
F0.0198
tp218
sg10
(F-4.9076
F0.0094
tp219
ssg12
(dp220
g14
(F0.0
F0.0
tp221
sg16
(F0.0
F0.0
tp222
sg18
(F0.0006147
F7.284e-06
tp223
ssg20
I212056
sg21
F39.30148
sg22
I4
sg23
(lp224
sg25
I2
ssS'IC5063'
p225
(dp226
g3
F20470.3905748525
sg4
(dp227
g6
(F208.8293
F0.0124
tp228
sg8
(F150.1173
F0.0128
tp229
sg10
(F-1.6037
F0.0056
tp230
ssg12
(dp231
g14
(F0.0
F0.0
tp232
sg16
(F0.0
F0.0
tp233
sg18
(F2.444e-05
F4.123e-06
tp234
ssg20
I5772
sg21
F3.546499
sg22
I4
sg23
(lp235
sg25
I2
ssS'Mrk841'
p236
(dp237
g3
F1482.5265508333
sg4
(dp238
g6
(F209.9755
F0.007
tp239
sg8
(F154.8239
F0.0066
tp240
sg10
(F0.9867
F0.0031
tp241
ssg12
(dp242
g14
(F0.0
F0.0
tp243
sg16
(F0.0
F0.0
tp244
sg18
(F-2.188e-05
F1.061e-06
tp245
ssg20
I5772
sg21
F0.256848
sg22
I4
sg23
(lp246
sg25
I2
ss.