(dp0
S'WKK6092'
p1
(dp2
S'chi2'
p3
F1245.99462065994
sS'psf'
p4
(dp5
S'center_x'
p6
(F167.1122
F0.03
tp7
sS'center_y'
p8
(F144.4932
F0.0271
tp9
sS'mag'
p10
(F1.9156
F0.0125
tp11
ssS'sky'
p12
(dp13
S'sky_dx'
p14
(F0.0
F0.0
tp15
sS'sky_dy'
p16
(F0.0
F0.0
tp17
sS'sky_center'
p18
(F3.491e-05
F2.749e-06
tp19
ssS'ndof'
p20
I5772
sS'chi2nu'
p21
F0.2158688
sS'nfree'
p22
I4
sS'fit_notes'
p23
(lp24
sS'nfix'
p25
I2
ssS'WKK4374'
p26
(dp27
g3
F1670.18486767983
sg4
(dp28
g6
(F172.6443
F0.0233
tp29
sg8
(F148.0203
F0.0241
tp30
sg10
(F1.5578
F0.01
tp31
ssg12
(dp32
g14
(F0.0
F0.0
tp33
sg16
(F0.0
F0.0
tp34
sg18
(F-3.024e-05
F3.049e-06
tp35
ssg20
I5772
sg21
F0.2893598
sg22
I4
sg23
(lp36
sg25
I2
ssS'NGC3035'
p37
(dp38
g3
F2785.9794547693
sg4
(dp39
g6
(F167.678
F0.0232
tp40
sg8
(F145.3484
F0.0219
tp41
sg10
(F1.1876
F0.011
tp42
ssg12
(dp43
g14
(F0.0
F0.0
tp44
sg16
(F0.0
F0.0
tp45
sg18
(F0.0001473
F4.116e-06
tp46
ssg20
I5772
sg21
F0.4826714
sg22
I4
sg23
(lp47
sg25
I2
ssS'2MASSJ07594181-3843560'
p48
(dp49
g3
F1395.51123727492
sg4
(dp50
g6
(F167.5395
F0.1008
tp51
sg8
(F147.0948
F0.1049
tp52
sg10
(F3.5595
F0.0444
tp53
ssg12
(dp54
g14
(F0.0
F0.0
tp55
sg16
(F0.0
F0.0
tp56
sg18
(F-1.451e-06
F2.923e-06
tp57
ssg20
I5772
sg21
F0.2417726
sg22
I4
sg23
(lp58
S'Source not detected.'
p59
asg25
I2
ssS'WKK6471'
p60
(dp61
g3
F1470.4908278062
sg4
(dp62
g6
(F166.8557
F0.0651
tp63
sg8
(F142.0247
F0.0631
tp64
sg10
(F2.9407
F0.0282
tp65
ssg12
(dp66
g14
(F0.0
F0.0
tp67
sg16
(F0.0
F0.0
tp68
sg18
(F-1.651e-05
F2.995e-06
tp69
ssg20
I5772
sg21
F0.2547628
sg22
I4
sg23
(lp70
sg25
I2
ssS'SWIFTJ212745.6+565636'
p71
(dp72
g3
F1476.12970120374
sg4
(dp73
g6
(F170.1444
F0.038
tp74
sg8
(F137.1392
F0.0366
tp75
sg10
(F2.1688
F0.016
tp76
ssg12
(dp77
g14
(F0.0
F0.0
tp78
sg16
(F0.0
F0.0
tp79
sg18
(F-3.459e-05
F2.934e-06
tp80
ssg20
I5772
sg21
F0.2557397
sg22
I4
sg23
(lp81
sg25
I2
ssS'WKK1263'
p82
(dp83
g3
F3287.62932675073
sg4
(dp84
g6
(F171.664
F0.0178
tp85
sg8
(F144.4744
F0.0165
tp86
sg10
(F0.86
F0.008
tp87
ssg12
(dp88
g14
(F0.0
F0.0
tp89
sg16
(F0.0
F0.0
tp90
sg18
(F-1.043e-05
F4.312e-06
tp91
ssg20
I5772
sg21
F0.5695823
sg22
I4
sg23
(lp92
sg25
I2
ssS'MCG+02-57-002'
p93
(dp94
g3
F1490.46150468299
sg4
(dp95
g6
(F170.4011
F0.0134
tp96
sg8
(F144.7127
F0.0132
tp97
sg10
(F0.7955
F0.0063
tp98
ssg12
(dp99
g14
(F0.0
F0.0
tp100
sg16
(F0.0
F0.0
tp101
sg18
(F-6.364e-05
F2.846e-06
tp102
ssg20
I5772
sg21
F0.2582227
sg22
I4
sg23
(lp103
sg25
I2
ssS'WKK4438'
p104
(dp105
g3
F3223.57180934907
sg4
(dp106
g6
(F172.6818
F0.0153
tp107
sg8
(F147.7183
F0.0144
tp108
sg10
(F0.6299
F0.0077
tp109
ssg12
(dp110
g14
(F0.0
F0.0
tp111
sg16
(F0.0
F0.0
tp112
sg18
(F1.335e-05
F4.219e-06
tp113
ssg20
I5772
sg21
F0.5584844
sg22
I4
sg23
(lp114
sg25
I2
ss.