(dp0
S'MCG-01-40-001'
p1
(dp2
S'nfix'
p3
I2
sS'chi2'
p4
F3358.14538115983
sS'sky'
p5
(dp6
S'sky_dx'
p7
(F0.0
F0.0
tp8
sS'sky_dy'
p9
(F0.0
F0.0
tp10
sS'sky_center'
p11
(F3.332e-05
F4.532e-06
tp12
ssS'ndof'
p13
I5768
sS'chi2nu'
p14
F0.5822027
sS'nfree'
p15
I8
sS'fit_notes'
p16
(lp17
S'At least one problematic parameter.'
p18
asS'sersic'
p19
(dp20
S'axis_ratio'
p21
(F0.8516
F194.9048
tp22
sS'pa'
p23
(F42.558
F10915.8125
tp24
sS'n'
p25
(F4.1832
F100.5458
tp26
sS're'
p27
(F0.0101
Finf
tp28
sS'center_x'
p29
(F170.3664
F0.7457
tp30
sS'center_y'
p31
(F125.2968
F0.5597
tp32
sS'mag'
p33
(F-0.7288
F18.8469
tp34
sssS'IRAS05078+1626'
p35
(dp36
g3
I2
sg4
F1365.19832296906
sg5
(dp37
g7
(F0.0
F0.0
tp38
sg9
(F0.0
F0.0
tp39
sg11
(F-2.288e-05
F2.911e-06
tp40
ssg13
I5768
sg14
F0.2366849
sg15
I8
sg16
(lp41
g18
asg19
(dp42
g21
(F0.0909
Finf
tp43
sg23
(F-61.9392
F2.9862
tp44
sg25
(F4.7286
F0.9961
tp45
sg27
(F0.3153
Finf
tp46
sg29
(F171.4449
F0.1579
tp47
sg31
(F127.477
F0.0127
tp48
sg33
(F-0.1204
F0.0603
tp49
sssS'2MASSJ17485512-3254521'
p50
(dp51
g3
I2
sg4
F1632.56785051948
sg5
(dp52
g7
(F0.0
F0.0
tp53
sg9
(F0.0
F0.0
tp54
sg11
(F-1.284e-05
F3.245e-06
tp55
ssg13
I5768
sg14
F0.2830388
sg15
I8
sg16
(lp56
S'Source not detected.'
p57
ag18
asg19
(dp58
g21
(F0.0419
Finf
tp59
sg23
(F24.5915
F12.8504
tp60
sg25
(F1.6271
F2.4654
tp61
sg27
(F1.8712
F2.2508
tp62
sg29
(F169.4507
F0.2312
tp63
sg31
(F122.7687
F0.4033
tp64
sg33
(F3.1896
F0.6984
tp65
sssS'2MASXJ09360622-6548336'
p66
(dp67
g3
I2
sg4
F2754.75475967217
sg5
(dp68
g7
(F0.0
F0.0
tp69
sg9
(F0.0
F0.0
tp70
sg11
(F4.437e-06
F4.057e-06
tp71
ssg13
I5768
sg14
F0.4775927
sg15
I8
sg16
(lp72
g57
ag18
asg19
(dp73
g21
(F0.05
Finf
tp74
sg23
(F-70.7223
F1598387.25
tp75
sg25
(F0.6865
F486339.1562
tp76
sg27
(F0.1477
Finf
tp77
sg29
(F170.3838
F2884.4509
tp78
sg31
(F119.0851
F4027.3467
tp79
sg33
(F4.8664
F1941.5791
tp80
sssS'ESO121-IG028'
p81
(dp82
g3
I2
sg4
F1409.20719989908
sg5
(dp83
g7
(F0.0
F0.0
tp84
sg9
(F0.0
F0.0
tp85
sg11
(F-3.593e-06
F2.824e-06
tp86
ssg13
I5768
sg14
F0.2443147
sg15
I8
sg16
(lp87
g18
asg19
(dp88
g21
(F0.0567
Finf
tp89
sg23
(F79.3303
F220.2142
tp90
sg25
(F0.2951
F23.0662
tp91
sg27
(F1.7603
F41.0748
tp92
sg29
(F169.9655
F2.2257
tp93
sg31
(F124.5092
F1.2208
tp94
sg33
(F3.2132
F19.0943
tp95
sssS'MCG+05-03-013'
p96
(dp97
g3
I2
sg4
F1569.74119346416
sg5
(dp98
g7
(F0.0
F0.0
tp99
sg9
(F0.0
F0.0
tp100
sg11
(F3.959e-05
F3.13e-06
tp101
ssg13
I5768
sg14
F0.2721465
sg15
I8
sg16
(lp102
g18
asg19
(dp103
g21
(F0.9409
F0.0692
tp104
sg23
(F73.8583
F35.2851
tp105
sg25
(F17.2782
Finf
tp106
sg27
(F0.327
Finf
tp107
sg29
(F170.6705
F0.036
tp108
sg31
(F122.7805
F0.0368
tp109
sg33
(F0.1829
F0.0286
tp110
sssS'UGC12741'
p111
(dp112
g3
I2
sg4
F1308.58973648763
sg5
(dp113
g7
(F0.0
F0.0
tp114
sg9
(F0.0
F0.0
tp115
sg11
(F-1.367e-05
F2.732e-06
tp116
ssg13
I5768
sg14
F0.2268706
sg15
I8
sg16
(lp117
sg19
(dp118
g21
(F0.4981
F0.0194
tp119
sg23
(F74.2519
F1.5101
tp120
sg25
(F1.8675
F0.1711
tp121
sg27
(F2.2066
F0.0516
tp122
sg29
(F169.6979
F0.0229
tp123
sg31
(F125.8032
F0.0196
tp124
sg33
(F0.8481
F0.0095
tp125
sssS'SBS0915+556'
p126
(dp127
g3
I2
sg4
F2839.87848032911
sg5
(dp128
g7
(F0.0
F0.0
tp129
sg9
(F0.0
F0.0
tp130
sg11
(F-2.565e-05
F4.113e-06
tp131
ssg13
I5768
sg14
F0.4923506
sg15
I8
sg16
(lp132
g18
asg19
(dp133
g21
(F0.3686
F0.2263
tp134
sg23
(F12.0603
F37.836
tp135
sg25
(F0.016
Finf
tp136
sg27
(F1.8731
F99.683
tp137
sg29
(F168.9962
F0.0695
tp138
sg31
(F126.4542
F0.0945
tp139
sg33
(F2.6319
F0.5756
tp140
sssS'PG2304+042'
p141
(dp142
g3
I2
sg4
F1396.87555416072
sg5
(dp143
g7
(F0.0
F0.0
tp144
sg9
(F0.0
F0.0
tp145
sg11
(F-2.12e-05
F3.381e-06
tp146
ssg13
I5768
sg14
F0.2421768
sg15
I8
sg16
(lp147
g57
asg19
(dp148
g21
(F0.8319
F0.0459
tp149
sg23
(F-77.6671
F9.1337
tp150
sg25
(F3.2295
F0.5706
tp151
sg27
(F41.0896
F22.0999
tp152
sg29
(F210.6053
F0.0728
tp153
sg31
(F156.0512
F0.0912
tp154
sg33
(F1.5063
F0.4957
tp155
sssS'NGC235A'
p156
(dp157
g3
I2
sg4
F1780.67934745499
sg5
(dp158
g7
(F0.0
F0.0
tp159
sg9
(F0.0
F0.0
tp160
sg11
(F-2.827e-05
F3.245e-06
tp161
ssg13
I5768
sg14
F0.308717
sg15
I8
sg16
(lp162
sg19
(dp163
g21
(F0.7688
F0.0207
tp164
sg23
(F34.5016
F2.879
tp165
sg25
(F3.9529
F0.2866
tp166
sg27
(F0.7105
F0.0245
tp167
sg29
(F170.4057
F0.0134
tp168
sg31
(F124.7983
F0.0123
tp169
sg33
(F-0.8677
F0.0042
tp170
sssS'2MASXJ03502377-5018354'
p171
(dp172
g3
I2
sg4
F2495.00574765576
sg5
(dp173
g7
(F0.0
F0.0
tp174
sg9
(F0.0
F0.0
tp175
sg11
(F3.028e-05
F3.9e-06
tp176
ssg13
I5768
sg14
F0.4325599
sg15
I8
sg16
(lp177
sg19
(dp178
g21
(F0.4358
F0.0362
tp179
sg23
(F10.8747
F2.8781
tp180
sg25
(F0.7921
F0.2561
tp181
sg27
(F1.6114
F0.0714
tp182
sg29
(F169.9002
F0.0271
tp183
sg31
(F125.5738
F0.031
tp184
sg33
(F1.0616
F0.0098
tp185
sssS'MCG+06-16-028'
p186
(dp187
g3
I2
sg4
F1458.57822176599
sg5
(dp188
g7
(F0.0
F0.0
tp189
sg9
(F0.0
F0.0
tp190
sg11
(F-6.024e-05
F2.955e-06
tp191
ssg13
I5768
sg14
F0.2528742
sg15
I8
sg16
(lp192
sg19
(dp193
g21
(F0.7351
F0.0138
tp194
sg23
(F54.7256
F1.7383
tp195
sg25
(F1.0164
F0.0742
tp196
sg27
(F1.2568
F0.0226
tp197
sg29
(F170.2347
F0.0061
tp198
sg31
(F124.6979
F0.0062
tp199
sg33
(F-0.9222
F0.0032
tp200
sssS'Mrk10'
p201
(dp202
g3
I2
sg4
F2015.28170441984
sg5
(dp203
g7
(F0.0
F0.0
tp204
sg9
(F0.0
F0.0
tp205
sg11
(F-7.381e-05
F8.946e-06
tp206
ssg13
I5768
sg14
F0.34939
sg15
I8
sg16
(lp207
g18
asg19
(dp208
g21
(F0.4363
F0.0126
tp209
sg23
(F46.1864
F0.9359
tp210
sg25
(F12.0139
Finf
tp211
sg27
(F360.0012
F422.8739
tp212
sg29
(F170.6423
F0.0392
tp213
sg31
(F123.9805
F0.0362
tp214
sg33
(F-1.8303
F0.5692
tp215
sssS'CGCG312-012'
p216
(dp217
g3
I2
sg4
F1252.20280854017
sg5
(dp218
g7
(F0.0
F0.0
tp219
sg9
(F0.0
F0.0
tp220
sg11
(F-7.995e-06
F2.722e-06
tp221
ssg13
I5768
sg14
F0.2170948
sg15
I8
sg16
(lp222
g18
asg19
(dp223
g21
(F0.0545
Finf
tp224
sg23
(F15.8387
F3.996
tp225
sg25
(F9.9889
F8.4819
tp226
sg27
(F1.0509
F0.3664
tp227
sg29
(F169.0292
F0.1475
tp228
sg31
(F127.1619
F0.2773
tp229
sg33
(F2.5313
F0.1229
tp230
sssS'NGC4138'
p231
(dp232
g3
I2
sg4
F3438.68541871863
sg5
(dp233
g7
(F0.0
F0.0
tp234
sg9
(F0.0
F0.0
tp235
sg11
(F4.481e-05
F3.316e-06
tp236
ssg13
I8364
sg14
F0.4111293
sg15
I8
sg16
(lp237
sg19
(dp238
g21
(F0.5491
F0.0028
tp239
sg23
(F61.866
F0.3418
tp240
sg25
(F0.1048
F0.0055
tp241
sg27
(F14.7404
F0.0665
tp242
sg29
(F170.1232
F0.0613
tp243
sg31
(F121.293
F0.0377
tp244
sg33
(F-0.8247
F0.0076
tp245
sssS'UGC07064'
p246
(dp247
g3
I2
sg4
F3015.76766990697
sg5
(dp248
g7
(F0.0
F0.0
tp249
sg9
(F0.0
F0.0
tp250
sg11
(F-3.083e-05
F4.382e-06
tp251
ssg13
I5768
sg14
F0.5228446
sg15
I8
sg16
(lp252
sg19
(dp253
g21
(F0.6151
F0.0123
tp254
sg23
(F75.7573
F1.1641
tp255
sg25
(F2.8282
F0.1473
tp256
sg27
(F2.5757
F0.0448
tp257
sg29
(F173.4303
F0.0187
tp258
sg31
(F122.6096
F0.0173
tp259
sg33
(F-0.5669
F0.0093
tp260
sssS'3C111.0'
p261
(dp262
g3
I2
sg4
F1383.44357400515
sg5
(dp263
g7
(F0.0
F0.0
tp264
sg9
(F0.0
F0.0
tp265
sg11
(F-1.608e-05
F2.787e-06
tp266
ssg13
I5768
sg14
F0.239848
sg15
I8
sg16
(lp267
sg19
(dp268
g21
(F0.1039
F28.1909
tp269
sg23
(F-37.2475
F2252.0
tp270
sg25
(F0.5339
F104.6751
tp271
sg27
(F0.6575
F40.617
tp272
sg29
(F167.1283
F0.0277
tp273
sg31
(F125.3478
F0.0214
tp274
sg33
(F1.4376
F44.5984
tp275
sssS'Mrk18'
p276
(dp277
g3
I2
sg4
F1459.36486937068
sg5
(dp278
g7
(F0.0
F0.0
tp279
sg9
(F0.0
F0.0
tp280
sg11
(F-1.394e-05
F2.926e-06
tp281
ssg13
I5768
sg14
F0.2530105
sg15
I8
sg16
(lp282
sg19
(dp283
g21
(F0.4579
F0.0078
tp284
sg23
(F-16.4905
F0.5905
tp285
sg25
(F1.2084
F0.0543
tp286
sg27
(F1.6561
F0.018
tp287
sg29
(F166.3806
F0.0076
tp288
sg31
(F127.0801
F0.0083
tp289
sg33
(F-0.9487
F0.0032
tp290
sssS'UGC03601'
p291
(dp292
g3
I2
sg4
F1375.87622354035
sg5
(dp293
g7
(F0.0
F0.0
tp294
sg9
(F0.0
F0.0
tp295
sg11
(F-1.243e-05
F2.746e-06
tp296
ssg13
I5768
sg14
F0.2385361
sg15
I8
sg16
(lp297
sg19
(dp298
g21
(F0.6708
F0.038
tp299
sg23
(F-55.6215
F3.8841
tp300
sg25
(F7.4617
F1.5098
tp301
sg27
(F1.7308
F0.1349
tp302
sg29
(F167.5645
F0.0243
tp303
sg31
(F124.1567
F0.0242
tp304
sg33
(F0.717
F0.0569
tp305
sssS'MCG+00-09-042'
p306
(dp307
g3
I2
sg4
F1832.20139463289
sg5
(dp308
g7
(F0.0
F0.0
tp309
sg9
(F0.0
F0.0
tp310
sg11
(F-7.685e-05
F3.367e-06
tp311
ssg13
I5768
sg14
F0.3176493
sg15
I8
sg16
(lp312
g18
asg19
(dp313
g21
(F0.9558
F29.8931
tp314
sg23
(F47.5693
F5215.6406
tp315
sg25
(F2.9352
F570.0172
tp316
sg27
(F0.0296
Finf
tp317
sg29
(F171.6974
F1.0468
tp318
sg31
(F121.1399
F1.0087
tp319
sg33
(F-1.3631
F40.008
tp320
sssS'CGCG367-009'
p321
(dp322
g16
(lp323
S'Fit failed'
p324
assS'UGC03995A'
p325
(dp326
g3
I2
sg4
F1866.70638062512
sg5
(dp327
g7
(F0.0
F0.0
tp328
sg9
(F0.0
F0.0
tp329
sg11
(F-3.01e-05
F6.091e-06
tp330
ssg13
I5768
sg14
F0.3236315
sg15
I8
sg16
(lp331
g57
ag18
asg19
(dp332
g21
(F0.2288
F0.0131
tp333
sg23
(F18.2203
F0.9211
tp334
sg25
(F16.5278
Finf
tp335
sg27
(F1192.2927
F3337.1404
tp336
sg29
(F162.8203
F0.0548
tp337
sg31
(F147.0229
F0.0887
tp338
sg33
(F-1.4835
F1.1912
tp339
sssS'MCG+06-24-008'
p340
(dp341
g3
I2
sg4
F1381.03932678821
sg5
(dp342
g7
(F0.0
F0.0
tp343
sg9
(F0.0
F0.0
tp344
sg11
(F-9.152e-07
F2.807e-06
tp345
ssg13
I5768
sg14
F0.2394312
sg15
I8
sg16
(lp346
sg19
(dp347
g21
(F0.1072
F0.0211
tp348
sg23
(F-18.2669
F0.3922
tp349
sg25
(F0.7054
F0.0345
tp350
sg27
(F3.6044
F0.0265
tp351
sg29
(F170.746
F0.0129
tp352
sg31
(F123.5895
F0.0221
tp353
sg33
(F0.3605
F0.0055
tp354
sssS'MCG+01-57-016'
p355
(dp356
g3
I2
sg4
F1375.65199154033
sg5
(dp357
g7
(F0.0
F0.0
tp358
sg9
(F0.0
F0.0
tp359
sg11
(F-4.949e-05
F2.869e-06
tp360
ssg13
I5768
sg14
F0.2384972
sg15
I8
sg16
(lp361
sg19
(dp362
g21
(F0.4272
F0.0249
tp363
sg23
(F27.8948
F1.4981
tp364
sg25
(F3.6994
F0.3789
tp365
sg27
(F0.8608
F0.0295
tp366
sg29
(F166.5739
F0.0183
tp367
sg31
(F122.0945
F0.0165
tp368
sg33
(F0.0955
F0.0059
tp369
sssS'NGC1365'
p370
(dp371
g3
I2
sg4
F1101498.35905091
sg5
(dp372
g7
(F0.0
F0.0
tp373
sg9
(F0.0
F0.0
tp374
sg11
(F0.0004741
F3.963e-06
tp375
ssg13
I50168
sg14
F21.95619
sg15
I8
sg16
(lp376
sg19
(dp377
g21
(F0.6393
F0.0014
tp378
sg23
(F-33.4772
F0.173
tp379
sg25
(F1.1288
F0.0064
tp380
sg27
(F7.4617
F0.0195
tp381
sg29
(F333.3663
F0.0107
tp382
sg31
(F334.9237
F0.0116
tp383
sg33
(F-4.7197
F0.0033
tp384
sssS'2MASXJ15115979-2119015'
p385
(dp386
g3
I2
sg4
F1295.31591084102
sg5
(dp387
g7
(F0.0
F0.0
tp388
sg9
(F0.0
F0.0
tp389
sg11
(F-1.247e-06
F2.793e-06
tp390
ssg13
I5768
sg14
F0.2245693
sg15
I8
sg16
(lp391
g18
asg19
(dp392
g21
(F0.6989
F0.0801
tp393
sg23
(F82.0869
F9.5425
tp394
sg25
(F6.0187
F1.7881
tp395
sg27
(F0.1331
Finf
tp396
sg29
(F170.6097
F0.0317
tp397
sg31
(F125.528
F0.0401
tp398
sg33
(F-0.6082
F0.0352
tp399
sssS'ESO209-G012'
p400
(dp401
g3
I2
sg4
F1566.12907383175
sg5
(dp402
g7
(F0.0
F0.0
tp403
sg9
(F0.0
F0.0
tp404
sg11
(F-4.652e-05
F2.933e-06
tp405
ssg13
I5768
sg14
F0.2715203
sg15
I8
sg16
(lp406
sg19
(dp407
g21
(F0.7025
F0.0097
tp408
sg23
(F-75.2669
F1.2242
tp409
sg25
(F2.0613
F0.0751
tp410
sg27
(F2.8995
F0.0323
tp411
sg29
(F171.5209
F0.0143
tp412
sg31
(F123.2808
F0.0127
tp413
sg33
(F-0.2276
F0.0067
tp414
sssS'2MASXJ05054575-2351139'
p415
(dp416
g3
I2
sg4
F1264.07976025161
sg5
(dp417
g7
(F0.0
F0.0
tp418
sg9
(F0.0
F0.0
tp419
sg11
(F-7.112e-06
F2.765e-06
tp420
ssg13
I5768
sg14
F0.2191539
sg15
I8
sg16
(lp421
g18
asg19
(dp422
g21
(F0.1732
F239.9722
tp423
sg23
(F-36.5923
F5420.2861
tp424
sg25
(F0.0434
Finf
tp425
sg27
(F0.7644
F90.9768
tp426
sg29
(F167.6092
F0.0014
tp427
sg31
(F121.4816
F0.0018
tp428
sg33
(F2.0333
F168.8148
tp429
sssS'UGC01479'
p430
(dp431
g3
I2
sg4
F1770.26444284014
sg5
(dp432
g7
(F0.0
F0.0
tp433
sg9
(F0.0
F0.0
tp434
sg11
(F-2.351e-05
F3.352e-06
tp435
ssg13
I5768
sg14
F0.3069113
sg15
I8
sg16
(lp436
g18
asg19
(dp437
g21
(F0.1046
F0.0178
tp438
sg23
(F-60.6623
F0.6573
tp439
sg25
(F20.0
Finf
tp440
sg27
(F0.1306
Finf
tp441
sg29
(F169.3363
F0.0545
tp442
sg31
(F123.3895
F0.0225
tp443
sg33
(F-0.9722
F0.0888
tp444
sssS'ESO263-G013'
p445
(dp446
g3
I2
sg4
F1329.42409579072
sg5
(dp447
g7
(F0.0
F0.0
tp448
sg9
(F0.0
F0.0
tp449
sg11
(F-4.597e-05
F2.865e-06
tp450
ssg13
I5768
sg14
F0.2304827
sg15
I8
sg16
(lp451
g18
asg19
(dp452
g21
(F0.0507
Finf
tp453
sg23
(F-56.0477
F6.1505
tp454
sg25
(F3.2857
F2.5406
tp455
sg27
(F0.5721
F0.2344
tp456
sg29
(F166.7214
F0.3269
tp457
sg31
(F118.7041
F0.1093
tp458
sg33
(F1.8651
F0.2546
tp459
sssS'Mrk618'
p460
(dp461
g3
I2
sg4
F2850.82361203637
sg5
(dp462
g7
(F0.0
F0.0
tp463
sg9
(F0.0
F0.0
tp464
sg11
(F-1.444e-05
F4.092e-06
tp465
ssg13
I5768
sg14
F0.4942482
sg15
I8
sg16
(lp466
sg19
(dp467
g21
(F0.1184
F0.0089
tp468
sg23
(F-73.3137
F0.3451
tp469
sg25
(F7.2518
F0.3916
tp470
sg27
(F1.0652
F0.0249
tp471
sg29
(F171.0811
F0.0161
tp472
sg31
(F124.1534
F0.0214
tp473
sg33
(F-1.2033
F0.0066
tp474
sssS'2MASXJ20101740+4800214'
p475
(dp476
g3
I2
sg4
F1450.36620214517
sg5
(dp477
g7
(F0.0
F0.0
tp478
sg9
(F0.0
F0.0
tp479
sg11
(F-2.21e-05
F3.053e-06
tp480
ssg13
I5768
sg14
F0.2514504
sg15
I8
sg16
(lp481
sg19
(dp482
g21
(F0.4815
F0.0883
tp483
sg23
(F-11.9601
F6.3613
tp484
sg25
(F7.784
F3.8592
tp485
sg27
(F0.8619
F0.1304
tp486
sg29
(F172.7867
F0.0767
tp487
sg31
(F116.8269
F0.0622
tp488
sg33
(F1.5885
F0.0942
tp489
sssS'SWIFTJ212745.6+565636'
p490
(dp491
g3
I2
sg4
F1450.95977391382
sg5
(dp492
g7
(F0.0
F0.0
tp493
sg9
(F0.0
F0.0
tp494
sg11
(F-2.989e-05
F2.948e-06
tp495
ssg13
I5768
sg14
F0.2515534
sg15
I8
sg16
(lp496
g57
asg19
(dp497
g21
(F0.9169
F0.0181
tp498
sg23
(F-86.0501
F10.1843
tp499
sg25
(F0.6498
F0.0256
tp500
sg27
(F2.6439
F0.0659
tp501
sg29
(F170.0497
F0.0434
tp502
sg31
(F137.6203
F0.0394
tp503
sg33
(F2.2756
F0.0184
tp504
sssS'WKK6471'
p505
(dp506
g3
I2
sg4
F1354.60767245934
sg5
(dp507
g7
(F0.0
F0.0
tp508
sg9
(F0.0
F0.0
tp509
sg11
(F-3.457e-05
F2.875e-06
tp510
ssg13
I5768
sg14
F0.2348488
sg15
I8
sg16
(lp511
sg19
(dp512
g21
(F0.745
F0.0227
tp513
sg23
(F-10.1619
F4.7189
tp514
sg25
(F1.0429
F0.0594
tp515
sg27
(F6.2017
F0.3648
tp516
sg29
(F166.6894
F0.082
tp517
sg31
(F142.2792
F0.1069
tp518
sg33
(F2.1018
F0.0488
tp519
sssS'PICTORA'
p520
(dp521
g3
I2
sg4
F1343.46183790332
sg5
(dp522
g7
(F0.0
F0.0
tp523
sg9
(F0.0
F0.0
tp524
sg11
(F3.251e-05
F2.755e-06
tp525
ssg13
I5768
sg14
F0.2329164
sg15
I8
sg16
(lp526
g18
asg19
(dp527
g21
(F0.7976
F0.0
tp528
sg23
(F-29.5385
F0.0
tp529
sg25
(F0.0199
Finf
tp530
sg27
(F0.6281
F0.0
tp531
sg29
(F171.1714
F0.0
tp532
sg31
(F123.6331
F0.0
tp533
sg33
(F2.3149
F0.0
tp534
sssS'MCG+02-57-002'
p535
(dp536
g3
I2
sg4
F1464.41979758485
sg5
(dp537
g7
(F0.0
F0.0
tp538
sg9
(F0.0
F0.0
tp539
sg11
(F-5.916e-05
F2.822e-06
tp540
ssg13
I5768
sg14
F0.2538869
sg15
I8
sg16
(lp541
sg19
(dp542
g21
(F0.8622
F0.0053
tp543
sg23
(F88.6264
F2.1259
tp544
sg25
(F0.8751
F0.0115
tp545
sg27
(F2.987
F0.0289
tp546
sg29
(F170.3012
F0.0163
tp547
sg31
(F145.2216
F0.0143
tp548
sg33
(F0.8424
F0.0062
tp549
sssS'ESO490-IG026'
p550
(dp551
g3
I2
sg4
F1323.16921774563
sg5
(dp552
g7
(F0.0
F0.0
tp553
sg9
(F0.0
F0.0
tp554
sg11
(F-3.135e-05
F2.818e-06
tp555
ssg13
I5768
sg14
F0.2293983
sg15
I8
sg16
(lp556
g18
asg19
(dp557
g21
(F0.7326
F0.0518
tp558
sg23
(F-30.8813
F5.6284
tp559
sg25
(F4.848
F0.8272
tp560
sg27
(F0.2434
Finf
tp561
sg29
(F171.0315
F0.0232
tp562
sg31
(F123.0927
F0.0206
tp563
sg33
(F-0.6692
F0.0074
tp564
sssS'4U1344-60'
p565
(dp566
g3
I2
sg4
F2634.24477153125
sg5
(dp567
g7
(F0.0
F0.0
tp568
sg9
(F0.0
F0.0
tp569
sg11
(F-3.225e-06
F3.999e-06
tp570
ssg13
I5768
sg14
F0.4566998
sg15
I8
sg16
(lp571
sg19
(dp572
g21
(F0.7345
F0.0374
tp573
sg23
(F-59.9559
F4.3211
tp574
sg25
(F3.7098
F0.4622
tp575
sg27
(F0.5577
F0.0402
tp576
sg29
(F169.7103
F0.0198
tp577
sg31
(F125.7272
F0.0208
tp578
sg33
(F-0.6913
F0.0058
tp579
sssS'UM614'
p580
(dp581
g3
I2
sg4
F1471.80596897784
sg5
(dp582
g7
(F0.0
F0.0
tp583
sg9
(F0.0
F0.0
tp584
sg11
(F5.971e-06
F2.878e-06
tp585
ssg13
I5768
sg14
F0.2551675
sg15
I8
sg16
(lp586
g18
asg19
(dp587
g21
(F0.1801
F0.0
tp588
sg23
(F38.4229
F0.0
tp589
sg25
(F0.1504
F0.0
tp590
sg27
(F0.2602
Finf
tp591
sg29
(F170.4669
F0.0
tp592
sg31
(F125.1905
F0.0
tp593
sg33
(F3.3345
F0.0
tp594
sssS'UGC05881'
p595
(dp596
g3
I2
sg4
F1509.8270541864
sg5
(dp597
g7
(F0.0
F0.0
tp598
sg9
(F0.0
F0.0
tp599
sg11
(F1.373e-05
F2.973e-06
tp600
ssg13
I5768
sg14
F0.2617592
sg15
I8
sg16
(lp601
g18
asg19
(dp602
g21
(F0.5457
F0.053
tp603
sg23
(F-48.5414
F3.8092
tp604
sg25
(F9.3913
F2.2118
tp605
sg27
(F0.1278
Finf
tp606
sg29
(F166.4733
F0.027
tp607
sg31
(F122.2128
F0.0254
tp608
sg33
(F-0.6987
F0.0445
tp609
sssS'WKK4438'
p610
(dp611
g3
I2
sg4
F1805.85241572092
sg5
(dp612
g7
(F0.0
F0.0
tp613
sg9
(F0.0
F0.0
tp614
sg11
(F-2.619e-05
F3.159e-06
tp615
ssg13
I5768
sg14
F0.3130812
sg15
I8
sg16
(lp616
sg19
(dp617
g21
(F0.7483
F0.0043
tp618
sg23
(F-23.418
F0.9391
tp619
sg25
(F1.0509
F0.0118
tp620
sg27
(F4.5747
F0.0468
tp621
sg29
(F172.5838
F0.0138
tp622
sg31
(F148.1812
F0.0179
tp623
sg33
(F0.3006
F0.0069
tp624
sssS'ESO323-077'
p625
(dp626
g3
I2
sg4
F1416.67300901862
sg5
(dp627
g7
(F0.0
F0.0
tp628
sg9
(F0.0
F0.0
tp629
sg11
(F-3.072e-05
F2.928e-06
tp630
ssg13
I5768
sg14
F0.245609
sg15
I8
sg16
(lp631
sg19
(dp632
g21
(F0.707
F0.0078
tp633
sg23
(F63.8174
F0.9829
tp634
sg25
(F0.9159
F0.0425
tp635
sg27
(F1.4342
F0.0194
tp636
sg29
(F170.3036
F0.0042
tp637
sg31
(F125.332
F0.0057
tp638
sg33
(F-2.0361
F0.0027
tp639
sssS'NGC3281'
p640
(dp641
g3
I2
sg4
F16278.5470288855
sg5
(dp642
g7
(F0.0
F0.0
tp643
sg9
(F0.0
F0.0
tp644
sg11
(F0.0001061
F4.17e-06
tp645
ssg13
I5768
sg14
F2.822217
sg15
I8
sg16
(lp646
sg19
(dp647
g21
(F0.9264
F0.0044
tp648
sg23
(F62.7333
F2.2714
tp649
sg25
(F1.4995
F0.0166
tp650
sg27
(F3.1581
F0.0198
tp651
sg29
(F268.8359
F0.0132
tp652
sg31
(F267.9565
F0.0156
tp653
sg33
(F-1.8019
F0.0061
tp654
sssS'ESO103-035'
p655
(dp656
g3
I2
sg4
F1362.70185258347
sg5
(dp657
g7
(F0.0
F0.0
tp658
sg9
(F0.0
F0.0
tp659
sg11
(F-5.52e-05
F2.86e-06
tp660
ssg13
I5768
sg14
F0.2362521
sg15
I8
sg16
(lp661
g18
asg19
(dp662
g21
(F0.125
F0.2007
tp663
sg23
(F-29.9311
F2.6891
tp664
sg25
(F4.2599
F1.0388
tp665
sg27
(F0.2503
Finf
tp666
sg29
(F171.7696
F0.031
tp667
sg31
(F124.3603
F0.0392
tp668
sg33
(F-0.5275
F0.0496
tp669
sssS'2MASXJ07595347+2323241'
p670
(dp671
g3
I2
sg4
F1518.06441331877
sg5
(dp672
g7
(F0.0
F0.0
tp673
sg9
(F0.0
F0.0
tp674
sg11
(F-3.351e-05
F3.062e-06
tp675
ssg13
I5768
sg14
F0.2631873
sg15
I8
sg16
(lp676
sg19
(dp677
g21
(F0.4877
F0.0043
tp678
sg23
(F-77.7613
F0.3515
tp679
sg25
(F1.0342
F0.0233
tp680
sg27
(F3.183
F0.0164
tp681
sg29
(F169.1585
F0.0104
tp682
sg31
(F125.8384
F0.0082
tp683
sg33
(F-0.8195
F0.0023
tp684
sssS'MCG+06-49-019'
p685
(dp686
g3
I2
sg4
F1431.93293040306
sg5
(dp687
g7
(F0.0
F0.0
tp688
sg9
(F0.0
F0.0
tp689
sg11
(F-8.112e-05
F3.494e-06
tp690
ssg13
I5768
sg14
F0.2482547
sg15
I8
sg16
(lp691
g18
asg19
(dp692
g21
(F0.2587
F0.0335
tp693
sg23
(F23.6035
F2.0235
tp694
sg25
(F16.7138
Finf
tp695
sg27
(F32.1855
F58.8074
tp696
sg29
(F171.639
F0.0555
tp697
sg31
(F118.472
F0.0755
tp698
sg33
(F0.8171
F0.5906
tp699
sssS'Mrk6'
p700
(dp701
g3
I2
sg4
F1801.94578776855
sg5
(dp702
g7
(F0.0
F0.0
tp703
sg9
(F0.0
F0.0
tp704
sg11
(F-2.56e-05
F3.281e-06
tp705
ssg13
I5768
sg14
F0.3124039
sg15
I8
sg16
(lp706
g18
asg19
(dp707
g21
(F0.0682
Finf
tp708
sg23
(F57.1414
F16.8604
tp709
sg25
(F0.5254
F1.4429
tp710
sg27
(F1.0301
F0.1394
tp711
sg29
(F170.4006
F0.0156
tp712
sg31
(F123.8231
F0.0143
tp713
sg33
(F-0.015
F0.4592
tp714
sssS'NGC3393'
p715
(dp716
g3
I2
sg4
F2153.56158264962
sg5
(dp717
g7
(F0.0
F0.0
tp718
sg9
(F0.0
F0.0
tp719
sg11
(F3.565e-05
F3.628e-06
tp720
ssg13
I5768
sg14
F0.3733636
sg15
I8
sg16
(lp721
sg19
(dp722
g21
(F0.5741
F0.01
tp723
sg23
(F-76.6512
F0.8992
tp724
sg25
(F3.2527
F0.1449
tp725
sg27
(F2.195
F0.0313
tp726
sg29
(F171.132
F0.0127
tp727
sg31
(F123.2568
F0.0111
tp728
sg33
(F-0.7298
F0.0065
tp729
sssS'Mrk1310'
p730
(dp731
g3
I2
sg4
F1299.2837542776
sg5
(dp732
g7
(F0.0
F0.0
tp733
sg9
(F0.0
F0.0
tp734
sg11
(F2.913e-05
F2.787e-06
tp735
ssg13
I5768
sg14
F0.2252572
sg15
I8
sg16
(lp736
sg19
(dp737
g21
(F0.8918
F0.1289
tp738
sg23
(F27.5754
F55.2006
tp739
sg25
(F0.0558
F2.4584
tp740
sg27
(F1.3363
F4.5099
tp741
sg29
(F169.6427
F0.0479
tp742
sg31
(F123.9607
F0.0472
tp743
sg33
(F2.2944
F0.0182
tp744
sssS'NGC5674'
p745
(dp746
g3
I2
sg4
F3437.37662978376
sg5
(dp747
g7
(F0.0
F0.0
tp748
sg9
(F0.0
F0.0
tp749
sg11
(F-0.0001359
F1.279e-05
tp750
ssg13
I5768
sg14
F0.5959391
sg15
I8
sg16
(lp751
g18
asg19
(dp752
g21
(F0.5005
F0.0102
tp753
sg23
(F-89.3669
F0.8144
tp754
sg25
(F19.3049
Finf
tp755
sg27
(F1535.0316
F2624.6123
tp756
sg29
(F170.6446
F0.0337
tp757
sg31
(F125.3529
F0.03
tp758
sg33
(F-3.0812
F0.6918
tp759
sssS'Fairall1146'
p760
(dp761
g3
I2
sg4
F1453.0251776279
sg5
(dp762
g7
(F0.0
F0.0
tp763
sg9
(F0.0
F0.0
tp764
sg11
(F-6.917e-05
F2.901e-06
tp765
ssg13
I5768
sg14
F0.2519114
sg15
I8
sg16
(lp766
sg19
(dp767
g21
(F0.4237
F0.0201
tp768
sg23
(F84.2228
F1.618
tp769
sg25
(F9.0314
F1.1397
tp770
sg27
(F0.5683
F0.019
tp771
sg29
(F170.6684
F0.023
tp772
sg31
(F125.5012
F0.0295
tp773
sg33
(F-0.1502
F0.0065
tp774
sssS'ESO464-G016'
p775
(dp776
g3
I2
sg4
F1480.61455897247
sg5
(dp777
g7
(F0.0
F0.0
tp778
sg9
(F0.0
F0.0
tp779
sg11
(F-3.002e-05
F2.919e-06
tp780
ssg13
I5768
sg14
F0.2566946
sg15
I8
sg16
(lp781
g18
asg19
(dp782
g21
(F0.2971
F18.6845
tp783
sg23
(F-8.2921
F2005.9468
tp784
sg25
(F0.5999
F22.3205
tp785
sg27
(F0.4391
Finf
tp786
sg29
(F171.6756
F2.549
tp787
sg31
(F121.8635
F0.0212
tp788
sg33
(F0.9143
F0.0073
tp789
sssS'2MASXJ09254750+6927532'
p790
(dp791
g3
I2
sg4
F1709.1286459303
sg5
(dp792
g7
(F0.0
F0.0
tp793
sg9
(F0.0
F0.0
tp794
sg11
(F-2.306e-05
F3.952e-06
tp795
ssg13
I5768
sg14
F0.2963122
sg15
I8
sg16
(lp796
g18
asg19
(dp797
g21
(F0.4898
F0.1222
tp798
sg23
(F60.5316
F10.3078
tp799
sg25
(F19.9933
Finf
tp800
sg27
(F6.1128
F21.1968
tp801
sg29
(F169.8077
F0.1155
tp802
sg31
(F123.7634
F0.1267
tp803
sg33
(F1.8678
F1.1298
tp804
sssS'2MASXJ00253292+6821442'
p805
(dp806
g3
I2
sg4
F1287.42908144658
sg5
(dp807
g7
(F0.0
F0.0
tp808
sg9
(F0.0
F0.0
tp809
sg11
(F-8.942e-06
F2.739e-06
tp810
ssg13
I5768
sg14
F0.223202
sg15
I8
sg16
(lp811
g18
asg19
(dp812
g21
(F0.4861
F0.0894
tp813
sg23
(F-64.2488
F6.1602
tp814
sg25
(F14.9176
Finf
tp815
sg27
(F0.3223
Finf
tp816
sg29
(F169.296
F0.0554
tp817
sg31
(F122.2307
F0.0665
tp818
sg33
(F1.1525
F0.1688
tp819
sssS'CGCG122-055'
p820
(dp821
g3
I2
sg4
F1357.12183956707
sg5
(dp822
g7
(F0.0
F0.0
tp823
sg9
(F0.0
F0.0
tp824
sg11
(F-1.656e-06
F2.744e-06
tp825
ssg13
I5768
sg14
F0.2352846
sg15
I8
sg16
(lp826
g18
asg19
(dp827
g21
(F0.4412
F0.0716
tp828
sg23
(F-12.7891
F4.6313
tp829
sg25
(F9.5895
F3.5063
tp830
sg27
(F0.178
Finf
tp831
sg29
(F167.1038
F0.0586
tp832
sg31
(F125.427
F0.0403
tp833
sg33
(F0.4644
F0.0789
tp834
sssS'CGCG420-015'
p835
(dp836
g3
I2
sg4
F1545.3137667293
sg5
(dp837
g7
(F0.0
F0.0
tp838
sg9
(F0.0
F0.0
tp839
sg11
(F2.003e-05
F3.034e-06
tp840
ssg13
I5768
sg14
F0.2679116
sg15
I8
sg16
(lp841
g18
asg19
(dp842
g21
(F0.9969
F294.3048
tp843
sg23
(F24.1808
F2889718.0
tp844
sg25
(F3.425
F503.2196
tp845
sg27
(F0.0101
Finf
tp846
sg29
(F170.0369
F0.6186
tp847
sg31
(F123.0328
F0.1226
tp848
sg33
(F0.5149
F133.2623
tp849
sssS'Mrk202'
p850
(dp851
g3
I2
sg4
F1273.54613369951
sg5
(dp852
g7
(F0.0
F0.0
tp853
sg9
(F0.0
F0.0
tp854
sg11
(F6.39e-06
F2.784e-06
tp855
ssg13
I5768
sg14
F0.2207951
sg15
I8
sg16
(lp856
sg19
(dp857
g21
(F0.7095
F0.088
tp858
sg23
(F6.6025
F10.9571
tp859
sg25
(F1.1405
F0.6544
tp860
sg27
(F1.0367
F0.1252
tp861
sg29
(F169.6272
F0.032
tp862
sg31
(F127.1804
F0.0324
tp863
sg33
(F1.7838
F0.0121
tp864
sssS'ARK347'
p865
(dp866
g3
I2
sg4
F1419.54680830456
sg5
(dp867
g7
(F0.0
F0.0
tp868
sg9
(F0.0
F0.0
tp869
sg11
(F-4.673e-05
F2.824e-06
tp870
ssg13
I5768
sg14
F0.2461073
sg15
I8
sg16
(lp871
sg19
(dp872
g21
(F0.3634
F0.0625
tp873
sg23
(F13.0088
F3.1822
tp874
sg25
(F2.9578
F0.6803
tp875
sg27
(F0.8003
F0.0681
tp876
sg29
(F170.2183
F0.0395
tp877
sg31
(F122.0385
F0.0281
tp878
sg33
(F1.1018
F0.009
tp879
sssS'IC2461'
p880
(dp881
g3
I2
sg4
F1519.75646144834
sg5
(dp882
g7
(F0.0
F0.0
tp883
sg9
(F0.0
F0.0
tp884
sg11
(F-1.046e-05
F3.034e-06
tp885
ssg13
I5768
sg14
F0.2634807
sg15
I8
sg16
(lp886
g18
asg19
(dp887
g21
(F0.0784
Finf
tp888
sg23
(F45.058
F0.1013
tp889
sg25
(F1.0821
F0.0216
tp890
sg27
(F8.7838
F0.0564
tp891
sg29
(F169.6584
F0.0211
tp892
sg31
(F122.5477
F0.0213
tp893
sg33
(F-0.562
F0.0036
tp894
sssS'ESO362-18'
p895
(dp896
g3
I2
sg4
F1626.7635403889
sg5
(dp897
g7
(F0.0
F0.0
tp898
sg9
(F0.0
F0.0
tp899
sg11
(F-2.681e-05
F3.204e-06
tp900
ssg13
I5768
sg14
F0.2820325
sg15
I8
sg16
(lp901
sg19
(dp902
g21
(F0.474
F0.0095
tp903
sg23
(F33.7806
F0.6494
tp904
sg25
(F3.0496
F0.1272
tp905
sg27
(F2.2223
F0.0305
tp906
sg29
(F171.167
F0.0104
tp907
sg31
(F122.0712
F0.0093
tp908
sg33
(F-0.552
F0.0057
tp909
sssS'NGC1052'
p910
(dp911
g3
I2
sg4
F1389.39447971739
sg5
(dp912
g7
(F0.0
F0.0
tp913
sg9
(F0.0
F0.0
tp914
sg11
(F-7.967e-05
F2.856e-06
tp915
ssg13
I5768
sg14
F0.2408798
sg15
I8
sg16
(lp916
sg19
(dp917
g21
(F0.4509
F0.0179
tp918
sg23
(F-25.8346
F1.1861
tp919
sg25
(F3.9016
F0.3203
tp920
sg27
(F1.46
F0.0364
tp921
sg29
(F167.5027
F0.0162
tp922
sg31
(F123.026
F0.0132
tp923
sg33
(F0.2118
F0.0099
tp924
sssS'NGC513'
p925
(dp926
g3
I2
sg4
F1841.61235031083
sg5
(dp927
g7
(F0.0
F0.0
tp928
sg9
(F0.0
F0.0
tp929
sg11
(F-2.531e-05
F3.409e-06
tp930
ssg13
I5768
sg14
F0.3192809
sg15
I8
sg16
(lp931
sg19
(dp932
g21
(F0.5105
F0.0022
tp933
sg23
(F17.0886
F0.2379
tp934
sg25
(F0.5247
F0.0088
tp935
sg27
(F5.1987
F0.0184
tp936
sg29
(F167.2025
F0.0086
tp937
sg31
(F123.8537
F0.0131
tp938
sg33
(F-1.0697
F0.0023
tp939
sssS'NGC2992'
p940
(dp941
g3
I2
sg4
F13461.0795245467
sg5
(dp942
g7
(F0.0
F0.0
tp943
sg9
(F0.0
F0.0
tp944
sg11
(F0.0001212
F3.893e-06
tp945
ssg13
I5768
sg14
F2.333752
sg15
I8
sg16
(lp946
g57
asg19
(dp947
g21
(F0.7332
F0.0023
tp948
sg23
(F-34.9252
F0.3239
tp949
sg25
(F1.0913
F0.0078
tp950
sg27
(F4.5986
F0.0148
tp951
sg29
(F306.9446
F0.008
tp952
sg31
(F321.3918
F0.0104
tp953
sg33
(F-2.1827
F0.0037
tp954
sssS'ESO553-G022'
p955
(dp956
g3
I2
sg4
F1416.28541053179
sg5
(dp957
g7
(F0.0
F0.0
tp958
sg9
(F0.0
F0.0
tp959
sg11
(F-6.73e-05
F3.076e-06
tp960
ssg13
I5768
sg14
F0.2455419
sg15
I8
sg16
(lp961
g18
asg19
(dp962
g21
(F0.025
Finf
tp963
sg23
(F-49.019
F1.2678
tp964
sg25
(F8.0546
F9.3837
tp965
sg27
(F1.9207
F0.5336
tp966
sg29
(F170.2013
F1.2661
tp967
sg31
(F121.1346
F1.3105
tp968
sg33
(F2.358
F0.1163
tp969
sssS'Mrk279'
p970
(dp971
g3
I2
sg4
F10923.2195384258
sg5
(dp972
g7
(F0.0
F0.0
tp973
sg9
(F0.0
F0.0
tp974
sg11
(F9.313e-05
F8.274e-06
tp975
ssg13
I5768
sg14
F1.893762
sg15
I8
sg16
(lp976
g18
asg19
(dp977
g21
(F0.679
F0.2347
tp978
sg23
(F-88.2581
F27.5693
tp979
sg25
(F6.2405
F5.983
tp980
sg27
(F0.2029
Finf
tp981
sg29
(F167.2088
F0.0987
tp982
sg31
(F124.5166
F0.1245
tp983
sg33
(F0.2861
F0.0929
tp984
sssS'NGC7679'
p985
(dp986
g3
I2
sg4
F1980.76665221387
sg5
(dp987
g7
(F0.0
F0.0
tp988
sg9
(F0.0
F0.0
tp989
sg11
(F-7.324e-05
F3.536e-06
tp990
ssg13
I5768
sg14
F0.3434061
sg15
I8
sg16
(lp991
sg19
(dp992
g21
(F0.9678
F0.0035
tp993
sg23
(F-77.6827
F4.1279
tp994
sg25
(F0.8403
F0.0121
tp995
sg27
(F2.356
F0.0083
tp996
sg29
(F170.9362
F0.0062
tp997
sg31
(F124.282
F0.0057
tp998
sg33
(F-2.2767
F0.002
tp999
sssS'ESO399-20'
p1000
(dp1001
g3
I2
sg4
F1797.35780942911
sg5
(dp1002
g7
(F0.0
F0.0
tp1003
sg9
(F0.0
F0.0
tp1004
sg11
(F-2.763e-05
F3.254e-06
tp1005
ssg13
I5768
sg14
F0.3116085
sg15
I8
sg16
(lp1006
sg19
(dp1007
g21
(F0.531
F0.0169
tp1008
sg23
(F31.3045
F1.3195
tp1009
sg25
(F4.1233
F0.3491
tp1010
sg27
(F4.7029
F0.3095
tp1011
sg29
(F169.6857
F0.0205
tp1012
sg31
(F121.4807
F0.0246
tp1013
sg33
(F0.1843
F0.0353
tp1014
sssS'2MASXJ04234080+0408017'
p1015
(dp1016
g3
I2
sg4
F1407.37610303547
sg5
(dp1017
g7
(F0.0
F0.0
tp1018
sg9
(F0.0
F0.0
tp1019
sg11
(F-2.283e-05
F2.908e-06
tp1020
ssg13
I5768
sg14
F0.2439972
sg15
I8
sg16
(lp1021
sg19
(dp1022
g21
(F0.3116
F0.0198
tp1023
sg23
(F-51.157
F1.0958
tp1024
sg25
(F4.1438
F0.4251
tp1025
sg27
(F1.8549
F0.0602
tp1026
sg29
(F171.1429
F0.0183
tp1027
sg31
(F123.0451
F0.0194
tp1028
sg33
(F0.5707
F0.0144
tp1029
sssS'NGC1125'
p1030
(dp1031
g3
I2
sg4
F4829.31964087653
sg5
(dp1032
g7
(F0.0
F0.0
tp1033
sg9
(F0.0
F0.0
tp1034
sg11
(F-5.739e-05
F5.358e-06
tp1035
ssg13
I5768
sg14
F0.8372607
sg15
I8
sg16
(lp1036
g18
asg19
(dp1037
g21
(F0.1629
F0.0156
tp1038
sg23
(F9.6622
F0.7225
tp1039
sg25
(F16.4696
Finf
tp1040
sg27
(F0.2436
Finf
tp1041
sg29
(F166.7127
F0.0498
tp1042
sg31
(F125.7247
F0.032
tp1043
sg33
(F-1.4599
F0.0656
tp1044
sssS'HB890241+622'
p1045
(dp1046
g3
I2
sg4
F1476.95336342109
sg5
(dp1047
g7
(F0.0
F0.0
tp1048
sg9
(F0.0
F0.0
tp1049
sg11
(F2.443e-06
F2.827e-06
tp1050
ssg13
I5768
sg14
F0.2560599
sg15
I8
sg16
(lp1051
g18
asg19
(dp1052
g21
(F0.439
F0.0
tp1053
sg23
(F32.7914
F0.0
tp1054
sg25
(F0.0237
Finf
tp1055
sg27
(F0.6543
F0.0
tp1056
sg29
(F171.2795
F0.0
tp1057
sg31
(F124.1346
F0.0
tp1058
sg33
(F0.7669
F0.0
tp1059
sssS'2MASXiJ1802473-145454'
p1060
(dp1061
g3
I2
sg4
F1527.67682513626
sg5
(dp1062
g7
(F0.0
F0.0
tp1063
sg9
(F0.0
F0.0
tp1064
sg11
(F3.629e-05
F3.065e-06
tp1065
ssg13
I5768
sg14
F0.2648538
sg15
I8
sg16
(lp1066
sg19
(dp1067
g21
(F0.6712
F0.0273
tp1068
sg23
(F-70.8008
F2.8773
tp1069
sg25
(F0.6639
F0.2053
tp1070
sg27
(F1.1202
F0.0642
tp1071
sg29
(F171.8861
F0.0095
tp1072
sg31
(F121.0518
F0.009
tp1073
sg33
(F-0.1125
F0.0044
tp1074
sssS'Fairall49'
p1075
(dp1076
g3
I2
sg4
F2453.16724640083
sg5
(dp1077
g7
(F0.0
F0.0
tp1078
sg9
(F0.0
F0.0
tp1079
sg11
(F-4.153e-05
F3.904e-06
tp1080
ssg13
I5768
sg14
F0.4253064
sg15
I8
sg16
(lp1081
g18
asg19
(dp1082
g21
(F0.9201
F120.1672
tp1083
sg23
(F65.0411
F46246.5
tp1084
sg25
(F3.6985
F557.2617
tp1085
sg27
(F0.0102
Finf
tp1086
sg29
(F167.2527
F0.8291
tp1087
sg31
(F124.4482
F0.2614
tp1088
sg33
(F-1.2428
F137.4892
tp1089
sssS'2MASXJ19380437-5109497'
p1090
(dp1091
g3
I2
sg4
F1484.41870711737
sg5
(dp1092
g7
(F0.0
F0.0
tp1093
sg9
(F0.0
F0.0
tp1094
sg11
(F4.301e-05
F2.993e-06
tp1095
ssg13
I5768
sg14
F0.2573541
sg15
I8
sg16
(lp1096
g18
asg19
(dp1097
g21
(F0.0492
Finf
tp1098
sg23
(F10.8687
F0.0
tp1099
sg25
(F0.0412
Finf
tp1100
sg27
(F2.397
F0.0
tp1101
sg29
(F170.9975
F0.0
tp1102
sg31
(F123.6528
F0.0
tp1103
sg33
(F2.8092
F0.0
tp1104
sssS'IC0486'
p1105
(dp1106
g3
I2
sg4
F1551.33025423642
sg5
(dp1107
g7
(F0.0
F0.0
tp1108
sg9
(F0.0
F0.0
tp1109
sg11
(F-2.876e-06
F3.092e-06
tp1110
ssg13
I5768
sg14
F0.2689546
sg15
I8
sg16
(lp1111
sg19
(dp1112
g21
(F0.3448
F0.0201
tp1113
sg23
(F34.0741
F0.9946
tp1114
sg25
(F3.1907
F0.2508
tp1115
sg27
(F1.3902
F0.0316
tp1116
sg29
(F170.3782
F0.0144
tp1117
sg31
(F122.6815
F0.013
tp1118
sg33
(F0.0812
F0.0051
tp1119
sssS'NGC7469'
p1120
(dp1121
g3
I2
sg4
F87563.5503899962
sg5
(dp1122
g7
(F0.0
F0.0
tp1123
sg9
(F0.0
F0.0
tp1124
sg11
(F0.0002411
F8.728e-06
tp1125
ssg13
I5768
sg14
F15.18092
sg15
I8
sg16
(lp1126
sg19
(dp1127
g21
(F0.9422
F0.0041
tp1128
sg23
(F52.1616
F2.6539
tp1129
sg25
(F1.9108
F0.022
tp1130
sg27
(F3.2554
F0.0178
tp1131
sg29
(F208.9332
F0.0185
tp1132
sg31
(F159.3605
F0.0157
tp1133
sg33
(F-3.2136
F0.0059
tp1134
sssS'NGC7582'
p1135
(dp1136
g3
I2
sg4
F84424.6722674676
sg5
(dp1137
g7
(F0.0
F0.0
tp1138
sg9
(F0.0
F0.0
tp1139
sg11
(F-0.0001597
F5.254e-05
tp1140
ssg13
I5768
sg14
F14.63673
sg15
I8
sg16
(lp1141
g57
ag18
asg19
(dp1142
g21
(F0.4678
F0.0053
tp1143
sg23
(F-69.6671
F0.4138
tp1144
sg25
(F13.0117
Finf
tp1145
sg27
(F67.4372
F28.3942
tp1146
sg29
(F334.4704
F0.0285
tp1147
sg31
(F289.4976
F0.0116
tp1148
sg33
(F-4.626
F0.1557
tp1149
sssS'MCG-02-08-038'
p1150
(dp1151
g16
(lp1152
g324
assS'Mrk1392'
p1153
(dp1154
g3
I2
sg4
F1451.58675269149
sg5
(dp1155
g7
(F0.0
F0.0
tp1156
sg9
(F0.0
F0.0
tp1157
sg11
(F-1.373e-05
F3.09e-06
tp1158
ssg13
I5768
sg14
F0.251662
sg15
I8
sg16
(lp1159
g18
asg19
(dp1160
g21
(F0.5919
F0.0654
tp1161
sg23
(F-68.2843
F5.6337
tp1162
sg25
(F17.8881
Finf
tp1163
sg27
(F0.9386
F0.1845
tp1164
sg29
(F167.417
F0.047
tp1165
sg31
(F121.7569
F0.0549
tp1166
sg33
(F0.8934
F0.222
tp1167
sssS'NGC4619'
p1168
(dp1169
g3
I2
sg4
F2635.26271422606
sg5
(dp1170
g7
(F0.0
F0.0
tp1171
sg9
(F0.0
F0.0
tp1172
sg11
(F1.358e-05
F3.992e-06
tp1173
ssg13
I5768
sg14
F0.4568763
sg15
I8
sg16
(lp1174
sg19
(dp1175
g21
(F0.5816
F0.005
tp1176
sg23
(F80.6147
F0.6701
tp1177
sg25
(F0.3488
F0.0133
tp1178
sg27
(F10.2894
F0.0907
tp1179
sg29
(F170.5612
F0.0781
tp1180
sg31
(F124.8118
F0.0481
tp1181
sg33
(F-0.3678
F0.0068
tp1182
sssS'MCG+08-11-011'
p1183
(dp1184
g3
I2
sg4
F5101.25491692901
sg5
(dp1185
g7
(F0.0
F0.0
tp1186
sg9
(F0.0
F0.0
tp1187
sg11
(F0.0001251
F5.719e-06
tp1188
ssg13
I5768
sg14
F0.8844062
sg15
I8
sg16
(lp1189
g18
asg19
(dp1190
g21
(F0.9925
F284.8465
tp1191
sg23
(F-53.5292
F522557.4062
tp1192
sg25
(F3.9214
F80.4251
tp1193
sg27
(F0.0102
Finf
tp1194
sg29
(F171.087
F1.6086
tp1195
sg31
(F123.8212
F1.5831
tp1196
sg33
(F-0.7558
F16.2398
tp1197
sssS'IIZw083'
p1198
(dp1199
g3
I2
sg4
F1480.04142304818
sg5
(dp1200
g7
(F0.0
F0.0
tp1201
sg9
(F0.0
F0.0
tp1202
sg11
(F-3.335e-05
F2.937e-06
tp1203
ssg13
I5768
sg14
F0.2565953
sg15
I8
sg16
(lp1204
sg19
(dp1205
g21
(F0.8412
F0.0207
tp1206
sg23
(F-78.3309
F4.7874
tp1207
sg25
(F2.4973
F0.1844
tp1208
sg27
(F1.0923
F0.0195
tp1209
sg29
(F170.568
F0.0142
tp1210
sg31
(F124.2026
F0.014
tp1211
sg33
(F-0.0869
F0.0043
tp1212
sssS'Mrk509'
p1213
(dp1214
g3
I2
sg4
F1287.15668757152
sg5
(dp1215
g7
(F0.0
F0.0
tp1216
sg9
(F0.0
F0.0
tp1217
sg11
(F-2.05e-05
F2.716e-06
tp1218
ssg13
I5768
sg14
F0.2231548
sg15
I8
sg16
(lp1219
sg19
(dp1220
g21
(F0.7168
F0.034
tp1221
sg23
(F17.4722
F4.0115
tp1222
sg25
(F0.6717
F0.2612
tp1223
sg27
(F0.8926
F0.0674
tp1224
sg29
(F170.8005
F0.0073
tp1225
sg31
(F123.7228
F0.0077
tp1226
sg33
(F-0.3549
F0.004
tp1227
sssS'NGC6860'
p1228
(dp1229
g3
I2
sg4
F6655.34060296952
sg5
(dp1230
g7
(F0.0
F0.0
tp1231
sg9
(F0.0
F0.0
tp1232
sg11
(F-1.975e-05
F2.27e-06
tp1233
ssg13
I5768
sg14
F1.153839
sg15
I8
sg16
(lp1234
sg19
(dp1235
g21
(F0.7034
F0.0024
tp1236
sg23
(F-17.5835
F0.4694
tp1237
sg25
(F0.9733
F0.0077
tp1238
sg27
(F7.4056
F0.0475
tp1239
sg29
(F210.7691
F0.0132
tp1240
sg31
(F153.6797
F0.0181
tp1241
sg33
(F-0.3249
F0.005
tp1242
sssS'NGC4051'
p1243
(dp1244
g3
I2
sg4
F19858.8017795818
sg5
(dp1245
g7
(F0.0
F0.0
tp1246
sg9
(F0.0
F0.0
tp1247
sg11
(F0.0008591
F1.115e-05
tp1248
ssg13
I5768
sg14
F3.442927
sg15
I8
sg16
(lp1249
g57
asg19
(dp1250
g21
(F0.9217
F0.0129
tp1251
sg23
(F-19.2793
F6.7096
tp1252
sg25
(F0.9325
F0.0324
tp1253
sg27
(F2.838
F0.0433
tp1254
sg29
(F318.2901
F0.0303
tp1255
sg31
(F324.3988
F0.0293
tp1256
sg33
(F-0.9616
F0.0179
tp1257
sssS'2MASXJ07262635-3554214'
p1258
(dp1259
g3
I2
sg4
F1374.83569394768
sg5
(dp1260
g7
(F0.0
F0.0
tp1261
sg9
(F0.0
F0.0
tp1262
sg11
(F1.725e-05
F2.845e-06
tp1263
ssg13
I5768
sg14
F0.2383557
sg15
I8
sg16
(lp1264
sg19
(dp1265
g21
(F0.3947
F0.0131
tp1266
sg23
(F-53.28
F0.7862
tp1267
sg25
(F2.674
F0.156
tp1268
sg27
(F1.6054
F0.0247
tp1269
sg29
(F167.0905
F0.0105
tp1270
sg31
(F123.1197
F0.0093
tp1271
sg33
(F-0.0593
F0.0042
tp1272
sssS'NGC4748'
p1273
(dp1274
g3
I2
sg4
F1432.77219592051
sg5
(dp1275
g7
(F0.0
F0.0
tp1276
sg9
(F0.0
F0.0
tp1277
sg11
(F-5.18e-06
F2.846e-06
tp1278
ssg13
I5768
sg14
F0.2484002
sg15
I8
sg16
(lp1279
g18
asg19
(dp1280
g21
(F0.637
F0.0227
tp1281
sg23
(F-58.6167
F2.2736
tp1282
sg25
(F14.2017
Finf
tp1283
sg27
(F0.4757
Finf
tp1284
sg29
(F166.1783
F0.0186
tp1285
sg31
(F124.1308
F0.0189
tp1286
sg33
(F-0.5073
F0.0441
tp1287
sssS'NGC4507'
p1288
(dp1289
g3
I2
sg4
F4732.19027459534
sg5
(dp1290
g7
(F0.0
F0.0
tp1291
sg9
(F0.0
F0.0
tp1292
sg11
(F-8.125e-05
F9.201e-06
tp1293
ssg13
I5768
sg14
F0.8204213
sg15
I8
sg16
(lp1294
g18
asg19
(dp1295
g21
(F0.6763
F0.0127
tp1296
sg23
(F-60.8942
F1.342
tp1297
sg25
(F19.9986
Finf
tp1298
sg27
(F4.3876
F1.0037
tp1299
sg29
(F170.8335
F0.0186
tp1300
sg31
(F122.788
F0.0209
tp1301
sg33
(F-1.9672
F0.09
tp1302
sssS'NGC2655'
p1303
(dp1304
g3
I2
sg4
F1625.81443184507
sg5
(dp1305
g7
(F0.0
F0.0
tp1306
sg9
(F0.0
F0.0
tp1307
sg11
(F6.203e-06
F3.033e-06
tp1308
ssg13
I5768
sg14
F0.281868
sg15
I8
sg16
(lp1309
sg19
(dp1310
g21
(F0.5135
F0.0094
tp1311
sg23
(F-85.0273
F0.71
tp1312
sg25
(F5.6382
F0.2993
tp1313
sg27
(F2.3468
F0.0428
tp1314
sg29
(F170.2824
F0.0108
tp1315
sg31
(F123.136
F0.0115
tp1316
sg33
(F-0.7532
F0.0127
tp1317
sssS'NGC5106'
p1318
(dp1319
g3
I2
sg4
F2638.67958187792
sg5
(dp1320
g7
(F0.0
F0.0
tp1321
sg9
(F0.0
F0.0
tp1322
sg11
(F1.626e-05
F3.961e-06
tp1323
ssg13
I5768
sg14
F0.4574687
sg15
I8
sg16
(lp1324
sg19
(dp1325
g21
(F0.4171
F0.0053
tp1326
sg23
(F-69.7714
F0.3648
tp1327
sg25
(F0.5463
F0.0211
tp1328
sg27
(F2.9515
F0.0155
tp1329
sg29
(F169.7816
F0.0109
tp1330
sg31
(F124.3922
F0.0081
tp1331
sg33
(F-1.0595
F0.003
tp1332
sssS'WKK4374'
p1333
(dp1334
g3
I2
sg4
F1603.25642036355
sg5
(dp1335
g7
(F0.0
F0.0
tp1336
sg9
(F0.0
F0.0
tp1337
sg11
(F-2.861e-05
F2.989e-06
tp1338
ssg13
I5768
sg14
F0.2779571
sg15
I8
sg16
(lp1339
sg19
(dp1340
g21
(F0.896
F0.0103
tp1341
sg23
(F-83.8763
F4.8051
tp1342
sg25
(F0.7396
F0.0176
tp1343
sg27
(F2.869
F0.0455
tp1344
sg29
(F172.5982
F0.0271
tp1345
sg31
(F148.4901
F0.0242
tp1346
sg33
(F1.5898
F0.0113
tp1347
sssS'NGC3035'
p1348
(dp1349
g3
I2
sg4
F1890.12488176474
sg5
(dp1350
g7
(F0.0
F0.0
tp1351
sg9
(F0.0
F0.0
tp1352
sg11
(F-2.602e-05
F7.366e-06
tp1353
ssg13
I5768
sg14
F0.3276916
sg15
I8
sg16
(lp1354
sg19
(dp1355
g21
(F0.8614
F0.0129
tp1356
sg23
(F19.8265
F3.1946
tp1357
sg25
(F2.9859
F0.1294
tp1358
sg27
(F19.0148
F1.8731
tp1359
sg29
(F167.5479
F0.0155
tp1360
sg31
(F145.7065
F0.0224
tp1361
sg33
(F-0.4946
F0.0801
tp1362
sssS'NGC5252'
p1363
(dp1364
g3
I2
sg4
F1373.17324027657
sg5
(dp1365
g7
(F0.0
F0.0
tp1366
sg9
(F0.0
F0.0
tp1367
sg11
(F-4.085e-05
F3.572e-06
tp1368
ssg13
I5768
sg14
F0.2380675
sg15
I8
sg16
(lp1369
g18
asg19
(dp1370
g21
(F0.3468
F0.0241
tp1371
sg23
(F65.5754
F1.5291
tp1372
sg25
(F18.3856
Finf
tp1373
sg27
(F22.8252
F25.4374
tp1374
sg29
(F170.9234
F0.0382
tp1375
sg31
(F124.8235
F0.0338
tp1376
sg33
(F0.243
F0.3437
tp1377
sssS'IC1657'
p1378
(dp1379
g3
I2
sg4
F6749.10361962303
sg5
(dp1380
g7
(F0.0
F0.0
tp1381
sg9
(F0.0
F0.0
tp1382
sg11
(F5.44e-05
F6.374e-06
tp1383
ssg13
I5768
sg14
F1.170094
sg15
I8
sg16
(lp1384
g18
asg19
(dp1385
g21
(F0.027
Finf
tp1386
sg23
(F-65.7573
F0.0556
tp1387
sg25
(F0.3144
F0.0251
tp1388
sg27
(F8.5496
F0.2295
tp1389
sg29
(F173.0003
F0.0311
tp1390
sg31
(F128.5003
F0.0138
tp1391
sg33
(F-1.3271
F0.0287
tp1392
sssS'IRAS05218-1212'
p1393
(dp1394
g3
I2
sg4
F5264.74928199639
sg5
(dp1395
g7
(F0.0
F0.0
tp1396
sg9
(F0.0
F0.0
tp1397
sg11
(F5.426e-05
F5.653e-06
tp1398
ssg13
I5768
sg14
F0.9127513
sg15
I8
sg16
(lp1399
g57
ag18
asg19
(dp1400
g21
(F0.2503
F2.3276
tp1401
sg23
(F50.3213
F97.6719
tp1402
sg25
(F20.0
Finf
tp1403
sg27
(F0.006205
Finf
tp1404
sg29
(F167.2091
F0.8383
tp1405
sg31
(F123.1054
F0.8979
tp1406
sg33
(F1.9084
F15.3764
tp1407
sssS'ESO297-018'
p1408
(dp1409
g3
I2
sg4
F2053.98906183404
sg5
(dp1410
g7
(F0.0
F0.0
tp1411
sg9
(F0.0
F0.0
tp1412
sg11
(F-1.807e-05
F3.404e-06
tp1413
ssg13
I5768
sg14
F0.3561007
sg15
I8
sg16
(lp1414
sg19
(dp1415
g21
(F0.2072
F0.006
tp1416
sg23
(F80.4744
F0.3867
tp1417
sg25
(F1.4223
F0.054
tp1418
sg27
(F6.8703
F0.1343
tp1419
sg29
(F169.683
F0.0467
tp1420
sg31
(F126.3031
F0.0226
tp1421
sg33
(F0.2732
F0.0123
tp1422
sssS'NGC7465'
p1423
(dp1424
g3
I2
sg4
F1786.43474321643
sg5
(dp1425
g7
(F0.0
F0.0
tp1426
sg9
(F0.0
F0.0
tp1427
sg11
(F-1.945e-05
F3.38e-06
tp1428
ssg13
I5768
sg14
F0.3097148
sg15
I8
sg16
(lp1429
sg19
(dp1430
g21
(F0.9492
F0.0053
tp1431
sg23
(F38.8353
F4.0264
tp1432
sg25
(F1.5781
F0.0314
tp1433
sg27
(F2.0653
F0.0125
tp1434
sg29
(F170.047
F0.0079
tp1435
sg31
(F123.6295
F0.008
tp1436
sg33
(F-1.5361
F0.0025
tp1437
sssS'CGCG229-015'
p1438
(dp1439
g3
I2
sg4
F1360.76028382373
sg5
(dp1440
g7
(F0.0
F0.0
tp1441
sg9
(F0.0
F0.0
tp1442
sg11
(F2.277e-06
F2.785e-06
tp1443
ssg13
I5768
sg14
F0.2359154
sg15
I8
sg16
(lp1444
sg19
(dp1445
g21
(F0.3646
F0.1071
tp1446
sg23
(F26.755
F4.9483
tp1447
sg25
(F1.9141
F0.7979
tp1448
sg27
(F1.1169
F0.1099
tp1449
sg29
(F170.6847
F0.0462
tp1450
sg31
(F124.0384
F0.0415
tp1451
sg33
(F2.074
F0.0158
tp1452
sssS'IC5063'
p1453
(dp1454
g3
I2
sg4
F11963.36327994
sg5
(dp1455
g7
(F0.0
F0.0
tp1456
sg9
(F0.0
F0.0
tp1457
sg11
(F4.158e-05
F3.151e-06
tp1458
ssg13
I5768
sg14
F2.074092
sg15
I8
sg16
(lp1459
sg19
(dp1460
g21
(F0.827
F0.003
tp1461
sg23
(F43.2012
F0.6133
tp1462
sg25
(F1.254
F0.011
tp1463
sg27
(F3.6422
F0.0149
tp1464
sg29
(F208.5431
F0.0079
tp1465
sg31
(F150.4513
F0.0076
tp1466
sg33
(F-1.4543
F0.0041
tp1467
sssS'ESO417-G006'
p1468
(dp1469
g3
I2
sg4
F1334.79308126784
sg5
(dp1470
g7
(F0.0
F0.0
tp1471
sg9
(F0.0
F0.0
tp1472
sg11
(F4.614e-05
F2.738e-06
tp1473
ssg13
I5768
sg14
F0.2314135
sg15
I8
sg16
(lp1474
sg19
(dp1475
g21
(F0.1719
F1504.4574
tp1476
sg23
(F-89.8914
F9313388.0
tp1477
sg25
(F0.0909
F1291.8807
tp1478
sg27
(F1.9014
F1359.4119
tp1479
sg29
(F169.9138
F0.6929
tp1480
sg31
(F124.572
F223.9083
tp1481
sg33
(F1.5954
F1670.8685
tp1482
sssS'2MASXJ05580206-3820043'
p1483
(dp1484
g3
I2
sg4
F1523.07587210991
sg5
(dp1485
g7
(F0.0
F0.0
tp1486
sg9
(F0.0
F0.0
tp1487
sg11
(F-2.299e-06
F3.072e-06
tp1488
ssg13
I5768
sg14
F0.2640561
sg15
I8
sg16
(lp1489
g18
asg19
(dp1490
g21
(F0.1373
F0.0
tp1491
sg23
(F-9.8902
F0.0
tp1492
sg25
(F1.282
F0.0
tp1493
sg27
(F0.0302
Finf
tp1494
sg29
(F171.9261
F0.0
tp1495
sg31
(F123.6326
F0.0
tp1496
sg33
(F1.5071
F0.0
tp1497
sssS'NGC5290'
p1498
(dp1499
g3
I2
sg4
F3427.48822998659
sg5
(dp1500
g7
(F0.0
F0.0
tp1501
sg9
(F0.0
F0.0
tp1502
sg11
(F-8.428e-05
F4.517e-06
tp1503
ssg13
I7217
sg14
F0.4749187
sg15
I8
sg16
(lp1504
sg19
(dp1505
g21
(F0.1603
F0.0026
tp1506
sg23
(F8.9636
F0.1842
tp1507
sg25
(F6.222
F0.3968
tp1508
sg27
(F73.6412
F11.9546
tp1509
sg29
(F171.6701
F0.019
tp1510
sg31
(F123.4081
F0.0395
tp1511
sg33
(F-1.7686
F0.0873
tp1512
sssS'IC4329A'
p1513
(dp1514
g3
I2
sg4
F2237.62948733313
sg5
(dp1515
g7
(F0.0
F0.0
tp1516
sg9
(F0.0
F0.0
tp1517
sg11
(F-2.748e-05
F3.605e-06
tp1518
ssg13
I5768
sg14
F0.3879385
sg15
I8
sg16
(lp1519
g18
asg19
(dp1520
g21
(F0.9578
F213.86
tp1521
sg23
(F41.6216
F49197.9922
tp1522
sg25
(F3.8715
F295.3426
tp1523
sg27
(F0.0102
Finf
tp1524
sg29
(F170.7313
F8.133
tp1525
sg31
(F125.522
F6.9781
tp1526
sg33
(F-0.5894
F64.4774
tp1527
sssS'NGC4388'
p1528
(dp1529
g3
I2
sg4
F25997.3810894267
sg5
(dp1530
g7
(F0.0
F0.0
tp1531
sg9
(F0.0
F0.0
tp1532
sg11
(F6.163e-05
F4.703e-06
tp1533
ssg13
I15121
sg14
F1.71929
sg15
I8
sg16
(lp1534
sg19
(dp1535
g21
(F0.1545
F0.0009
tp1536
sg23
(F-6.0932
F0.0538
tp1537
sg25
(F0.0528
F0.0052
tp1538
sg27
(F21.732
F0.3602
tp1539
sg29
(F340.6029
F0.0155
tp1540
sg31
(F330.8505
F0.0577
tp1541
sg33
(F-2.2792
F0.0041
tp1542
sssS'Fairall9'
p1543
(dp1544
g3
I2
sg4
F1565.6807117085
sg5
(dp1545
g7
(F0.0
F0.0
tp1546
sg9
(F0.0
F0.0
tp1547
sg11
(F-4.455e-07
F3.092e-06
tp1548
ssg13
I5768
sg14
F0.2714426
sg15
I8
sg16
(lp1549
g18
asg19
(dp1550
g21
(F0.543
F0.1014
tp1551
sg23
(F-77.4161
F8.3192
tp1552
sg25
(F3.8693
F1.6581
tp1553
sg27
(F0.3578
Finf
tp1554
sg29
(F169.8355
F0.0349
tp1555
sg31
(F126.5302
F0.049
tp1556
sg33
(F0.7603
F0.0138
tp1557
sssS'NGC788'
p1558
(dp1559
g3
I2
sg4
F1334.7576828504
sg5
(dp1560
g7
(F0.0
F0.0
tp1561
sg9
(F0.0
F0.0
tp1562
sg11
(F-2.184e-05
F2.813e-06
tp1563
ssg13
I5768
sg14
F0.2314074
sg15
I8
sg16
(lp1564
g18
asg19
(dp1565
g21
(F0.6393
F0.0658
tp1566
sg23
(F32.2347
F5.8631
tp1567
sg25
(F19.9977
Finf
tp1568
sg27
(F0.2159
Finf
tp1569
sg29
(F168.728
F0.0464
tp1570
sg31
(F122.5166
F0.0423
tp1571
sg33
(F0.4387
F0.1632
tp1572
sssS'NGC2110'
p1573
(dp1574
g3
I2
sg4
F1441.30055829985
sg5
(dp1575
g7
(F0.0
F0.0
tp1576
sg9
(F0.0
F0.0
tp1577
sg11
(F-7.274e-06
F3.001e-06
tp1578
ssg13
I5768
sg14
F0.2498787
sg15
I8
sg16
(lp1579
sg19
(dp1580
g21
(F0.6295
F0.006
tp1581
sg23
(F84.5365
F0.5783
tp1582
sg25
(F2.0107
F0.0497
tp1583
sg27
(F1.5955
F0.0124
tp1584
sg29
(F170.9527
F0.0065
tp1585
sg31
(F123.3248
F0.0068
tp1586
sg33
(F-1.7037
F0.0028
tp1587
sssS'NGC7603'
p1588
(dp1589
g3
I2
sg4
F1513.78465529613
sg5
(dp1590
g7
(F0.0
F0.0
tp1591
sg9
(F0.0
F0.0
tp1592
sg11
(F-1.504e-05
F3.127e-06
tp1593
ssg13
I5768
sg14
F0.2624453
sg15
I8
sg16
(lp1594
sg19
(dp1595
g21
(F0.5908
F0.0267
tp1596
sg23
(F-65.2646
F2.1608
tp1597
sg25
(F3.4611
F0.3468
tp1598
sg27
(F0.7598
F0.0302
tp1599
sg29
(F166.9483
F0.0147
tp1600
sg31
(F125.5312
F0.0167
tp1601
sg33
(F-0.2395
F0.0048
tp1602
sssS'Mrk739E'
p1603
(dp1604
g3
I2
sg4
F2057.27706280224
sg5
(dp1605
g7
(F0.0
F0.0
tp1606
sg9
(F0.0
F0.0
tp1607
sg11
(F-4.106e-06
F3.486e-06
tp1608
ssg13
I5768
sg14
F0.3566708
sg15
I8
sg16
(lp1609
sg19
(dp1610
g21
(F0.4649
F0.0054
tp1611
sg23
(F-3.3987
F0.4453
tp1612
sg25
(F0.6383
F0.0206
tp1613
sg27
(F3.5052
F0.0183
tp1614
sg29
(F170.9673
F0.012
tp1615
sg31
(F121.0038
F0.0168
tp1616
sg33
(F-0.4593
F0.0031
tp1617
sssS'IGRJ23308+7120'
p1618
(dp1619
g3
I2
sg4
F1358.33926008779
sg5
(dp1620
g7
(F0.0
F0.0
tp1621
sg9
(F0.0
F0.0
tp1622
sg11
(F-2.399e-05
F2.781e-06
tp1623
ssg13
I5768
sg14
F0.2354957
sg15
I8
sg16
(lp1624
g18
asg19
(dp1625
g21
(F0.4856
F0.0595
tp1626
sg23
(F-14.7344
F4.905
tp1627
sg25
(F15.0877
Finf
tp1628
sg27
(F0.4734
Finf
tp1629
sg29
(F168.1581
F0.0626
tp1630
sg31
(F124.4138
F0.0504
tp1631
sg33
(F1.0328
F0.1453
tp1632
sssS'NGC3516'
p1633
(dp1634
g3
I2
sg4
F1392.39415455507
sg5
(dp1635
g7
(F0.0
F0.0
tp1636
sg9
(F0.0
F0.0
tp1637
sg11
(F-1.063e-05
F3.063e-06
tp1638
ssg13
I5768
sg14
F0.2413998
sg15
I8
sg16
(lp1639
sg19
(dp1640
g21
(F0.5011
F0.0098
tp1641
sg23
(F-68.6644
F0.92
tp1642
sg25
(F2.8369
F0.152
tp1643
sg27
(F1.2319
F0.0173
tp1644
sg29
(F168.694
F0.0104
tp1645
sg31
(F120.9299
F0.009
tp1646
sg33
(F-0.6103
F0.0037
tp1647
sssS'Mrk766'
p1648
(dp1649
g3
I2
sg4
F1483.99538110519
sg5
(dp1650
g7
(F0.0
F0.0
tp1651
sg9
(F0.0
F0.0
tp1652
sg11
(F-2.489e-05
F3.166e-06
tp1653
ssg13
I5768
sg14
F0.2572808
sg15
I8
sg16
(lp1654
g18
asg19
(dp1655
g21
(F0.4097
F0.0217
tp1656
sg23
(F-6.8363
F1.3345
tp1657
sg25
(F5.379
F0.478
tp1658
sg27
(F0.3348
Finf
tp1659
sg29
(F171.677
F0.0238
tp1660
sg31
(F123.1731
F0.0171
tp1661
sg33
(F-1.5144
F0.0058
tp1662
sssS'ESO374-G044'
p1663
(dp1664
g3
I2
sg4
F1492.57225427124
sg5
(dp1665
g7
(F0.0
F0.0
tp1666
sg9
(F0.0
F0.0
tp1667
sg11
(F-2.989e-05
F2.999e-06
tp1668
ssg13
I5768
sg14
F0.2587677
sg15
I8
sg16
(lp1669
g18
asg19
(dp1670
g21
(F0.6632
F0.0825
tp1671
sg23
(F28.2503
F8.1283
tp1672
sg25
(F18.0659
Finf
tp1673
sg27
(F0.7023
F0.1534
tp1674
sg29
(F170.886
F0.0556
tp1675
sg31
(F118.7034
F0.0516
tp1676
sg33
(F0.9531
F0.2341
tp1677
sssS'2MASXJ20005575-1810274'
p1678
(dp1679
g3
I2
sg4
F1349.5267069191
sg5
(dp1680
g7
(F0.0
F0.0
tp1681
sg9
(F0.0
F0.0
tp1682
sg11
(F-2.127e-05
F2.833e-06
tp1683
ssg13
I5768
sg14
F0.2339679
sg15
I8
sg16
(lp1684
g18
asg19
(dp1685
g21
(F0.6907
F5.8602
tp1686
sg23
(F-67.9376
F2190.8667
tp1687
sg25
(F2.8621
F388.9911
tp1688
sg27
(F0.0499
Finf
tp1689
sg29
(F171.4857
F0.361
tp1690
sg31
(F124.1164
F0.7263
tp1691
sg33
(F0.2258
F15.8365
tp1692
sssS'MCG-01-30-041'
p1693
(dp1694
g3
I2
sg4
F1490.75317832298
sg5
(dp1695
g7
(F0.0
F0.0
tp1696
sg9
(F0.0
F0.0
tp1697
sg11
(F-6.955e-05
F2.989e-06
tp1698
ssg13
I5768
sg14
F0.2584524
sg15
I8
sg16
(lp1699
g18
asg19
(dp1700
g21
(F0.3635
F0.0261
tp1701
sg23
(F-73.3755
F1.4483
tp1702
sg25
(F11.443
Finf
tp1703
sg27
(F0.3082
Finf
tp1704
sg29
(F170.3399
F0.0251
tp1705
sg31
(F123.4738
F0.0338
tp1706
sg33
(F-0.4588
F0.0367
tp1707
sssS'2MASXJ18570768-7828212'
p1708
(dp1709
g3
I2
sg4
F1352.30345712459
sg5
(dp1710
g7
(F0.0
F0.0
tp1711
sg9
(F0.0
F0.0
tp1712
sg11
(F-3.587e-05
F2.806e-06
tp1713
ssg13
I5768
sg14
F0.2344493
sg15
I8
sg16
(lp1714
g18
asg19
(dp1715
g21
(F0.622
F344.246
tp1716
sg23
(F-0.432
F5673.5645
tp1717
sg25
(F0.8717
F1669.5925
tp1718
sg27
(F0.1931
Finf
tp1719
sg29
(F170.4041
F1.36
tp1720
sg31
(F123.5298
F0.1123
tp1721
sg33
(F1.2443
F0.2074
tp1722
sssS'CGCG300-062'
p1723
(dp1724
g3
I2
sg4
F1328.09495024151
sg5
(dp1725
g7
(F0.0
F0.0
tp1726
sg9
(F0.0
F0.0
tp1727
sg11
(F1.049e-05
F2.766e-06
tp1728
ssg13
I5768
sg14
F0.2302523
sg15
I8
sg16
(lp1729
sg19
(dp1730
g21
(F0.5148
F0.0633
tp1731
sg23
(F-67.2922
F5.7491
tp1732
sg25
(F6.1102
F2.7818
tp1733
sg27
(F3.2061
F1.038
tp1734
sg29
(F171.5362
F0.0684
tp1735
sg31
(F121.8264
F0.0632
tp1736
sg33
(F1.9844
F0.1652
tp1737
sssS'Mrk477'
p1738
(dp1739
g3
I2
sg4
F3380.64012499203
sg5
(dp1740
g7
(F0.0
F0.0
tp1741
sg9
(F0.0
F0.0
tp1742
sg11
(F-1.12e-05
F4.635e-06
tp1743
ssg13
I5768
sg14
F0.5861027
sg15
I8
sg16
(lp1744
g18
asg19
(dp1745
g21
(F0.8149
F0.212
tp1746
sg23
(F43.5743
F25.0152
tp1747
sg25
(F1.7363
F2.0504
tp1748
sg27
(F0.3524
Finf
tp1749
sg29
(F172.1705
F0.0224
tp1750
sg31
(F124.1066
F0.0244
tp1751
sg33
(F-0.1822
F0.0076
tp1752
sssS'NGC5899'
p1753
(dp1754
g3
I2
sg4
F17496.5476184627
sg5
(dp1755
g7
(F0.0
F0.0
tp1756
sg9
(F0.0
F0.0
tp1757
sg11
(F0.0001014
F1.03e-05
tp1758
ssg13
I5768
sg14
F3.033382
sg15
I8
sg16
(lp1759
g57
asg19
(dp1760
g21
(F0.3724
F0.003
tp1761
sg23
(F87.8964
F0.328
tp1762
sg25
(F0.152
F0.0091
tp1763
sg27
(F19.5636
F0.1164
tp1764
sg29
(F159.5758
F0.1444
tp1765
sg31
(F125.1632
F0.0658
tp1766
sg33
(F-1.5916
F0.0096
tp1767
sssS'NGC3718'
p1768
(dp1769
g3
I2
sg4
F1431.50191244392
sg5
(dp1770
g7
(F0.0
F0.0
tp1771
sg9
(F0.0
F0.0
tp1772
sg11
(F-1.191e-05
F2.961e-06
tp1773
ssg13
I5768
sg14
F0.2481799
sg15
I8
sg16
(lp1774
g18
asg19
(dp1775
g21
(F0.0809
Finf
tp1776
sg23
(F-10.3112
F0.4514
tp1777
sg25
(F13.9089
Finf
tp1778
sg27
(F4.1218
F0.9125
tp1779
sg29
(F171.5111
F0.0338
tp1780
sg31
(F123.2729
F0.0315
tp1781
sg33
(F0.2089
F0.126
tp1782
sssS'ARP151'
p1783
(dp1784
g3
I2
sg4
F1605.44692289932
sg5
(dp1785
g7
(F0.0
F0.0
tp1786
sg9
(F0.0
F0.0
tp1787
sg11
(F2.262e-05
F2.964e-06
tp1788
ssg13
I5768
sg14
F0.2783369
sg15
I8
sg16
(lp1789
g57
ag18
asg19
(dp1790
g21
(F0.4311
F6.5077
tp1791
sg23
(F-76.4913
F442.7046
tp1792
sg25
(F19.9989
Finf
tp1793
sg27
(F0.007507
Finf
tp1794
sg29
(F168.4725
F2.4344
tp1795
sg31
(F123.1412
F4.1563
tp1796
sg33
(F4.1602
F68.0051
tp1797
sssS'Mrk704'
p1798
(dp1799
g3
I2
sg4
F1329.77781835036
sg5
(dp1800
g7
(F0.0
F0.0
tp1801
sg9
(F0.0
F0.0
tp1802
sg11
(F-3.789e-05
F2.796e-06
tp1803
ssg13
I5768
sg14
F0.230544
sg15
I8
sg16
(lp1804
g18
asg19
(dp1805
g21
(F0.3757
F0.1228
tp1806
sg23
(F-67.8134
F6.3859
tp1807
sg25
(F6.7754
F3.6951
tp1808
sg27
(F0.2688
Finf
tp1809
sg29
(F170.0347
F0.0507
tp1810
sg31
(F124.3356
F0.0725
tp1811
sg33
(F1.2065
F0.0604
tp1812
sssS'MCG-06-30-015'
p1813
(dp1814
g3
I2
sg4
F1382.11915321969
sg5
(dp1815
g7
(F0.0
F0.0
tp1816
sg9
(F0.0
F0.0
tp1817
sg11
(F-5.103e-05
F2.853e-06
tp1818
ssg13
I5768
sg14
F0.2396184
sg15
I8
sg16
(lp1819
g18
asg19
(dp1820
g21
(F0.3882
F0.0536
tp1821
sg23
(F24.2585
F2.6948
tp1822
sg25
(F10.2104
Finf
tp1823
sg27
(F0.1443
Finf
tp1824
sg29
(F170.4592
F0.0442
tp1825
sg31
(F124.2085
F0.0327
tp1826
sg33
(F-0.222
F0.0563
tp1827
sssS'IISZ010'
p1828
(dp1829
g3
I2
sg4
F1381.00728136654
sg5
(dp1830
g7
(F0.0
F0.0
tp1831
sg9
(F0.0
F0.0
tp1832
sg11
(F1.471e-05
F1.013e-06
tp1833
ssg13
I5768
sg14
F0.2394257
sg15
I8
sg16
(lp1834
sg19
(dp1835
g21
(F0.7923
F0.0089
tp1836
sg23
(F-16.0424
F2.242
tp1837
sg25
(F0.8441
F0.0183
tp1838
sg27
(F3.4938
F0.0616
tp1839
sg29
(F207.0363
F0.0227
tp1840
sg31
(F148.49
F0.0273
tp1841
sg33
(F2.7407
F0.0137
tp1842
sssS'LEDA138501'
p1843
(dp1844
g3
I2
sg4
F1484.16132657979
sg5
(dp1845
g7
(F0.0
F0.0
tp1846
sg9
(F0.0
F0.0
tp1847
sg11
(F-2.2e-05
F3.077e-06
tp1848
ssg13
I5768
sg14
F0.2573095
sg15
I8
sg16
(lp1849
g57
ag18
asg19
(dp1850
g21
(F0.05
Finf
tp1851
sg23
(F-86.8041
F0.0
tp1852
sg25
(F3.6325
F0.0
tp1853
sg27
(F0.001035
Finf
tp1854
sg29
(F150.8967
F0.0
tp1855
sg31
(F130.4922
F0.0
tp1856
sg33
(F4.614
F0.0
tp1857
sssS'ESO426-G002'
p1858
(dp1859
g3
I2
sg4
F1377.3958636592
sg5
(dp1860
g7
(F0.0
F0.0
tp1861
sg9
(F0.0
F0.0
tp1862
sg11
(F1.429e-05
F2.87e-06
tp1863
ssg13
I5768
sg14
F0.2387996
sg15
I8
sg16
(lp1864
g18
asg19
(dp1865
g21
(F0.2325
F0.0609
tp1866
sg23
(F29.4391
F3.3714
tp1867
sg25
(F19.9061
Finf
tp1868
sg27
(F0.7451
F0.238
tp1869
sg29
(F171.4926
F0.0802
tp1870
sg31
(F122.9277
F0.0624
tp1871
sg33
(F1.42
F0.2387
tp1872
sssS'LCRSB232242.2-384320'
p1873
(dp1874
g3
I2
sg4
F1462.13302242099
sg5
(dp1875
g7
(F0.0
F0.0
tp1876
sg9
(F0.0
F0.0
tp1877
sg11
(F3.366e-05
F2.882e-06
tp1878
ssg13
I5768
sg14
F0.2534905
sg15
I8
sg16
(lp1879
sg19
(dp1880
g21
(F0.9622
F0.0186
tp1881
sg23
(F7.5891
F17.6109
tp1882
sg25
(F0.7434
F0.0675
tp1883
sg27
(F1.9079
F0.028
tp1884
sg29
(F168.7055
F0.0171
tp1885
sg31
(F122.1807
F0.0174
tp1886
sg33
(F0.5052
F0.0048
tp1887
sssS'Mrk417'
p1888
(dp1889
g16
(lp1890
g324
assS'ESO565-G019'
p1891
(dp1892
g3
I2
sg4
F11175.557223098
sg5
(dp1893
g7
(F0.0
F0.0
tp1894
sg9
(F0.0
F0.0
tp1895
sg11
(F2.626e-05
F8.387e-06
tp1896
ssg13
I5768
sg14
F1.93751
sg15
I8
sg16
(lp1897
sg19
(dp1898
g21
(F0.4915
F0.0139
tp1899
sg23
(F75.8636
F1.1118
tp1900
sg25
(F0.6711
F0.065
tp1901
sg27
(F2.4008
F0.0355
tp1902
sg29
(F171.4437
F0.0235
tp1903
sg31
(F116.3425
F0.0195
tp1904
sg33
(F-1.1263
F0.007
tp1905
sssS'2MASXJ06561197-4919499'
p1906
(dp1907
g3
I2
sg4
F1332.78797495967
sg5
(dp1908
g7
(F0.0
F0.0
tp1909
sg9
(F0.0
F0.0
tp1910
sg11
(F-3.136e-05
F2.721e-06
tp1911
ssg13
I5768
sg14
F0.2310659
sg15
I8
sg16
(lp1912
g18
asg19
(dp1913
g21
(F0.0795
Finf
tp1914
sg23
(F-34.6691
F207.4956
tp1915
sg25
(F0.0416
Finf
tp1916
sg27
(F1.1054
F24.8973
tp1917
sg29
(F169.697
F0.0005
tp1918
sg31
(F124.7162
F0.0007
tp1919
sg33
(F1.3596
F5.0619
tp1920
sssS'NGC5728'
p1921
(dp1922
g3
I2
sg4
F53735.008488314
sg5
(dp1923
g7
(F0.0
F0.0
tp1924
sg9
(F0.0
F0.0
tp1925
sg11
(F0.000353
F6.721e-06
tp1926
ssg13
I5768
sg14
F9.316055
sg15
I8
sg16
(lp1927
sg19
(dp1928
g21
(F0.9726
F0.0041
tp1929
sg23
(F38.8871
F5.6031
tp1930
sg25
(F0.9918
F0.0109
tp1931
sg27
(F3.4428
F0.0166
tp1932
sg29
(F209.0416
F0.0155
tp1933
sg31
(F156.3152
F0.0158
tp1934
sg33
(F-2.1892
F0.0059
tp1935
sssS'NGC3431'
p1936
(dp1937
g3
I2
sg4
F1568.05846986635
sg5
(dp1938
g7
(F0.0
F0.0
tp1939
sg9
(F0.0
F0.0
tp1940
sg11
(F-6.089e-05
F3.217e-06
tp1941
ssg13
I5768
sg14
F0.2718548
sg15
I8
sg16
(lp1942
g18
asg19
(dp1943
g21
(F0.1777
F0.0066
tp1944
sg23
(F36.1456
F0.417
tp1945
sg25
(F15.0137
Finf
tp1946
sg27
(F63.4563
F32.4802
tp1947
sg29
(F170.5976
F0.0236
tp1948
sg31
(F124.8355
F0.0282
tp1949
sg33
(F-0.7193
F0.1773
tp1950
sssS'2MFGC02280'
p1951
(dp1952
g3
I2
sg4
F1381.30355492857
sg5
(dp1953
g7
(F0.0
F0.0
tp1954
sg9
(F0.0
F0.0
tp1955
sg11
(F-2.406e-05
F2.857e-06
tp1956
ssg13
I5768
sg14
F0.239477
sg15
I8
sg16
(lp1957
g18
asg19
(dp1958
g21
(F0.0818
Finf
tp1959
sg23
(F-72.0279
F0.6226
tp1960
sg25
(F2.0915
F0.1248
tp1961
sg27
(F1.2511
F0.026
tp1962
sg29
(F171.4004
F0.012
tp1963
sg31
(F123.8766
F0.0164
tp1964
sg33
(F-0.4283
F0.0038
tp1965
sssS'Mrk841'
p1966
(dp1967
g3
I2
sg4
F2045.00754588811
sg5
(dp1968
g7
(F0.0
F0.0
tp1969
sg9
(F0.0
F0.0
tp1970
sg11
(F-8.228e-06
F1.246e-06
tp1971
ssg13
I5768
sg14
F0.3545436
sg15
I8
sg16
(lp1972
sg19
(dp1973
g21
(F0.9733
F0.0038
tp1974
sg23
(F-41.2548
F6.4697
tp1975
sg25
(F0.74
F0.0064
tp1976
sg27
(F2.3507
F0.0113
tp1977
sg29
(F210.3603
F0.0076
tp1978
sg31
(F154.4946
F0.0071
tp1979
sg33
(F1.1989
F0.0035
tp1980
sssS'2MASXJ21090996-0940147'
p1981
(dp1982
g3
I2
sg4
F1404.27267640598
sg5
(dp1983
g7
(F0.0
F0.0
tp1984
sg9
(F0.0
F0.0
tp1985
sg11
(F-3.641e-05
F2.868e-06
tp1986
ssg13
I5768
sg14
F0.2434592
sg15
I8
sg16
(lp1987
g18
asg19
(dp1988
g21
(F0.059
Finf
tp1989
sg23
(F34.8542
F12.279
tp1990
sg25
(F3.0387
F6.7869
tp1991
sg27
(F0.343
Finf
tp1992
sg29
(F166.735
F0.1073
tp1993
sg31
(F123.4985
F0.3546
tp1994
sg33
(F1.1327
F0.6203
tp1995
sssS'3C120'
p1996
(dp1997
g3
I2
sg4
F1348.66620030964
sg5
(dp1998
g7
(F0.0
F0.0
tp1999
sg9
(F0.0
F0.0
tp2000
sg11
(F-5.098e-05
F2.835e-06
tp2001
ssg13
I5768
sg14
F0.2338187
sg15
I8
sg16
(lp2002
sg19
(dp2003
g21
(F0.7087
F0.0141
tp2004
sg23
(F-85.5386
F1.9711
tp2005
sg25
(F1.6468
F0.1108
tp2006
sg27
(F1.2593
F0.0201
tp2007
sg29
(F170.8971
F0.0102
tp2008
sg31
(F121.2654
F0.0092
tp2009
sg33
(F-0.2663
F0.0038
tp2010
sssS'NGC6552'
p2011
(dp2012
g3
I2
sg4
F2462.19658321716
sg5
(dp2013
g7
(F0.0
F0.0
tp2014
sg9
(F0.0
F0.0
tp2015
sg11
(F-1.674e-05
F3.876e-06
tp2016
ssg13
I5768
sg14
F0.4268718
sg15
I8
sg16
(lp2017
g18
asg19
(dp2018
g21
(F0.9495
F0.0
tp2019
sg23
(F-64.0052
F0.0
tp2020
sg25
(F3.321
F0.0
tp2021
sg27
(F0.0105
Finf
tp2022
sg29
(F170.2523
F0.0
tp2023
sg31
(F122.8277
F0.0
tp2024
sg33
(F-0.9926
F0.0
tp2025
sssS'CGCG319-007'
p2026
(dp2027
g3
I2
sg4
F1352.07772514707
sg5
(dp2028
g7
(F0.0
F0.0
tp2029
sg9
(F0.0
F0.0
tp2030
sg11
(F-9.779e-06
F2.715e-06
tp2031
ssg13
I5768
sg14
F0.2344102
sg15
I8
sg16
(lp2032
g18
asg19
(dp2033
g21
(F0.0173
Finf
tp2034
sg23
(F-44.0858
F24.4535
tp2035
sg25
(F0.6786
F4.7619
tp2036
sg27
(F1.8933
F2.5867
tp2037
sg29
(F170.1653
F0.0361
tp2038
sg31
(F124.5633
F0.0546
tp2039
sg33
(F1.1814
F2.0612
tp2040
sssS'MCG+04-48-002'
p2041
(dp2042
g3
I2
sg4
F1949.40369279178
sg5
(dp2043
g7
(F0.0
F0.0
tp2044
sg9
(F0.0
F0.0
tp2045
sg11
(F-1.491e-05
F3.526e-06
tp2046
ssg13
I5768
sg14
F0.3379687
sg15
I8
sg16
(lp2047
sg19
(dp2048
g21
(F0.2879
F0.0033
tp2049
sg23
(F27.798
F0.1362
tp2050
sg25
(F0.6156
F0.0093
tp2051
sg27
(F3.3691
F0.013
tp2052
sg29
(F170.4751
F0.0037
tp2053
sg31
(F126.9893
F0.0067
tp2054
sg33
(F-2.5634
F0.0021
tp2055
sssS'ESO553-G043'
p2056
(dp2057
g3
I2
sg4
F1441.8808858849
sg5
(dp2058
g7
(F0.0
F0.0
tp2059
sg9
(F0.0
F0.0
tp2060
sg11
(F-1.634e-05
F3.007e-06
tp2061
ssg13
I5768
sg14
F0.2499793
sg15
I8
sg16
(lp2062
g18
asg19
(dp2063
g21
(F0.1675
F0.0691
tp2064
sg23
(F-2.7156
F4.3412
tp2065
sg25
(F15.7753
Finf
tp2066
sg27
(F1.7103
F1.6766
tp2067
sg29
(F170.6507
F0.1798
tp2068
sg31
(F121.0048
F0.1283
tp2069
sg33
(F2.0545
F0.2825
tp2070
sssS'NGC6221'
p2071
(dp2072
g3
I2
sg4
F295189.504168757
sg5
(dp2073
g7
(F0.0
F0.0
tp2074
sg9
(F0.0
F0.0
tp2075
sg11
(F0.00182
F4.866e-05
tp2076
ssg13
I5768
sg14
F51.1771
sg15
I8
sg16
(lp2077
g57
asg19
(dp2078
g21
(F0.5197
F0.007
tp2079
sg23
(F17.8312
F0.7714
tp2080
sg25
(F0.6164
F0.0262
tp2081
sg27
(F14.9733
F0.2382
tp2082
sg29
(F168.1435
F0.0845
tp2083
sg31
(F115.6066
F0.1553
tp2084
sg33
(F-3.3003
F0.0117
tp2085
sssS'CGCG102-048'
p2086
(dp2087
g16
(lp2088
g324
assS'ESO506-G027'
p2089
(dp2090
g3
I2
sg4
F1645.36750903808
sg5
(dp2091
g7
(F0.0
F0.0
tp2092
sg9
(F0.0
F0.0
tp2093
sg11
(F3.528e-05
F3.084e-06
tp2094
ssg13
I5768
sg14
F0.2852579
sg15
I8
sg16
(lp2095
g18
asg19
(dp2096
g21
(F0.2456
F0.0857
tp2097
sg23
(F-74.2891
F4.001
tp2098
sg25
(F20.0
Finf
tp2099
sg27
(F0.063
Finf
tp2100
sg29
(F171.0242
F0.061
tp2101
sg31
(F124.0101
F0.0988
tp2102
sg33
(F0.5315
F0.4283
tp2103
sssS'IRAS05589+2828'
p2104
(dp2105
g3
I2
sg4
F1625.78681931515
sg5
(dp2106
g7
(F0.0
F0.0
tp2107
sg9
(F0.0
F0.0
tp2108
sg11
(F-1.088e-05
F3.201e-06
tp2109
ssg13
I5768
sg14
F0.2818632
sg15
I8
sg16
(lp2110
g18
asg19
(dp2111
g21
(F0.4409
F9.6497
tp2112
sg23
(F-50.9306
F375.9648
tp2113
sg25
(F0.8095
F79.9077
tp2114
sg27
(F0.3537
Finf
tp2115
sg29
(F168.9746
F0.0279
tp2116
sg31
(F121.6243
F0.0331
tp2117
sg33
(F0.1485
F0.0371
tp2118
sssS'M106'
p2119
(dp2120
g3
I2
sg4
F57131.7408489003
sg5
(dp2121
g7
(F0.0
F0.0
tp2122
sg9
(F0.0
F0.0
tp2123
sg11
(F-0.0005055
F0.0001642
tp2124
ssg13
I5768
sg14
F9.904948
sg15
I8
sg16
(lp2125
g57
asg19
(dp2126
g21
(F0.563
F0.013
tp2127
sg23
(F-89.3311
F1.0843
tp2128
sg25
(F4.9886
F0.9962
tp2129
sg27
(F248.043
F206.4538
tp2130
sg29
(F166.6285
F0.0968
tp2131
sg31
(F124.9117
F0.0685
tp2132
sg33
(F-4.6686
F0.6877
tp2133
sssS'ESO549-G049'
p2134
(dp2135
g3
I2
sg4
F2159.9015511122
sg5
(dp2136
g7
(F0.0
F0.0
tp2137
sg9
(F0.0
F0.0
tp2138
sg11
(F-2.264e-05
F3.44e-06
tp2139
ssg13
I5768
sg14
F0.3744628
sg15
I8
sg16
(lp2140
sg19
(dp2141
g21
(F0.7171
F0.0062
tp2142
sg23
(F-1.4526
F0.8012
tp2143
sg25
(F2.2989
F0.0585
tp2144
sg27
(F2.1987
F0.019
tp2145
sg29
(F171.0728
F0.0093
tp2146
sg31
(F125.3764
F0.0103
tp2147
sg33
(F-1.3441
F0.0032
tp2148
sssS'ESO005-G004'
p2149
(dp2150
g3
I2
sg4
F20591.4950896573
sg5
(dp2151
g7
(F0.0
F0.0
tp2152
sg9
(F0.0
F0.0
tp2153
sg11
(F2.328e-05
F3.604e-06
tp2154
ssg13
I16717
sg14
F1.23177
sg15
I8
sg16
(lp2155
g18
asg19
(dp2156
g21
(F0.0954
Finf
tp2157
sg23
(F-30.5319
F0.0366
tp2158
sg25
(F0.481
F0.0069
tp2159
sg27
(F19.8903
F0.0494
tp2160
sg29
(F169.9875
F0.02
tp2161
sg31
(F116.4052
F0.0342
tp2162
sg33
(F-2.4173
F0.0027
tp2163
sssS'NGC5231'
p2164
(dp2165
g3
I2
sg4
F1385.93447075657
sg5
(dp2166
g7
(F0.0
F0.0
tp2167
sg9
(F0.0
F0.0
tp2168
sg11
(F2.184e-05
F2.837e-06
tp2169
ssg13
I5768
sg14
F0.2402799
sg15
I8
sg16
(lp2170
sg19
(dp2171
g21
(F0.5978
F0.0109
tp2172
sg23
(F21.1667
F1.1184
tp2173
sg25
(F1.0973
F0.0615
tp2174
sg27
(F2.7422
F0.0353
tp2175
sg29
(F166.1422
F0.0155
tp2176
sg31
(F124.6396
F0.0185
tp2177
sg33
(F0.3947
F0.0051
tp2178
sssS'UGC12237'
p2179
(dp2180
g3
I2
sg4
F1561.98184877372
sg5
(dp2181
g7
(F0.0
F0.0
tp2182
sg9
(F0.0
F0.0
tp2183
sg11
(F1.805e-05
F3.004e-06
tp2184
ssg13
I5768
sg14
F0.2708013
sg15
I8
sg16
(lp2185
g18
asg19
(dp2186
g21
(F0.1212
F0.0318
tp2187
sg23
(F47.0275
F1.6096
tp2188
sg25
(F19.9996
Finf
tp2189
sg27
(F0.3258
Finf
tp2190
sg29
(F170.34
F0.0406
tp2191
sg31
(F124.0104
F0.0532
tp2192
sg33
(F0.5325
F0.1324
tp2193
sssS'2MASXJ12335145-2103448'
p2194
(dp2195
g3
I2
sg4
F1239.87352227786
sg5
(dp2196
g7
(F0.0
F0.0
tp2197
sg9
(F0.0
F0.0
tp2198
sg11
(F-1.553e-06
F2.63e-06
tp2199
ssg13
I5768
sg14
F0.2149573
sg15
I8
sg16
(lp2200
g18
asg19
(dp2201
g21
(F0.1333
F9.3229
tp2202
sg23
(F35.6716
F59.6942
tp2203
sg25
(F2.2748
F30.0789
tp2204
sg27
(F0.1697
Finf
tp2205
sg29
(F167.3534
F0.1868
tp2206
sg31
(F124.3282
F0.1206
tp2207
sg33
(F1.2283
F0.2603
tp2208
sssS'Mrk885'
p2209
(dp2210
g3
I2
sg4
F1456.44903159071
sg5
(dp2211
g7
(F0.0
F0.0
tp2212
sg9
(F0.0
F0.0
tp2213
sg11
(F-1.29e-05
F2.923e-06
tp2214
ssg13
I5768
sg14
F0.252505
sg15
I8
sg16
(lp2215
sg19
(dp2216
g21
(F0.7171
F0.0287
tp2217
sg23
(F52.8431
F3.8696
tp2218
sg25
(F2.4535
F0.2796
tp2219
sg27
(F2.227
F0.0777
tp2220
sg29
(F169.3742
F0.0269
tp2221
sg31
(F122.4491
F0.0247
tp2222
sg33
(F1.0156
F0.0188
tp2223
sssS'2MASXJ03342453-1513402'
p2224
(dp2225
g3
I2
sg4
F4125.91924844041
sg5
(dp2226
g7
(F0.0
F0.0
tp2227
sg9
(F0.0
F0.0
tp2228
sg11
(F1.246e-05
F4.685e-06
tp2229
ssg13
I5768
sg14
F0.7153119
sg15
I8
sg16
(lp2230
sg19
(dp2231
g21
(F0.5196
F0.0308
tp2232
sg23
(F74.536
F2.8668
tp2233
sg25
(F1.2154
F0.2409
tp2234
sg27
(F1.6291
F0.0522
tp2235
sg29
(F171.5265
F0.0288
tp2236
sg31
(F124.5201
F0.0259
tp2237
sg33
(F0.6194
F0.0092
tp2238
sssS'ESO548-G081'
p2239
(dp2240
g3
I2
sg4
F1555.50285177763
sg5
(dp2241
g7
(F0.0
F0.0
tp2242
sg9
(F0.0
F0.0
tp2243
sg11
(F-5.514e-05
F3.494e-06
tp2244
ssg13
I5768
sg14
F0.269678
sg15
I8
sg16
(lp2245
sg19
(dp2246
g21
(F0.8238
F0.014
tp2247
sg23
(F75.0351
F2.7396
tp2248
sg25
(F3.0551
F0.1519
tp2249
sg27
(F5.1713
F0.2096
tp2250
sg29
(F171.7826
F0.0225
tp2251
sg31
(F123.809
F0.0208
tp2252
sg33
(F-0.1395
F0.0248
tp2253
sssS'KUG1141+371'
p2254
(dp2255
g3
I2
sg4
F1318.40763949998
sg5
(dp2256
g7
(F0.0
F0.0
tp2257
sg9
(F0.0
F0.0
tp2258
sg11
(F-1.986e-06
F2.734e-06
tp2259
ssg13
I5768
sg14
F0.2285728
sg15
I8
sg16
(lp2260
g18
asg19
(dp2261
g21
(F0.047
Finf
tp2262
sg23
(F67.5021
F3.2417
tp2263
sg25
(F18.7036
Finf
tp2264
sg27
(F3.1293
F4.6939
tp2265
sg29
(F170.268
F0.7578
tp2266
sg31
(F126.2272
F0.3666
tp2267
sg33
(F2.6319
F0.5741
tp2268
sssS'MCG-01-13-025'
p2269
(dp2270
g3
I2
sg4
F1522.65029790626
sg5
(dp2271
g7
(F0.0
F0.0
tp2272
sg9
(F0.0
F0.0
tp2273
sg11
(F3.45e-07
F3.006e-06
tp2274
ssg13
I5768
sg14
F0.2639824
sg15
I8
sg16
(lp2275
sg19
(dp2276
g21
(F0.3473
F0.1023
tp2277
sg23
(F0.6978
F7.1859
tp2278
sg25
(F0.0829
F0.9883
tp2279
sg27
(F1.7964
F0.506
tp2280
sg29
(F169.5946
F0.0597
tp2281
sg31
(F127.4762
F0.0868
tp2282
sg33
(F2.6752
F0.0267
tp2283
sssS'LEDA214543'
p2284
(dp2285
g3
I2
sg4
F1199.76889543357
sg5
(dp2286
g7
(F0.0
F0.0
tp2287
sg9
(F0.0
F0.0
tp2288
sg11
(F7.796e-06
F2.66e-06
tp2289
ssg13
I5768
sg14
F0.2080043
sg15
I8
sg16
(lp2290
g18
asg19
(dp2291
g21
(F0.1957
F0.0782
tp2292
sg23
(F85.0535
F5.0958
tp2293
sg25
(F16.5652
Finf
tp2294
sg27
(F1.1163
F1.024
tp2295
sg29
(F171.1727
F0.1214
tp2296
sg31
(F124.3499
F0.1773
tp2297
sg33
(F2.1208
F0.2342
tp2298
sssS'2MASXJ11454045-1827149'
p2299
(dp2300
g3
I2
sg4
F1261.73005667631
sg5
(dp2301
g7
(F0.0
F0.0
tp2302
sg9
(F0.0
F0.0
tp2303
sg11
(F-3.044e-07
F2.604e-06
tp2304
ssg13
I5768
sg14
F0.2187465
sg15
I8
sg16
(lp2305
sg19
(dp2306
g21
(F0.4514
F0.0187
tp2307
sg23
(F-76.1189
F1.4353
tp2308
sg25
(F1.8253
F0.1578
tp2309
sg27
(F4.2821
F0.1466
tp2310
sg29
(F171.5033
F0.0476
tp2311
sg31
(F123.9297
F0.0347
tp2312
sg33
(F1.1978
F0.0233
tp2313
sssS'2MASXJ21355399+4728217'
p2314
(dp2315
g3
I2
sg4
F1599.93459260371
sg5
(dp2316
g7
(F0.0
F0.0
tp2317
sg9
(F0.0
F0.0
tp2318
sg11
(F-1.118e-05
F3.099e-06
tp2319
ssg13
I5768
sg14
F0.2773812
sg15
I8
sg16
(lp2320
sg19
(dp2321
g21
(F0.1054
F0.1227
tp2322
sg23
(F61.6894
F2.3577
tp2323
sg25
(F3.9214
F0.7868
tp2324
sg27
(F0.7366
F0.0683
tp2325
sg29
(F169.9778
F0.0793
tp2326
sg31
(F125.2133
F0.0216
tp2327
sg33
(F0.8265
F0.0269
tp2328
sssS'2MASXJ12313717-4758019'
p2329
(dp2330
g3
I2
sg4
F1592.02093497724
sg5
(dp2331
g7
(F0.0
F0.0
tp2332
sg9
(F0.0
F0.0
tp2333
sg11
(F-5.496e-05
F3.054e-06
tp2334
ssg13
I5768
sg14
F0.2760092
sg15
I8
sg16
(lp2335
sg19
(dp2336
g21
(F0.3956
F0.008
tp2337
sg23
(F51.0251
F0.4614
tp2338
sg25
(F0.9418
F0.0388
tp2339
sg27
(F2.6277
F0.0186
tp2340
sg29
(F171.9145
F0.0116
tp2341
sg31
(F125.1191
F0.0091
tp2342
sg33
(F-0.3632
F0.0036
tp2343
sssS'NGC6300'
p2344
(dp2345
g3
I2
sg4
F87147.320438606
sg5
(dp2346
g7
(F0.0
F0.0
tp2347
sg9
(F0.0
F0.0
tp2348
sg11
(F0.0002283
F1.347e-05
tp2349
ssg13
I22039
sg14
F3.954232
sg15
I8
sg16
(lp2350
g18
asg19
(dp2351
g21
(F0.9315
F0.0182
tp2352
sg23
(F-15.6614
F8.0936
tp2353
sg25
(F19.9964
Finf
tp2354
sg27
(F80.2269
F72.6985
tp2355
sg29
(F170.2422
F0.0408
tp2356
sg31
(F122.6898
F0.0392
tp2357
sg33
(F-3.3039
F0.2817
tp2358
sssS'NGC3786'
p2359
(dp2360
g3
I2
sg4
F4476.27944238061
sg5
(dp2361
g7
(F0.0
F0.0
tp2362
sg9
(F0.0
F0.0
tp2363
sg11
(F-8.74e-05
F8.431e-06
tp2364
ssg13
I5768
sg14
F0.776054
sg15
I8
sg16
(lp2365
g18
asg19
(dp2366
g21
(F0.4711
F0.0135
tp2367
sg23
(F-25.7806
F0.9537
tp2368
sg25
(F19.9931
Finf
tp2369
sg27
(F8.9704
F3.8716
tp2370
sg29
(F167.6521
F0.024
tp2371
sg31
(F123.4626
F0.0222
tp2372
sg33
(F-1.4573
F0.1367
tp2373
sssS'Fairall51'
p2374
(dp2375
g3
I2
sg4
F2337.67563963993
sg5
(dp2376
g7
(F0.0
F0.0
tp2377
sg9
(F0.0
F0.0
tp2378
sg11
(F-2.073e-05
F3.724e-06
tp2379
ssg13
I5768
sg14
F0.4052836
sg15
I8
sg16
(lp2380
g18
asg19
(dp2381
g21
(F0.749
F356.7896
tp2382
sg23
(F14.6566
F90919.1719
tp2383
sg25
(F3.8059
F194.0656
tp2384
sg27
(F0.01
Finf
tp2385
sg29
(F170.4722
F27.2148
tp2386
sg31
(F123.5228
F10.6475
tp2387
sg33
(F-0.6936
F41.2203
tp2388
sssS'Mrk817'
p2389
(dp2390
g3
I2
sg4
F1410.64021675867
sg5
(dp2391
g7
(F0.0
F0.0
tp2392
sg9
(F0.0
F0.0
tp2393
sg11
(F-2.143e-05
F2.93e-06
tp2394
ssg13
I5768
sg14
F0.2445631
sg15
I8
sg16
(lp2395
g18
asg19
(dp2396
g21
(F0.6981
F0.0312
tp2397
sg23
(F-21.134
F3.357
tp2398
sg25
(F6.9338
F0.8436
tp2399
sg27
(F0.2858
Finf
tp2400
sg29
(F171.1017
F0.022
tp2401
sg31
(F125.6369
F0.0191
tp2402
sg33
(F-0.7949
F0.0113
tp2403
sssS'NGC2885'
p2404
(dp2405
g3
I2
sg4
F1309.35017453112
sg5
(dp2406
g7
(F0.0
F0.0
tp2407
sg9
(F0.0
F0.0
tp2408
sg11
(F-6.404e-06
F2.919e-06
tp2409
ssg13
I5768
sg14
F0.2270025
sg15
I8
sg16
(lp2410
sg19
(dp2411
g21
(F0.4642
F0.0525
tp2412
sg23
(F29.9034
F3.6722
tp2413
sg25
(F2.7208
F0.6659
tp2414
sg27
(F1.2491
F0.072
tp2415
sg29
(F168.3767
F0.0333
tp2416
sg31
(F124.1204
F0.0297
tp2417
sg33
(F1.5198
F0.018
tp2418
sssS'ARP102B'
p2419
(dp2420
g3
I2
sg4
F1556.04848946505
sg5
(dp2421
g7
(F0.0
F0.0
tp2422
sg9
(F0.0
F0.0
tp2423
sg11
(F4.836e-06
F3.118e-06
tp2424
ssg13
I5768
sg14
F0.2697726
sg15
I8
sg16
(lp2425
sg19
(dp2426
g21
(F0.2101
F9880.583
tp2427
sg23
(F-16.0852
F287736.3438
tp2428
sg25
(F0.1068
F1311.6576
tp2429
sg27
(F0.7974
F1100.7255
tp2430
sg29
(F167.2455
F167.2249
tp2431
sg31
(F123.8775
F0.0784
tp2432
sg33
(F2.597
F469.1513
tp2433
sssS'IC4518A'
p2434
(dp2435
g3
I2
sg4
F33129.2864048327
sg5
(dp2436
g7
(F0.0
F0.0
tp2437
sg9
(F0.0
F0.0
tp2438
sg11
(F0.0001532
F1.436e-05
tp2439
ssg13
I5768
sg14
F5.743635
sg15
I8
sg16
(lp2440
g57
asg19
(dp2441
g21
(F0.1036
F0.0
tp2442
sg23
(F-35.8811
F0.0
tp2443
sg25
(F0.0542
F0.0
tp2444
sg27
(F1.011
F0.0
tp2445
sg29
(F170.2934
F0.0
tp2446
sg31
(F126.0398
F0.0
tp2447
sg33
(F-1.6425
F0.0
tp2448
sssS'MCG-03-34-064'
p2449
(dp2450
g3
I2
sg4
F1608.66284177538
sg5
(dp2451
g7
(F0.0
F0.0
tp2452
sg9
(F0.0
F0.0
tp2453
sg11
(F-2.972e-05
F3.157e-06
tp2454
ssg13
I5768
sg14
F0.2788944
sg15
I8
sg16
(lp2455
g18
asg19
(dp2456
g21
(F0.6497
F0.0163
tp2457
sg23
(F-21.7425
F1.8879
tp2458
sg25
(F5.9272
F0.4379
tp2459
sg27
(F0.3471
Finf
tp2460
sg29
(F170.7253
F0.0137
tp2461
sg31
(F125.2439
F0.0149
tp2462
sg33
(F-1.7097
F0.0047
tp2463
sssS'NGC4180'
p2464
(dp2465
g3
I2
sg4
F5682.611148385
sg5
(dp2466
g7
(F0.0
F0.0
tp2467
sg9
(F0.0
F0.0
tp2468
sg11
(F-6.058e-05
F5.874e-06
tp2469
ssg13
I5768
sg14
F0.9851961
sg15
I8
sg16
(lp2470
sg19
(dp2471
g21
(F0.3072
F0.0018
tp2472
sg23
(F-59.4484
F0.1409
tp2473
sg25
(F0.7183
F0.0125
tp2474
sg27
(F6.713
F0.0275
tp2475
sg29
(F171.2103
F0.0155
tp2476
sg31
(F123.7629
F0.0095
tp2477
sg33
(F-1.8379
F0.0029
tp2478
sssS'NGC3227'
p2479
(dp2480
g3
I2
sg4
F27985.7663668423
sg5
(dp2481
g7
(F0.0
F0.0
tp2482
sg9
(F0.0
F0.0
tp2483
sg11
(F0.0002857
F1.291e-05
tp2484
ssg13
I5768
sg14
F4.851901
sg15
I8
sg16
(lp2485
g57
ag18
asg19
(dp2486
g21
(F0.517
F13929.8262
tp2487
sg23
(F33.2718
F140720.1875
tp2488
sg25
(F2.85
F2691.0522
tp2489
sg27
(F0.01
Finf
tp2490
sg29
(F337.9157
F1221.1899
tp2491
sg31
(F321.7264
F3351.3345
tp2492
sg33
(F-1.7138
F402.8107
tp2493
sssS'NGC7172'
p2494
(dp2495
g3
I2
sg4
F2507.27830763463
sg5
(dp2496
g7
(F0.0
F0.0
tp2497
sg9
(F0.0
F0.0
tp2498
sg11
(F-1.449e-05
F4.28e-06
tp2499
ssg13
I5768
sg14
F0.4346876
sg15
I8
sg16
(lp2500
sg19
(dp2501
g21
(F0.1721
F0.0077
tp2502
sg23
(F46.5334
F0.1994
tp2503
sg25
(F1.0353
F0.0217
tp2504
sg27
(F3.108
F0.0213
tp2505
sg29
(F240.3503
F0.0085
tp2506
sg31
(F207.077
F0.0078
tp2507
sg33
(F-2.1367
F0.0035
tp2508
sssS'ESO439-G009'
p2509
(dp2510
g3
I2
sg4
F2166.93999287585
sg5
(dp2511
g7
(F0.0
F0.0
tp2512
sg9
(F0.0
F0.0
tp2513
sg11
(F-1.812e-05
F3.605e-06
tp2514
ssg13
I5768
sg14
F0.3756831
sg15
I8
sg16
(lp2515
sg19
(dp2516
g21
(F0.1404
F0.0102
tp2517
sg23
(F-2.6062
F0.5555
tp2518
sg25
(F6.5025
F0.7156
tp2519
sg27
(F4.9722
F0.3402
tp2520
sg29
(F172.0947
F0.0411
tp2521
sg31
(F122.0494
F0.0347
tp2522
sg33
(F0.2342
F0.0376
tp2523
sssS'MCG-01-33-063'
p2524
(dp2525
g3
I2
sg4
F1449.37308672476
sg5
(dp2526
g7
(F0.0
F0.0
tp2527
sg9
(F0.0
F0.0
tp2528
sg11
(F1.68e-05
F2.957e-06
tp2529
ssg13
I5768
sg14
F0.2512783
sg15
I8
sg16
(lp2530
sg19
(dp2531
g21
(F0.1734
F0.0054
tp2532
sg23
(F77.1758
F0.3773
tp2533
sg25
(F0.6584
F0.043
tp2534
sg27
(F8.7109
F0.1457
tp2535
sg29
(F172.2877
F0.0944
tp2536
sg31
(F123.8768
F0.0307
tp2537
sg33
(F0.8443
F0.0112
tp2538
sssS'IC4709'
p2539
(dp2540
g3
I2
sg4
F2817.00668536399
sg5
(dp2541
g7
(F0.0
F0.0
tp2542
sg9
(F0.0
F0.0
tp2543
sg11
(F5.188e-05
F4.108e-06
tp2544
ssg13
I5768
sg14
F0.4883853
sg15
I8
sg16
(lp2545
g18
asg19
(dp2546
g21
(F0.0154
Finf
tp2547
sg23
(F-61.3998
F92.8151
tp2548
sg25
(F3.7863
F34.8733
tp2549
sg27
(F0.009401
Finf
tp2550
sg29
(F167.2371
F6.1481
tp2551
sg31
(F123.894
F18.5224
tp2552
sg33
(F-1.1093
F28.6714
tp2553
sssS'NGC7479'
p2554
(dp2555
g3
I2
sg4
F77402.6506971479
sg5
(dp2556
g7
(F0.0
F0.0
tp2557
sg9
(F0.0
F0.0
tp2558
sg11
(F-0.001124
F4.616e-05
tp2559
ssg13
I23700
sg14
F3.265935
sg15
I8
sg16
(lp2560
g18
asg19
(dp2561
g21
(F0.088
Finf
tp2562
sg23
(F-27.3917
F0.0773
tp2563
sg25
(F4.0652
F0.4593
tp2564
sg27
(F4265.5098
F2391.0625
tp2565
sg29
(F166.8316
F0.2102
tp2566
sg31
(F115.6109
F0.3952
tp2567
sg33
(F-7.3718
F0.5716
tp2568
sssS'NGC4235'
p2569
(dp2570
g3
I2
sg4
F1378.42953766364
sg5
(dp2571
g7
(F0.0
F0.0
tp2572
sg9
(F0.0
F0.0
tp2573
sg11
(F-2.968e-05
F2.768e-06
tp2574
ssg13
I5768
sg14
F0.2389788
sg15
I8
sg16
(lp2575
sg19
(dp2576
g21
(F0.2665
F0.0178
tp2577
sg23
(F-48.0462
F1.2493
tp2578
sg25
(F4.8845
F0.6492
tp2579
sg27
(F2.0567
F0.093
tp2580
sg29
(F166.5343
F0.0253
tp2581
sg31
(F122.3278
F0.0241
tp2582
sg33
(F0.8944
F0.022
tp2583
sssS'2MASXJ08032736+0841523'
p2584
(dp2585
g3
I2
sg4
F1270.75319031934
sg5
(dp2586
g7
(F0.0
F0.0
tp2587
sg9
(F0.0
F0.0
tp2588
sg11
(F-1.324e-05
F2.731e-06
tp2589
ssg13
I5768
sg14
F0.2203109
sg15
I8
sg16
(lp2590
g57
ag18
asg19
(dp2591
g21
(F0.9179
F0.7434
tp2592
sg23
(F-84.2226
F350.3895
tp2593
sg25
(F16.32
Finf
tp2594
sg27
(F0.4952
Finf
tp2595
sg29
(F169.7142
F0.4538
tp2596
sg31
(F123.5028
F0.4739
tp2597
sg33
(F3.4708
F1.8901
tp2598
sssS'ARK241'
p2599
(dp2600
g3
I2
sg4
F1377.78358424531
sg5
(dp2601
g7
(F0.0
F0.0
tp2602
sg9
(F0.0
F0.0
tp2603
sg11
(F-2.845e-05
F2.887e-06
tp2604
ssg13
I5768
sg14
F0.2388668
sg15
I8
sg16
(lp2605
g18
asg19
(dp2606
g21
(F0.1503
F4942.6411
tp2607
sg23
(F60.4404
F52605.8242
tp2608
sg25
(F0.0461
Finf
tp2609
sg27
(F0.9193
F2093.7759
tp2610
sg29
(F171.0523
F0.0206
tp2611
sg31
(F121.8871
F0.011
tp2612
sg33
(F2.8394
F19.8315
tp2613
sssS'ESO244-IG030'
p2614
(dp2615
g3
I2
sg4
F3914.35367988951
sg5
(dp2616
g7
(F0.0
F0.0
tp2617
sg9
(F0.0
F0.0
tp2618
sg11
(F-3.898e-05
F4.625e-06
tp2619
ssg13
I5768
sg14
F0.6786327
sg15
I8
sg16
(lp2620
sg19
(dp2621
g21
(F0.2543
F0.0067
tp2622
sg23
(F-23.8521
F0.396
tp2623
sg25
(F1.4811
F0.0515
tp2624
sg27
(F4.9974
F0.0577
tp2625
sg29
(F168.4745
F0.0167
tp2626
sg31
(F129.218
F0.0287
tp2627
sg33
(F-0.3527
F0.0073
tp2628
sssS'NGC5610'
p2629
(dp2630
g3
I2
sg4
F5378.21909796204
sg5
(dp2631
g7
(F0.0
F0.0
tp2632
sg9
(F0.0
F0.0
tp2633
sg11
(F-0.000127
F5.668e-06
tp2634
ssg13
I5768
sg14
F0.9324235
sg15
I8
sg16
(lp2635
g18
asg19
(dp2636
g21
(F0.152
F0.0039
tp2637
sg23
(F-16.4866
F0.2533
tp2638
sg25
(F19.9989
Finf
tp2639
sg27
(F1.4508
F0.0823
tp2640
sg29
(F170.1287
F0.0198
tp2641
sg31
(F125.3407
F0.0186
tp2642
sg33
(F-2.0749
F0.0329
tp2643
sssS'VIIZw073'
p2644
(dp2645
g3
I2
sg4
F1370.50352263479
sg5
(dp2646
g7
(F0.0
F0.0
tp2647
sg9
(F0.0
F0.0
tp2648
sg11
(F8.826e-06
F2.892e-06
tp2649
ssg13
I5768
sg14
F0.2376046
sg15
I8
sg16
(lp2650
sg19
(dp2651
g21
(F0.649
F0.0464
tp2652
sg23
(F-36.4681
F3.5766
tp2653
sg25
(F1.1867
F0.3678
tp2654
sg27
(F0.6453
F0.0689
tp2655
sg29
(F167.8716
F0.0095
tp2656
sg31
(F124.0535
F0.0091
tp2657
sg33
(F-0.704
F0.0041
tp2658
sssS'CGCG468-002NED01'
p2659
(dp2660
g3
I2
sg4
F30017.6565842296
sg5
(dp2661
g7
(F0.0
F0.0
tp2662
sg9
(F0.0
F0.0
tp2663
sg11
(F0.0001262
F1.404e-05
tp2664
ssg13
I5768
sg14
F5.204171
sg15
I8
sg16
(lp2665
g57
ag18
asg19
(dp2666
g21
(F0.2889
F0.0465
tp2667
sg23
(F-25.5404
F2.6284
tp2668
sg25
(F19.5971
Finf
tp2669
sg27
(F0.7866
F0.2111
tp2670
sg29
(F167.5594
F0.0918
tp2671
sg31
(F121.8995
F0.0793
tp2672
sg33
(F-1.0808
F0.2065
tp2673
sssS'KUG1208+386'
p2674
(dp2675
g3
I2
sg4
F1427.22100268973
sg5
(dp2676
g7
(F0.0
F0.0
tp2677
sg9
(F0.0
F0.0
tp2678
sg11
(F4.268e-06
F2.883e-06
tp2679
ssg13
I5768
sg14
F0.2474378
sg15
I8
sg16
(lp2680
g18
asg19
(dp2681
g21
(F0.0539
Finf
tp2682
sg23
(F-68.6243
F6.0383
tp2683
sg25
(F6.815
F3.9548
tp2684
sg27
(F0.5017
F0.174
tp2685
sg29
(F171.2534
F0.4334
tp2686
sg31
(F122.6148
F0.4352
tp2687
sg33
(F1.7256
F0.1692
tp2688
sssS'NGC6814'
p2689
(dp2690
g3
I2
sg4
F41508.8638748866
sg5
(dp2691
g7
(F0.0
F0.0
tp2692
sg9
(F0.0
F0.0
tp2693
sg11
(F0.0002042
F2.483e-06
tp2694
ssg13
I21252
sg14
F1.953174
sg15
I8
sg16
(lp2695
sg19
(dp2696
g21
(F0.4173
F0.0021
tp2697
sg23
(F40.3732
F0.1966
tp2698
sg25
(F0.0537
F0.0053
tp2699
sg27
(F39.945
F0.5382
tp2700
sg29
(F158.3426
F0.0691
tp2701
sg31
(F138.9001
F0.1252
tp2702
sg33
(F-2.3599
F0.0044
tp2703
sssS'UGC08327NED02'
p2704
(dp2705
g3
I2
sg4
F4077.29189021758
sg5
(dp2706
g7
(F0.0
F0.0
tp2707
sg9
(F0.0
F0.0
tp2708
sg11
(F7.718e-07
F4.941e-06
tp2709
ssg13
I5768
sg14
F0.7068814
sg15
I8
sg16
(lp2710
g18
asg19
(dp2711
g21
(F0.3693
F0.1502
tp2712
sg23
(F-18.7316
F7.5368
tp2713
sg25
(F8.4587
F5.0066
tp2714
sg27
(F0.0906
Finf
tp2715
sg29
(F170.467
F0.1124
tp2716
sg31
(F124.8485
F0.0666
tp2717
sg33
(F-0.4507
F0.1742
tp2718
sssS'2MASXJ06411806+3249313'
p2719
(dp2720
g3
I2
sg4
F1459.01157749778
sg5
(dp2721
g7
(F0.0
F0.0
tp2722
sg9
(F0.0
F0.0
tp2723
sg11
(F3.793e-05
F2.953e-06
tp2724
ssg13
I5768
sg14
F0.2529493
sg15
I8
sg16
(lp2725
g18
asg19
(dp2726
g21
(F0.1717
F0.0442
tp2727
sg23
(F-77.2602
F2.5865
tp2728
sg25
(F19.0454
Finf
tp2729
sg27
(F21.6905
F59.4385
tp2730
sg29
(F170.8117
F0.0949
tp2731
sg31
(F124.0118
F0.1145
tp2732
sg33
(F1.5316
F0.8487
tp2733
sssS'Mrk50'
p2734
(dp2735
g3
I2
sg4
F1576.56729310018
sg5
(dp2736
g7
(F0.0
F0.0
tp2737
sg9
(F0.0
F0.0
tp2738
sg11
(F3.3e-05
F3.069e-06
tp2739
ssg13
I5768
sg14
F0.27333
sg15
I8
sg16
(lp2740
g57
ag18
asg19
(dp2741
g21
(F0.1455
F3.1447
tp2742
sg23
(F52.615
F488.1364
tp2743
sg25
(F0.0397
Finf
tp2744
sg27
(F1.5545
F115.9818
tp2745
sg29
(F168.1678
F0.272
tp2746
sg31
(F124.5686
F0.0954
tp2747
sg33
(F3.91
F9.427
tp2748
sssS'SBS1301+540'
p2749
(dp2750
g16
(lp2751
g57
ag324
assS'NGC1194'
p2752
(dp2753
g3
I2
sg4
F1338.93045738539
sg5
(dp2754
g7
(F0.0
F0.0
tp2755
sg9
(F0.0
F0.0
tp2756
sg11
(F9.568e-06
F2.802e-06
tp2757
ssg13
I5768
sg14
F0.2321308
sg15
I8
sg16
(lp2758
g18
asg19
(dp2759
g21
(F0.1223
F0.9277
tp2760
sg23
(F-58.1727
F14.3949
tp2761
sg25
(F3.2435
F2.4942
tp2762
sg27
(F0.246
Finf
tp2763
sg29
(F167.0795
F0.0854
tp2764
sg31
(F123.0066
F0.0567
tp2765
sg33
(F0.5622
F0.0678
tp2766
sssS'MCG-01-24-012'
p2767
(dp2768
g3
I2
sg4
F1602.83066077936
sg5
(dp2769
g7
(F0.0
F0.0
tp2770
sg9
(F0.0
F0.0
tp2771
sg11
(F1.535e-05
F2.963e-06
tp2772
ssg13
I5768
sg14
F0.2778833
sg15
I8
sg16
(lp2773
g18
asg19
(dp2774
g21
(F0.3812
F0.0492
tp2775
sg23
(F-59.9835
F3.5767
tp2776
sg25
(F19.9785
Finf
tp2777
sg27
(F0.1343
Finf
tp2778
sg29
(F171.0159
F0.0471
tp2779
sg31
(F121.5361
F0.0445
tp2780
sg33
(F0.3717
F0.2028
tp2781
sssS'Mrk653'
p2782
(dp2783
g3
I2
sg4
F1367.46319306278
sg5
(dp2784
g7
(F0.0
F0.0
tp2785
sg9
(F0.0
F0.0
tp2786
sg11
(F3.405e-06
F2.8e-06
tp2787
ssg13
I5768
sg14
F0.2370775
sg15
I8
sg16
(lp2788
sg19
(dp2789
g21
(F0.5224
F0.1114
tp2790
sg23
(F31.2623
F7.9325
tp2791
sg25
(F0.2091
F0.7471
tp2792
sg27
(F1.5858
F0.3675
tp2793
sg29
(F166.7765
F0.0439
tp2794
sg31
(F124.4204
F0.0484
tp2795
sg33
(F2.2252
F0.0179
tp2796
sssS'2MASXJ09023729-4813339'
p2797
(dp2798
g3
I2
sg4
F1951.16272872135
sg5
(dp2799
g7
(F0.0
F0.0
tp2800
sg9
(F0.0
F0.0
tp2801
sg11
(F4.287e-05
F3.493e-06
tp2802
ssg13
I5768
sg14
F0.3382737
sg15
I8
sg16
(lp2803
sg19
(dp2804
g21
(F0.2503
F0.2397
tp2805
sg23
(F-8.0158
F10.9394
tp2806
sg25
(F3.4831
F3.2592
tp2807
sg27
(F0.8663
F0.2572
tp2808
sg29
(F170.5521
F0.1558
tp2809
sg31
(F118.7264
F0.1141
tp2810
sg33
(F2.6349
F0.0539
tp2811
sssS'UGC12282'
p2812
(dp2813
g3
I2
sg4
F2978.88661804587
sg5
(dp2814
g7
(F0.0
F0.0
tp2815
sg9
(F0.0
F0.0
tp2816
sg11
(F-2.29e-05
F4.18e-06
tp2817
ssg13
I5768
sg14
F0.5164505
sg15
I8
sg16
(lp2818
g18
asg19
(dp2819
g21
(F0.0427
Finf
tp2820
sg23
(F-19.8143
F0.1553
tp2821
sg25
(F14.2323
Finf
tp2822
sg27
(F26.9901
F8.6212
tp2823
sg29
(F168.399
F0.0417
tp2824
sg31
(F121.906
F0.067
tp2825
sg33
(F-0.7397
F0.1026
tp2826
sssS'ESO499-G041'
p2827
(dp2828
g3
I2
sg4
F1443.13927330826
sg5
(dp2829
g7
(F0.0
F0.0
tp2830
sg9
(F0.0
F0.0
tp2831
sg11
(F-2.931e-05
F2.923e-06
tp2832
ssg13
I5768
sg14
F0.2501975
sg15
I8
sg16
(lp2833
sg19
(dp2834
g21
(F0.9385
F0.0439
tp2835
sg23
(F-52.1092
F21.3495
tp2836
sg25
(F3.7141
F0.4676
tp2837
sg27
(F0.9196
F0.0321
tp2838
sg29
(F169.1836
F0.0168
tp2839
sg31
(F121.727
F0.0164
tp2840
sg33
(F0.5586
F0.0085
tp2841
sssS'NGC5683'
p2842
(dp2843
g3
I2
sg4
F1392.80340256707
sg5
(dp2844
g7
(F0.0
F0.0
tp2845
sg9
(F0.0
F0.0
tp2846
sg11
(F-2.209e-05
F2.87e-06
tp2847
ssg13
I5768
sg14
F0.2414708
sg15
I8
sg16
(lp2848
sg19
(dp2849
g21
(F0.5791
F0.0938
tp2850
sg23
(F-82.4831
F10.3758
tp2851
sg25
(F1.8606
F1.0145
tp2852
sg27
(F1.4404
F0.1656
tp2853
sg29
(F171.589
F0.0726
tp2854
sg31
(F123.9456
F0.0683
tp2855
sg33
(F2.4982
F0.0344
tp2856
sssS'2MASXJ09594263-3112581'
p2857
(dp2858
g3
I2
sg4
F1464.16585354165
sg5
(dp2859
g7
(F0.0
F0.0
tp2860
sg9
(F0.0
F0.0
tp2861
sg11
(F2.607e-06
F3.042e-06
tp2862
ssg13
I5768
sg14
F0.2538429
sg15
I8
sg16
(lp2863
g18
asg19
(dp2864
g21
(F0.2848
F97.2569
tp2865
sg23
(F-25.8569
F1218.7207
tp2866
sg25
(F1.2279
F706.7622
tp2867
sg27
(F0.0104
Finf
tp2868
sg29
(F165.3366
F249.6939
tp2869
sg31
(F115.8676
F1798.4135
tp2870
sg33
(F1.2952
F100.2657
tp2871
sssS'Fairall272'
p2872
(dp2873
g3
I2
sg4
F2160.28098644141
sg5
(dp2874
g7
(F0.0
F0.0
tp2875
sg9
(F0.0
F0.0
tp2876
sg11
(F2.021e-05
F3.502e-06
tp2877
ssg13
I5768
sg14
F0.3745286
sg15
I8
sg16
(lp2878
sg19
(dp2879
g21
(F0.1408
F0.0367
tp2880
sg23
(F-45.3731
F0.7253
tp2881
sg25
(F0.3835
F0.0708
tp2882
sg27
(F2.4371
F0.0446
tp2883
sg29
(F170.5403
F0.0146
tp2884
sg31
(F123.5739
F0.0138
tp2885
sg33
(F0.3268
F0.0058
tp2886
sssS'Mrk348'
p2887
(dp2888
g3
I2
sg4
F3116.72498987291
sg5
(dp2889
g7
(F0.0
F0.0
tp2890
sg9
(F0.0
F0.0
tp2891
sg11
(F3.499e-05
F1.544e-06
tp2892
ssg13
I5768
sg14
F0.5403476
sg15
I8
sg16
(lp2893
sg19
(dp2894
g21
(F0.936
F0.0029
tp2895
sg23
(F-53.6494
F2.2948
tp2896
sg25
(F1.0478
F0.0061
tp2897
sg27
(F3.3016
F0.0166
tp2898
sg29
(F208.2812
F0.0081
tp2899
sg31
(F151.6479
F0.0059
tp2900
sg33
(F0.4088
F0.0029
tp2901
sssS'NGC5273'
p2902
(dp2903
g3
I2
sg4
F1285.706345831
sg5
(dp2904
g7
(F0.0
F0.0
tp2905
sg9
(F0.0
F0.0
tp2906
sg11
(F-2.145e-05
F2.747e-06
tp2907
ssg13
I5768
sg14
F0.2229033
sg15
I8
sg16
(lp2908
g18
asg19
(dp2909
g21
(F0.2683
F0.0354
tp2910
sg23
(F-43.3351
F1.7938
tp2911
sg25
(F19.9007
Finf
tp2912
sg27
(F0.2386
Finf
tp2913
sg29
(F170.0524
F0.0321
tp2914
sg31
(F124.6274
F0.0324
tp2915
sg33
(F0.2318
F0.0855
tp2916
sssS'LEDA170194'
p2917
(dp2918
g3
I2
sg4
F1307.2035265724
sg5
(dp2919
g7
(F0.0
F0.0
tp2920
sg9
(F0.0
F0.0
tp2921
sg11
(F1.123e-07
F2.694e-06
tp2922
ssg13
I5768
sg14
F0.2266303
sg15
I8
sg16
(lp2923
sg19
(dp2924
g21
(F0.5277
F0.0383
tp2925
sg23
(F-35.5838
F2.8794
tp2926
sg25
(F7.0972
F1.5526
tp2927
sg27
(F1.6768
F0.1202
tp2928
sg29
(F166.962
F0.0279
tp2929
sg31
(F124.8874
F0.0262
tp2930
sg33
(F0.9729
F0.0545
tp2931
sssS'CGCG341-006'
p2932
(dp2933
g3
I2
sg4
F1172.6526343996
sg5
(dp2934
g7
(F0.0
F0.0
tp2935
sg9
(F0.0
F0.0
tp2936
sg11
(F-2.638e-05
F2.622e-06
tp2937
ssg13
I5768
sg14
F0.2033032
sg15
I8
sg16
(lp2938
g18
asg19
(dp2939
g21
(F0.6171
F0.0564
tp2940
sg23
(F-53.9042
F4.1789
tp2941
sg25
(F2.2413
F0.5453
tp2942
sg27
(F0.4907
Finf
tp2943
sg29
(F167.8126
F0.0146
tp2944
sg31
(F123.1355
F0.0162
tp2945
sg33
(F-0.0587
F0.0045
tp2946
sssS'MCG-01-05-047'
p2947
(dp2948
g3
I2
sg4
F2155.67229928012
sg5
(dp2949
g7
(F0.0
F0.0
tp2950
sg9
(F0.0
F0.0
tp2951
sg11
(F-6.031e-05
F3.531e-06
tp2952
ssg13
I5921
sg14
F0.3640723
sg15
I8
sg16
(lp2953
g18
asg19
(dp2954
g21
(F0.0456
Finf
tp2955
sg23
(F-72.8916
F0.0687
tp2956
sg25
(F6.0416
F0.1742
tp2957
sg27
(F12.0959
F0.3896
tp2958
sg29
(F170.0153
F0.0435
tp2959
sg31
(F123.1287
F0.0059
tp2960
sg33
(F-1.3014
F0.0133
tp2961
sssS'Mrk728'
p2962
(dp2963
g3
I2
sg4
F1302.95255084888
sg5
(dp2964
g7
(F0.0
F0.0
tp2965
sg9
(F0.0
F0.0
tp2966
sg11
(F1.05e-05
F2.668e-06
tp2967
ssg13
I5768
sg14
F0.2258933
sg15
I8
sg16
(lp2968
g18
asg19
(dp2969
g21
(F0.0497
Finf
tp2970
sg23
(F-19.7121
F2067.344
tp2971
sg25
(F0.2424
F204.534
tp2972
sg27
(F1.3961
F330.8157
tp2973
sg29
(F167.2651
F0.091
tp2974
sg31
(F124.6273
F0.4419
tp2975
sg33
(F3.4344
F276.1498
tp2976
sssS'MCG-01-09-045'
p2977
(dp2978
g3
I2
sg4
F1289.2194147079
sg5
(dp2979
g7
(F0.0
F0.0
tp2980
sg9
(F0.0
F0.0
tp2981
sg11
(F-3.971e-05
F9.776e-06
tp2982
ssg13
I5768
sg14
F0.2235124
sg15
I8
sg16
(lp2983
sg19
(dp2984
g21
(F0.4131
F0.032
tp2985
sg23
(F33.9929
F2.3886
tp2986
sg25
(F8.9464
F5.6912
tp2987
sg27
(F568.5443
F1858.1008
tp2988
sg29
(F171.1711
F0.11
tp2989
sg31
(F124.4465
F0.151
tp2990
sg33
(F-1.0517
F2.0037
tp2991
sssS'UGC03478'
p2992
(dp2993
g3
I2
sg4
F2513.05834327428
sg5
(dp2994
g7
(F0.0
F0.0
tp2995
sg9
(F0.0
F0.0
tp2996
sg11
(F-6.589e-05
F7.534e-06
tp2997
ssg13
I5768
sg14
F0.4356897
sg15
I8
sg16
(lp2998
g18
asg19
(dp2999
g21
(F0.7187
F0.0179
tp3000
sg23
(F-4.7328
F2.1274
tp3001
sg25
(F19.9894
Finf
tp3002
sg27
(F23.9735
F17.2167
tp3003
sg29
(F171.627
F0.0225
tp3004
sg31
(F122.4812
F0.0208
tp3005
sg33
(F-1.2761
F0.2161
tp3006
sssS'WKK6092'
p3007
(dp3008
g3
I2
sg4
F1255.16489301954
sg5
(dp3009
g7
(F0.0
F0.0
tp3010
sg9
(F0.0
F0.0
tp3011
sg11
(F3.883e-05
F2.76e-06
tp3012
ssg13
I5768
sg14
F0.2176083
sg15
I8
sg16
(lp3013
sg19
(dp3014
g21
(F0.9572
F0.0152
tp3015
sg23
(F-41.1995
F15.4572
tp3016
sg25
(F0.699
F0.0201
tp3017
sg27
(F2.5661
F0.0495
tp3018
sg29
(F167.0406
F0.0235
tp3019
sg31
(F144.9919
F0.0233
tp3020
sg33
(F2.0437
F0.0134
tp3021
sssS'LEDA38038'
p3022
(dp3023
g3
I2
sg4
F1261.33896165648
sg5
(dp3024
g7
(F0.0
F0.0
tp3025
sg9
(F0.0
F0.0
tp3026
sg11
(F-5.129e-05
F2.783e-06
tp3027
ssg13
I5768
sg14
F0.2186787
sg15
I8
sg16
(lp3028
g18
asg19
(dp3029
g21
(F0.783
F0.0557
tp3030
sg23
(F-78.3903
F8.9387
tp3031
sg25
(F6.2904
F1.2641
tp3032
sg27
(F0.1777
Finf
tp3033
sg29
(F171.4502
F0.0243
tp3034
sg31
(F125.202
F0.0275
tp3035
sg33
(F-0.6676
F0.0188
tp3036
sssS'2MASXJ14530794+2554327'
p3037
(dp3038
g3
I2
sg4
F1345.90538850378
sg5
(dp3039
g7
(F0.0
F0.0
tp3040
sg9
(F0.0
F0.0
tp3041
sg11
(F8.506e-06
F3.501e-06
tp3042
ssg13
I5768
sg14
F0.23334
sg15
I8
sg16
(lp3043
g57
ag18
asg19
(dp3044
g21
(F0.6026
F1.1693
tp3045
sg23
(F-55.2689
F99.9613
tp3046
sg25
(F19.9982
Finf
tp3047
sg27
(F2.3115
F30.7375
tp3048
sg29
(F169.1809
F0.7007
tp3049
sg31
(F122.0331
F0.8132
tp3050
sg33
(F4.1465
F6.1854
tp3051
sssS'6dFJ2132022-334254'
p3052
(dp3053
g3
I2
sg4
F2273.5926238862
sg5
(dp3054
g7
(F0.0
F0.0
tp3055
sg9
(F0.0
F0.0
tp3056
sg11
(F-9.062e-07
F3.629e-06
tp3057
ssg13
I5768
sg14
F0.3941735
sg15
I8
sg16
(lp3058
g18
asg19
(dp3059
g21
(F0.4468
F57.5518
tp3060
sg23
(F-68.5406
F11951.1074
tp3061
sg25
(F2.8253
F2481.0989
tp3062
sg27
(F0.0605
Finf
tp3063
sg29
(F170.8385
F1.8332
tp3064
sg31
(F124.0943
F8.1265
tp3065
sg33
(F2.8904
F109.6165
tp3066
sssS'MCG-02-14-009'
p3067
(dp3068
g3
I2
sg4
F1360.67989556163
sg5
(dp3069
g7
(F0.0
F0.0
tp3070
sg9
(F0.0
F0.0
tp3071
sg11
(F4.054e-06
F2.998e-06
tp3072
ssg13
I5768
sg14
F0.2359015
sg15
I8
sg16
(lp3073
g18
asg19
(dp3074
g21
(F0.1261
F0.1891
tp3075
sg23
(F19.8925
F4.5717
tp3076
sg25
(F6.3399
F3.1686
tp3077
sg27
(F0.3356
Finf
tp3078
sg29
(F171.1384
F0.0996
tp3079
sg31
(F123.8149
F0.0548
tp3080
sg33
(F1.3716
F0.0576
tp3081
sssS'2MASXJ09235371-3141305'
p3082
(dp3083
g3
I2
sg4
F1439.0870926118
sg5
(dp3084
g7
(F0.0
F0.0
tp3085
sg9
(F0.0
F0.0
tp3086
sg11
(F-1.434e-06
F2.924e-06
tp3087
ssg13
I5768
sg14
F0.249495
sg15
I8
sg16
(lp3088
sg19
(dp3089
g21
(F0.1608
F358865.3125
tp3090
sg23
(F-85.5473
F959715.0
tp3091
sg25
(F0.2094
F4.9394
tp3092
sg27
(F1.1058
F1787.1454
tp3093
sg29
(F171.3493
F0.7426
tp3094
sg31
(F116.2609
F512360.4688
tp3095
sg33
(F2.5712
F3.6939
tp3096
sssS'Mrk198'
p3097
(dp3098
g3
I2
sg4
F1380.89214586106
sg5
(dp3099
g7
(F0.0
F0.0
tp3100
sg9
(F0.0
F0.0
tp3101
sg11
(F-1.588e-05
F2.865e-06
tp3102
ssg13
I5768
sg14
F0.2394057
sg15
I8
sg16
(lp3103
sg19
(dp3104
g21
(F0.7274
F0.0372
tp3105
sg23
(F-54.7951
F4.3495
tp3106
sg25
(F5.0452
F0.6497
tp3107
sg27
(F0.6547
F0.0225
tp3108
sg29
(F171.6073
F0.0178
tp3109
sg31
(F124.6559
F0.0188
tp3110
sg33
(F0.2272
F0.0061
tp3111
sssS'ESO139-G012'
p3112
(dp3113
g3
I2
sg4
F1875.26942171898
sg5
(dp3114
g7
(F0.0
F0.0
tp3115
sg9
(F0.0
F0.0
tp3116
sg11
(F-0.0001218
F1.413e-05
tp3117
ssg13
I5768
sg14
F0.3251161
sg15
I8
sg16
(lp3118
g18
asg19
(dp3119
g21
(F0.7579
F0.0244
tp3120
sg23
(F-22.5692
F3.3842
tp3121
sg25
(F13.4808
Finf
tp3122
sg27
(F938.9702
F2322.9333
tp3123
sg29
(F170.576
F0.0453
tp3124
sg31
(F124.1409
F0.051
tp3125
sg33
(F-2.3552
F1.2575
tp3126
sssS'MCG+05-28-032'
p3127
(dp3128
g3
I2
sg4
F1465.01327388804
sg5
(dp3129
g7
(F0.0
F0.0
tp3130
sg9
(F0.0
F0.0
tp3131
sg11
(F-4.716e-05
F2.92e-06
tp3132
ssg13
I5768
sg14
F0.2539898
sg15
I8
sg16
(lp3133
sg19
(dp3134
g21
(F0.2948
F0.0442
tp3135
sg23
(F-79.9389
F2.0019
tp3136
sg25
(F2.4113
F0.3707
tp3137
sg27
(F0.7976
F0.0506
tp3138
sg29
(F170.879
F0.0173
tp3139
sg31
(F122.7542
F0.0301
tp3140
sg33
(F0.2333
F0.0053
tp3141
sssS'ESO198-024'
p3142
(dp3143
g3
I2
sg4
F1297.46700454767
sg5
(dp3144
g7
(F0.0
F0.0
tp3145
sg9
(F0.0
F0.0
tp3146
sg11
(F1.742e-07
F2.739e-06
tp3147
ssg13
I5768
sg14
F0.2249423
sg15
I8
sg16
(lp3148
g18
asg19
(dp3149
g21
(F0.2167
F1.9264
tp3150
sg23
(F10.5153
F97.4922
tp3151
sg25
(F1.6027
F6.4741
tp3152
sg27
(F0.4473
Finf
tp3153
sg29
(F171.3228
F0.533
tp3154
sg31
(F122.0016
F0.0751
tp3155
sg33
(F2.5507
F0.0283
tp3156
sssS'Mrk1210'
p3157
(dp3158
g3
I2
sg4
F1472.11020837816
sg5
(dp3159
g7
(F0.0
F0.0
tp3160
sg9
(F0.0
F0.0
tp3161
sg11
(F-1.939e-05
F2.931e-06
tp3162
ssg13
I5768
sg14
F0.2552202
sg15
I8
sg16
(lp3163
g18
asg19
(dp3164
g21
(F0.8349
F0.0523
tp3165
sg23
(F-4.7422
F10.8458
tp3166
sg25
(F4.6847
F0.7985
tp3167
sg27
(F0.3011
Finf
tp3168
sg29
(F167.4619
F0.0245
tp3169
sg31
(F122.3794
F0.0225
tp3170
sg33
(F-0.3589
F0.0046
tp3171
sssS'ESO033-G002'
p3172
(dp3173
g3
I2
sg4
F1291.20185029362
sg5
(dp3174
g7
(F0.0
F0.0
tp3175
sg9
(F0.0
F0.0
tp3176
sg11
(F-3.214e-05
F2.757e-06
tp3177
ssg13
I5768
sg14
F0.2238561
sg15
I8
sg16
(lp3178
sg19
(dp3179
g21
(F0.4972
F0.0383
tp3180
sg23
(F-15.1754
F2.7089
tp3181
sg25
(F3.5939
F0.5416
tp3182
sg27
(F0.698
F0.041
tp3183
sg29
(F170.4467
F0.0237
tp3184
sg31
(F124.4441
F0.0202
tp3185
sg33
(F0.4454
F0.0053
tp3186
sssS'MCG-02-12-050'
p3187
(dp3188
g3
I2
sg4
F2319.0432401495
sg5
(dp3189
g7
(F0.0
F0.0
tp3190
sg9
(F0.0
F0.0
tp3191
sg11
(F2.667e-06
F3.726e-06
tp3192
ssg13
I5768
sg14
F0.4020533
sg15
I8
sg16
(lp3193
sg19
(dp3194
g21
(F0.2971
F0.0085
tp3195
sg23
(F-60.8577
F0.6109
tp3196
sg25
(F1.2105
F0.0564
tp3197
sg27
(F6.384
F0.1351
tp3198
sg29
(F169.5552
F0.051
tp3199
sg31
(F126.7079
F0.0277
tp3200
sg33
(F0.4617
F0.0138
tp3201
sssS'NGC424'
p3202
(dp3203
g3
I2
sg4
F1426.95996427217
sg5
(dp3204
g7
(F0.0
F0.0
tp3205
sg9
(F0.0
F0.0
tp3206
sg11
(F-8.311e-05
F2.763e-06
tp3207
ssg13
I5768
sg14
F0.2473925
sg15
I8
sg16
(lp3208
g18
asg19
(dp3209
g21
(F0.8529
F0.0316
tp3210
sg23
(F-20.6307
F6.7263
tp3211
sg25
(F15.5558
Finf
tp3212
sg27
(F0.2664
Finf
tp3213
sg29
(F169.3288
F0.0222
tp3214
sg31
(F125.7862
F0.0217
tp3215
sg33
(F-0.6589
F0.0504
tp3216
sssS'NGC5506'
p3217
(dp3218
g3
I2
sg4
F34163.845108082
sg5
(dp3219
g7
(F0.0
F0.0
tp3220
sg9
(F0.0
F0.0
tp3221
sg11
(F0.000109
F5.425e-06
tp3222
ssg13
I5768
sg14
F5.922997
sg15
I8
sg16
(lp3223
sg19
(dp3224
g21
(F0.858
F0.004
tp3225
sg23
(F-36.0288
F1.0184
tp3226
sg25
(F1.4951
F0.0179
tp3227
sg27
(F3.1461
F0.0178
tp3228
sg29
(F207.3965
F0.0092
tp3229
sg31
(F151.6548
F0.0099
tp3230
sg33
(F-2.05
F0.0056
tp3231
sssS'2MASXJ10402231-4625264'
p3232
(dp3233
g3
I2
sg4
F1466.9681009018
sg5
(dp3234
g7
(F0.0
F0.0
tp3235
sg9
(F0.0
F0.0
tp3236
sg11
(F1.636e-05
F2.969e-06
tp3237
ssg13
I5768
sg14
F0.2543287
sg15
I8
sg16
(lp3238
sg19
(dp3239
g21
(F0.5424
F0.0387
tp3240
sg23
(F-24.9542
F2.7547
tp3241
sg25
(F3.6146
F0.5188
tp3242
sg27
(F0.5407
F0.0438
tp3243
sg29
(F170.9793
F0.0218
tp3244
sg31
(F125.7502
F0.0175
tp3245
sg33
(F-0.1088
F0.0047
tp3246
sssS'Mrk335'
p3247
(dp3248
g3
I2
sg4
F1880.47474451492
sg5
(dp3249
g7
(F0.0
F0.0
tp3250
sg9
(F0.0
F0.0
tp3251
sg11
(F-5.012e-06
F1.181e-06
tp3252
ssg13
I5768
sg14
F0.3260185
sg15
I8
sg16
(lp3253
sg19
(dp3254
g21
(F0.9561
F0.0044
tp3255
sg23
(F-18.0049
F4.8301
tp3256
sg25
(F0.7447
F0.0069
tp3257
sg27
(F2.4664
F0.0151
tp3258
sg29
(F211.2851
F0.0072
tp3259
sg31
(F153.6766
F0.0079
tp3260
sg33
(F1.5699
F0.004
tp3261
sssS'UGC11185NED02'
p3262
(dp3263
g3
I2
sg4
F1978.68622871725
sg5
(dp3264
g7
(F0.0
F0.0
tp3265
sg9
(F0.0
F0.0
tp3266
sg11
(F-1.904e-05
F3.501e-06
tp3267
ssg13
I5768
sg14
F0.3430455
sg15
I8
sg16
(lp3268
sg19
(dp3269
g21
(F0.461
F0.0855
tp3270
sg23
(F-48.4824
F4.559
tp3271
sg25
(F1.8285
F0.7542
tp3272
sg27
(F0.7331
F0.1119
tp3273
sg29
(F168.288
F0.0194
tp3274
sg31
(F125.0798
F0.022
tp3275
sg33
(F0.912
F0.0081
tp3276
sssS'NGC4992'
p3277
(dp3278
g3
I2
sg4
F1404.02841277906
sg5
(dp3279
g7
(F0.0
F0.0
tp3280
sg9
(F0.0
F0.0
tp3281
sg11
(F-2.17e-05
F2.788e-06
tp3282
ssg13
I5768
sg14
F0.2434169
sg15
I8
sg16
(lp3283
sg19
(dp3284
g21
(F0.8947
F0.1437
tp3285
sg23
(F-16.4855
F44.2247
tp3286
sg25
(F9.4252
F5.0271
tp3287
sg27
(F0.5695
F0.083
tp3288
sg29
(F171.3711
F0.0718
tp3289
sg31
(F124.3072
F0.0707
tp3290
sg33
(F1.6978
F0.0349
tp3291
sssS'ESO031-G008'
p3292
(dp3293
g3
I2
sg4
F1319.04200980744
sg5
(dp3294
g7
(F0.0
F0.0
tp3295
sg9
(F0.0
F0.0
tp3296
sg11
(F-1.753e-05
F2.869e-06
tp3297
ssg13
I5768
sg14
F0.2286827
sg15
I8
sg16
(lp3298
g18
asg19
(dp3299
g21
(F0.0556
Finf
tp3300
sg23
(F-44.0929
F0.9908
tp3301
sg25
(F12.4274
Finf
tp3302
sg27
(F42.9543
F65.8958
tp3303
sg29
(F170.3422
F0.1756
tp3304
sg31
(F118.8529
F0.2694
tp3305
sg33
(F1.546
F0.54
tp3306
sssS'2MASXJ20183871+4041003'
p3307
(dp3308
g3
I2
sg4
F39952.116153071
sg5
(dp3309
g7
(F0.0
F0.0
tp3310
sg9
(F0.0
F0.0
tp3311
sg11
(F-0.001114
F0.000169
tp3312
ssg13
I5768
sg14
F6.926511
sg15
I8
sg16
(lp3313
sg19
(dp3314
g21
(F0.6993
F0.0133
tp3315
sg23
(F-6.0642
F1.519
tp3316
sg25
(F2.7221
F0.3594
tp3317
sg27
(F71.5713
F26.6436
tp3318
sg29
(F165.6721
F0.0811
tp3319
sg31
(F119.1957
F0.1071
tp3320
sg33
(F-3.8206
F0.3823
tp3321
sssS'ESO533-G050'
p3322
(dp3323
g3
I2
sg4
F1480.15108214013
sg5
(dp3324
g7
(F0.0
F0.0
tp3325
sg9
(F0.0
F0.0
tp3326
sg11
(F-1.296e-06
F3.081e-06
tp3327
ssg13
I5768
sg14
F0.2566143
sg15
I8
sg16
(lp3328
g18
asg19
(dp3329
g21
(F0.1414
F0.039
tp3330
sg23
(F-26.804
F2.4036
tp3331
sg25
(F19.366
Finf
tp3332
sg27
(F6.4286
F8.7342
tp3333
sg29
(F170.9933
F0.0957
tp3334
sg31
(F125.7152
F0.099
tp3335
sg33
(F1.6256
F0.5099
tp3336
sssS'ESO141-G055'
p3337
(dp3338
g3
I2
sg4
F1551.40867923217
sg5
(dp3339
g7
(F0.0
F0.0
tp3340
sg9
(F0.0
F0.0
tp3341
sg11
(F-1.831e-06
F3.157e-06
tp3342
ssg13
I5768
sg14
F0.2689682
sg15
I8
sg16
(lp3343
sg19
(dp3344
g21
(F0.6011
F0.0283
tp3345
sg23
(F18.3553
F2.5277
tp3346
sg25
(F8.9215
F1.6211
tp3347
sg27
(F2.2916
F0.2529
tp3348
sg29
(F170.8072
F0.0272
tp3349
sg31
(F123.9648
F0.0251
tp3350
sg33
(F0.2982
F0.0621
tp3351
sssS'NGC931'
p3352
(dp3353
g3
I2
sg4
F7064.8419576761
sg5
(dp3354
g7
(F0.0
F0.0
tp3355
sg9
(F0.0
F0.0
tp3356
sg11
(F-2.588e-05
F8.16e-06
tp3357
ssg13
I5768
sg14
F1.224834
sg15
I8
sg16
(lp3358
g18
asg19
(dp3359
g21
(F0.3447
F0.0127
tp3360
sg23
(F23.9438
F0.7925
tp3361
sg25
(F19.9996
Finf
tp3362
sg27
(F17.4683
F10.5985
tp3363
sg29
(F169.3442
F0.0256
tp3364
sg31
(F122.8931
F0.03
tp3365
sg33
(F-1.4631
F0.1825
tp3366
sssS'NGC4102'
p3367
(dp3368
g3
I2
sg4
F70927.7041871976
sg5
(dp3369
g7
(F0.0
F0.0
tp3370
sg9
(F0.0
F0.0
tp3371
sg11
(F0.0003925
F2.259e-05
tp3372
ssg13
I5768
sg14
F12.29676
sg15
I8
sg16
(lp3373
g18
asg19
(dp3374
g21
(F0.2492
F0.0422
tp3375
sg23
(F16.2333
F1.7418
tp3376
sg25
(F19.9995
Finf
tp3377
sg27
(F0.0186
Finf
tp3378
sg29
(F168.8052
F0.1684
tp3379
sg31
(F124.648
F0.1092
tp3380
sg33
(F-4.5522
F0.4222
tp3381
sssS'ESO157-G023'
p3382
(dp3383
g3
I2
sg4
F2371.40003017556
sg5
(dp3384
g7
(F0.0
F0.0
tp3385
sg9
(F0.0
F0.0
tp3386
sg11
(F1.665e-05
F3.611e-06
tp3387
ssg13
I5768
sg14
F0.4111304
sg15
I8
sg16
(lp3388
g18
asg19
(dp3389
g21
(F0.067
Finf
tp3390
sg23
(F-33.3942
F1.7543
tp3391
sg25
(F7.553
F3.0125
tp3392
sg27
(F7.1625
F3.7437
tp3393
sg29
(F171.8649
F0.088
tp3394
sg31
(F125.0642
F0.2205
tp3395
sg33
(F1.9636
F0.1772
tp3396
sssS'SDSSJ104326.47+110524.2'
p3397
(dp3398
g3
I2
sg4
F1311.54713627033
sg5
(dp3399
g7
(F0.0
F0.0
tp3400
sg9
(F0.0
F0.0
tp3401
sg11
(F-9.001e-06
F2.587e-06
tp3402
ssg13
I5768
sg14
F0.2273833
sg15
I8
sg16
(lp3403
g18
asg19
(dp3404
g21
(F0.05
Finf
tp3405
sg23
(F-49.9317
F55.2255
tp3406
sg25
(F2.9434
F11.3124
tp3407
sg27
(F0.4625
Finf
tp3408
sg29
(F167.5209
F2.4926
tp3409
sg31
(F123.6804
F0.1791
tp3410
sg33
(F3.2584
F1.6309
tp3411
sssS'2MASXJ15462424+6929102'
p3412
(dp3413
g3
I2
sg4
F4560.2879351189
sg5
(dp3414
g7
(F0.0
F0.0
tp3415
sg9
(F0.0
F0.0
tp3416
sg11
(F-5.863e-06
F5.139e-06
tp3417
ssg13
I5768
sg14
F0.7906186
sg15
I8
sg16
(lp3418
g18
asg19
(dp3419
g21
(F0.0456
Finf
tp3420
sg23
(F-74.5163
F108.5239
tp3421
sg25
(F2.6737
F40.0564
tp3422
sg27
(F0.4338
Finf
tp3423
sg29
(F169.9846
F2.4925
tp3424
sg31
(F125.5468
F0.0973
tp3425
sg33
(F1.839
F4.8374
tp3426
sssS'IC2637'
p3427
(dp3428
g3
I2
sg4
F1607.21983350973
sg5
(dp3429
g7
(F0.0
F0.0
tp3430
sg9
(F0.0
F0.0
tp3431
sg11
(F-1.399e-05
F3.115e-06
tp3432
ssg13
I5768
sg14
F0.2786442
sg15
I8
sg16
(lp3433
sg19
(dp3434
g21
(F0.3994
F0.0035
tp3435
sg23
(F-44.5319
F0.2447
tp3436
sg25
(F0.2946
F0.0105
tp3437
sg27
(F3.5844
F0.0138
tp3438
sg29
(F171.351
F0.0077
tp3439
sg31
(F123.3123
F0.0072
tp3440
sg33
(F-0.9331
F0.002
tp3441
sssS'2MASXJ03305218+0538253'
p3442
(dp3443
g16
(lp3444
g324
assS'UGC06728'
p3445
(dp3446
g3
I2
sg4
F1357.07455536639
sg5
(dp3447
g7
(F0.0
F0.0
tp3448
sg9
(F0.0
F0.0
tp3449
sg11
(F-1.215e-05
F2.969e-06
tp3450
ssg13
I5768
sg14
F0.2352764
sg15
I8
sg16
(lp3451
g18
asg19
(dp3452
g21
(F0.5266
F3441.9119
tp3453
sg23
(F28.7391
F98717.3672
tp3454
sg25
(F1.269
F1691.0344
tp3455
sg27
(F0.0101
Finf
tp3456
sg29
(F170.9327
F3574.9087
tp3457
sg31
(F121.3246
F4045.2375
tp3458
sg33
(F2.6172
F287.4732
tp3459
sssS'2MASXJ12005792+0648226'
p3460
(dp3461
g3
I2
sg4
F1344.8548967225
sg5
(dp3462
g7
(F0.0
F0.0
tp3463
sg9
(F0.0
F0.0
tp3464
sg11
(F3.577e-05
F2.835e-06
tp3465
ssg13
I5768
sg14
F0.2331579
sg15
I8
sg16
(lp3466
sg19
(dp3467
g21
(F0.3649
F0.0222
tp3468
sg23
(F-57.7972
F1.2849
tp3469
sg25
(F1.3241
F0.1609
tp3470
sg27
(F1.589
F0.0331
tp3471
sg29
(F171.3182
F0.0131
tp3472
sg31
(F124.1768
F0.0139
tp3473
sg33
(F0.6731
F0.0057
tp3474
sssS'LCRSB034324.7-394349'
p3475
(dp3476
g3
I2
sg4
F2161.93451463883
sg5
(dp3477
g7
(F0.0
F0.0
tp3478
sg9
(F0.0
F0.0
tp3479
sg11
(F-1.543e-05
F3.648e-06
tp3480
ssg13
I5768
sg14
F0.3748153
sg15
I8
sg16
(lp3481
sg19
(dp3482
g21
(F0.419
F0.2032
tp3483
sg23
(F-51.0953
F10.6767
tp3484
sg25
(F2.5793
F2.2789
tp3485
sg27
(F0.777
F0.2333
tp3486
sg29
(F170.7159
F0.0595
tp3487
sg31
(F122.1591
F0.0685
tp3488
sg33
(F2.16
F0.0269
tp3489
sssS'NGC1106'
p3490
(dp3491
g3
I2
sg4
F1612.11342231629
sg5
(dp3492
g7
(F0.0
F0.0
tp3493
sg9
(F0.0
F0.0
tp3494
sg11
(F-1.251e-05
F3.687e-06
tp3495
ssg13
I5768
sg14
F0.2794926
sg15
I8
sg16
(lp3496
g18
asg19
(dp3497
g21
(F0.9209
F0.0329
tp3498
sg23
(F4.3921
F13.002
tp3499
sg25
(F17.3885
Finf
tp3500
sg27
(F0.8044
F0.065
tp3501
sg29
(F171.2371
F0.0262
tp3502
sg31
(F123.9926
F0.0251
tp3503
sg33
(F-0.4284
F0.0881
tp3504
sssS'NGC4151'
p3505
(dp3506
g3
I2
sg4
F2760.98463342068
sg5
(dp3507
g7
(F0.0
F0.0
tp3508
sg9
(F0.0
F0.0
tp3509
sg11
(F0.0003052
F4.904e-06
tp3510
ssg13
I5768
sg14
F0.4786728
sg15
I8
sg16
(lp3511
sg19
(dp3512
g21
(F0.8835
F0.0055
tp3513
sg23
(F66.7458
F1.5577
tp3514
sg25
(F1.7061
F0.022
tp3515
sg27
(F4.6312
F0.0423
tp3516
sg29
(F333.1986
F0.0149
tp3517
sg31
(F326.9099
F0.0143
tp3518
sg33
(F-1.6275
F0.0059
tp3519
sssS'2MASXJ19373299-0613046'
p3520
(dp3521
g3
I2
sg4
F2957.68597414098
sg5
(dp3522
g7
(F0.0
F0.0
tp3523
sg9
(F0.0
F0.0
tp3524
sg11
(F-8.123e-05
F4.286e-06
tp3525
ssg13
I5768
sg14
F0.5127749
sg15
I8
sg16
(lp3526
sg19
(dp3527
g21
(F0.7363
F0.0034
tp3528
sg23
(F23.0703
F0.5566
tp3529
sg25
(F0.6702
F0.0118
tp3530
sg27
(F4.5645
F0.0206
tp3531
sg29
(F170.8526
F0.0104
tp3532
sg31
(F121.2685
F0.0119
tp3533
sg33
(F-1.3182
F0.002
tp3534
sssS'Mrk290'
p3535
(dp3536
g3
I2
sg4
F1720.18101206853
sg5
(dp3537
g7
(F0.0
F0.0
tp3538
sg9
(F0.0
F0.0
tp3539
sg11
(F-6.53e-06
F1.13e-06
tp3540
ssg13
I5768
sg14
F0.2982283
sg15
I8
sg16
(lp3541
sg19
(dp3542
g21
(F0.9185
F0.0062
tp3543
sg23
(F-49.5765
F3.5887
tp3544
sg25
(F0.7123
F0.0101
tp3545
sg27
(F2.5897
F0.0232
tp3546
sg29
(F206.7021
F0.0114
tp3547
sg31
(F152.7918
F0.0103
tp3548
sg33
(F2.1452
F0.0064
tp3549
sssS'2MASXJ15064412+0351444'
p3550
(dp3551
g3
I2
sg4
F1415.31327927974
sg5
(dp3552
g7
(F0.0
F0.0
tp3553
sg9
(F0.0
F0.0
tp3554
sg11
(F1.882e-05
F2.761e-06
tp3555
ssg13
I5768
sg14
F0.2453733
sg15
I8
sg16
(lp3556
g18
asg19
(dp3557
g21
(F0.0491
Finf
tp3558
sg23
(F17.3913
F4.6013
tp3559
sg25
(F16.1774
Finf
tp3560
sg27
(F1.2895
F1.1508
tp3561
sg29
(F170.8803
F0.0939
tp3562
sg31
(F124.0605
F1.1107
tp3563
sg33
(F2.6348
F0.3615
tp3564
sssS'ESO195-IG021NED03'
p3565
(dp3566
g3
I2
sg4
F1348.23523564214
sg5
(dp3567
g7
(F0.0
F0.0
tp3568
sg9
(F0.0
F0.0
tp3569
sg11
(F2.988e-05
F2.841e-06
tp3570
ssg13
I5768
sg14
F0.233744
sg15
I8
sg16
(lp3571
sg19
(dp3572
g21
(F0.5681
F0.0832
tp3573
sg23
(F-17.6174
F6.3673
tp3574
sg25
(F1.0259
F0.7671
tp3575
sg27
(F0.7816
F0.1489
tp3576
sg29
(F166.7523
F0.0226
tp3577
sg31
(F124.8811
F0.0195
tp3578
sg33
(F1.0392
F0.0071
tp3579
sssS'2MASXJ01064523+0638015'
p3580
(dp3581
g3
I2
sg4
F1599.11635759864
sg5
(dp3582
g7
(F0.0
F0.0
tp3583
sg9
(F0.0
F0.0
tp3584
sg11
(F-1.113e-05
F3.04e-06
tp3585
ssg13
I5768
sg14
F0.2772393
sg15
I8
sg16
(lp3586
sg19
(dp3587
g21
(F0.1896
F0.2143
tp3588
sg23
(F-9.2097
F8.002
tp3589
sg25
(F4.0845
F2.6734
tp3590
sg27
(F0.5842
F0.1992
tp3591
sg29
(F165.8666
F0.1805
tp3592
sg31
(F122.8775
F0.0727
tp3593
sg33
(F2.1204
F0.0381
tp3594
sssS'Mrk975'
p3595
(dp3596
g3
I2
sg4
F1380.18109154164
sg5
(dp3597
g7
(F0.0
F0.0
tp3598
sg9
(F0.0
F0.0
tp3599
sg11
(F1.407e-05
F2.846e-06
tp3600
ssg13
I5768
sg14
F0.2392824
sg15
I8
sg16
(lp3601
sg19
(dp3602
g21
(F0.4222
F0.0217
tp3603
sg23
(F44.6527
F1.2817
tp3604
sg25
(F2.9646
F0.2588
tp3605
sg27
(F1.2714
F0.0296
tp3606
sg29
(F170.248
F0.0129
tp3607
sg31
(F126.01
F0.0139
tp3608
sg33
(F0.2924
F0.0051
tp3609
sssS'ESO509-G038'
p3610
(dp3611
g3
I2
sg4
F1346.4981614523
sg5
(dp3612
g7
(F0.0
F0.0
tp3613
sg9
(F0.0
F0.0
tp3614
sg11
(F-1.72e-05
F2.844e-06
tp3615
ssg13
I5768
sg14
F0.2334428
sg15
I8
sg16
(lp3616
g18
asg19
(dp3617
g21
(F0.5437
F0.1573
tp3618
sg23
(F-65.4628
F17.5921
tp3619
sg25
(F0.0452
Finf
tp3620
sg27
(F1.351
F25.2341
tp3621
sg29
(F165.9921
F0.0139
tp3622
sg31
(F126.6964
F0.0133
tp3623
sg33
(F0.954
F0.0081
tp3624
sssS'UGC10593'
p3625
(dp3626
g3
I2
sg4
F1475.62553587813
sg5
(dp3627
g7
(F0.0
F0.0
tp3628
sg9
(F0.0
F0.0
tp3629
sg11
(F-5.185e-05
F2.944e-06
tp3630
ssg13
I5768
sg14
F0.2558297
sg15
I8
sg16
(lp3631
g18
asg19
(dp3632
g21
(F0.0477
Finf
tp3633
sg23
(F71.478
F2.1848
tp3634
sg25
(F9.1744
F3.2928
tp3635
sg27
(F0.4471
Finf
tp3636
sg29
(F167.5362
F0.0649
tp3637
sg31
(F122.0943
F0.0828
tp3638
sg33
(F0.8111
F0.3057
tp3639
sssS'2MASXJ14080674-3023537'
p3640
(dp3641
g3
I2
sg4
F1372.25700423781
sg5
(dp3642
g7
(F0.0
F0.0
tp3643
sg9
(F0.0
F0.0
tp3644
sg11
(F-4.319e-06
F2.747e-06
tp3645
ssg13
I5768
sg14
F0.2379086
sg15
I8
sg16
(lp3646
g57
ag18
asg19
(dp3647
g21
(F0.0516
Finf
tp3648
sg23
(F11.5034
F14.2789
tp3649
sg25
(F1.3407
F5.7642
tp3650
sg27
(F1.985
F2.1406
tp3651
sg29
(F167.9632
F0.224
tp3652
sg31
(F125.7478
F0.2614
tp3653
sg33
(F3.8087
F0.9393
tp3654
sssS'MCG+02-21-013'
p3655
(dp3656
g3
I2
sg4
F1457.46453404189
sg5
(dp3657
g7
(F0.0
F0.0
tp3658
sg9
(F0.0
F0.0
tp3659
sg11
(F-1.164e-05
F2.851e-06
tp3660
ssg13
I5768
sg14
F0.2526811
sg15
I8
sg16
(lp3661
sg19
(dp3662
g21
(F0.2707
F0.0206
tp3663
sg23
(F-59.9851
F0.9053
tp3664
sg25
(F2.8897
F0.2419
tp3665
sg27
(F1.6538
F0.0385
tp3666
sg29
(F170.2438
F0.0163
tp3667
sg31
(F125.1122
F0.0146
tp3668
sg33
(F0.427
F0.0064
tp3669
sssS'Ark120'
p3670
(dp3671
g3
I2
sg4
F1346.41622004745
sg5
(dp3672
g7
(F0.0
F0.0
tp3673
sg9
(F0.0
F0.0
tp3674
sg11
(F-1.028e-05
F2.918e-06
tp3675
ssg13
I5768
sg14
F0.2334286
sg15
I8
sg16
(lp3676
sg19
(dp3677
g21
(F0.9058
F0.0342
tp3678
sg23
(F76.3341
F14.1477
tp3679
sg25
(F8.3698
F1.5398
tp3680
sg27
(F0.8832
F0.0495
tp3681
sg29
(F166.5335
F0.0247
tp3682
sg31
(F123.8517
F0.0259
tp3683
sg33
(F0.305
F0.0436
tp3684
sssS'NGC5995'
p3685
(dp3686
g3
I2
sg4
F2044.68751888069
sg5
(dp3687
g7
(F0.0
F0.0
tp3688
sg9
(F0.0
F0.0
tp3689
sg11
(F-6.977e-05
F3.577e-06
tp3690
ssg13
I5768
sg14
F0.3544881
sg15
I8
sg16
(lp3691
sg19
(dp3692
g21
(F0.4494
F0.0082
tp3693
sg23
(F24.6319
F0.5007
tp3694
sg25
(F3.7725
F0.1307
tp3695
sg27
(F1.2606
F0.0151
tp3696
sg29
(F170.2482
F0.0105
tp3697
sg31
(F123.7266
F0.0095
tp3698
sg33
(F-1.616
F0.0034
tp3699
sssS'IRAS04124-0803'
p3700
(dp3701
g3
I2
sg4
F1563.28509889308
sg5
(dp3702
g7
(F0.0
F0.0
tp3703
sg9
(F0.0
F0.0
tp3704
sg11
(F-2.662e-06
F2.837e-06
tp3705
ssg13
I5768
sg14
F0.2710272
sg15
I8
sg16
(lp3706
sg19
(dp3707
g21
(F0.8274
F0.0359
tp3708
sg23
(F-52.0153
F7.3338
tp3709
sg25
(F4.4043
F0.5968
tp3710
sg27
(F0.9206
F0.0323
tp3711
sg29
(F172.0542
F0.0195
tp3712
sg31
(F123.6645
F0.0201
tp3713
sg33
(F0.4726
F0.0157
tp3714
sssS'Mrk1018'
p3715
(dp3716
g3
I2
sg4
F1435.27859823009
sg5
(dp3717
g7
(F0.0
F0.0
tp3718
sg9
(F0.0
F0.0
tp3719
sg11
(F-9.994e-06
F2.85e-06
tp3720
ssg13
I5768
sg14
F0.2488347
sg15
I8
sg16
(lp3721
g18
asg19
(dp3722
g21
(F0.4074
F0.0
tp3723
sg23
(F57.8841
F0.0
tp3724
sg25
(F0.0321
Finf
tp3725
sg27
(F0.6732
F0.0
tp3726
sg29
(F166.6322
F0.0
tp3727
sg31
(F125.8569
F0.0
tp3728
sg33
(F3.0149
F0.0
tp3729
sssS'2MASXJ03540948+0249307'
p3730
(dp3731
g3
I2
sg4
F1322.08542749284
sg5
(dp3732
g7
(F0.0
F0.0
tp3733
sg9
(F0.0
F0.0
tp3734
sg11
(F5.117e-06
F2.876e-06
tp3735
ssg13
I5768
sg14
F0.2292104
sg15
I8
sg16
(lp3736
g18
asg19
(dp3737
g21
(F0.0919
Finf
tp3738
sg23
(F31.2685
F3.6746
tp3739
sg25
(F13.9965
Finf
tp3740
sg27
(F0.3436
Finf
tp3741
sg29
(F172.2115
F0.0944
tp3742
sg31
(F121.9981
F0.0711
tp3743
sg33
(F1.6491
F0.2176
tp3744
sssS'IC1816'
p3745
(dp3746
g3
I2
sg4
F1834.19679540626
sg5
(dp3747
g7
(F0.0
F0.0
tp3748
sg9
(F0.0
F0.0
tp3749
sg11
(F-3.919e-05
F3.226e-06
tp3750
ssg13
I5768
sg14
F0.3179953
sg15
I8
sg16
(lp3751
sg19
(dp3752
g21
(F0.5631
F0.0106
tp3753
sg23
(F53.5259
F0.8623
tp3754
sg25
(F5.4412
F0.3133
tp3755
sg27
(F2.7204
F0.0609
tp3756
sg29
(F170.7989
F0.0142
tp3757
sg31
(F123.6978
F0.012
tp3758
sg33
(F-0.7057
F0.0152
tp3759
sssS'NGC7213'
p3760
(dp3761
g3
I2
sg4
F4719.9305802443
sg5
(dp3762
g7
(F0.0
F0.0
tp3763
sg9
(F0.0
F0.0
tp3764
sg11
(F-0.0001501
F2.031e-05
tp3765
ssg13
I5768
sg14
F0.8182959
sg15
I8
sg16
(lp3766
g18
asg19
(dp3767
g21
(F0.8893
F0.0145
tp3768
sg23
(F-64.0448
F4.0015
tp3769
sg25
(F19.7134
Finf
tp3770
sg27
(F2006.5673
F3704.271
tp3771
sg29
(F171.5522
F0.0226
tp3772
sg31
(F120.4619
F0.0211
tp3773
sg33
(F-3.8039
F0.77
tp3774
sssS'Mrk595'
p3775
(dp3776
g3
I2
sg4
F1383.01622344518
sg5
(dp3777
g7
(F0.0
F0.0
tp3778
sg9
(F0.0
F0.0
tp3779
sg11
(F-1.488e-05
F2.75e-06
tp3780
ssg13
I5768
sg14
F0.239774
sg15
I8
sg16
(lp3781
g18
asg19
(dp3782
g21
(F0.8362
F0.0878
tp3783
sg23
(F-64.816
F16.7066
tp3784
sg25
(F12.6879
Finf
tp3785
sg27
(F0.3509
Finf
tp3786
sg29
(F167.0969
F0.0284
tp3787
sg31
(F124.7526
F0.0393
tp3788
sg33
(F0.8392
F0.1085
tp3789
sssS'NGC3081'
p3790
(dp3791
g3
I2
sg4
F13926.9885719243
sg5
(dp3792
g7
(F0.0
F0.0
tp3793
sg9
(F0.0
F0.0
tp3794
sg11
(F0.0001287
F3.3e-06
tp3795
ssg13
I5768
sg14
F2.414526
sg15
I8
sg16
(lp3796
sg19
(dp3797
g21
(F0.8898
F0.0033
tp3798
sg23
(F27.7906
F1.3473
tp3799
sg25
(F1.0542
F0.0094
tp3800
sg27
(F3.4123
F0.017
tp3801
sg29
(F210.397
F0.0109
tp3802
sg31
(F157.3028
F0.0114
tp3803
sg33
(F-0.7609
F0.0042
tp3804
sssS'NGC6240'
p3805
(dp3806
g3
I2
sg4
F5061.48305303726
sg5
(dp3807
g7
(F0.0
F0.0
tp3808
sg9
(F0.0
F0.0
tp3809
sg11
(F4.9e-05
F7.642e-06
tp3810
ssg13
I5768
sg14
F0.8775109
sg15
I8
sg16
(lp3811
sg19
(dp3812
g21
(F0.9847
F0.0036
tp3813
sg23
(F17.2838
F9.6452
tp3814
sg25
(F2.0932
F0.0275
tp3815
sg27
(F3.2236
F0.0207
tp3816
sg29
(F211.7449
F0.017
tp3817
sg31
(F247.4754
F0.0137
tp3818
sg33
(F-3.1322
F0.0056
tp3819
sssS'Mrk79'
p3820
(dp3821
g3
I2
sg4
F2070.87016607325
sg5
(dp3822
g7
(F0.0
F0.0
tp3823
sg9
(F0.0
F0.0
tp3824
sg11
(F9.896e-06
F3.519e-06
tp3825
ssg13
I5768
sg14
F0.3590274
sg15
I8
sg16
(lp3826
g18
asg19
(dp3827
g21
(F0.2814
F0.0173
tp3828
sg23
(F-33.8518
F0.9474
tp3829
sg25
(F19.5501
Finf
tp3830
sg27
(F0.9238
F0.0775
tp3831
sg29
(F170.3742
F0.0294
tp3832
sg31
(F124.6546
F0.0228
tp3833
sg33
(F-0.4608
F0.0639
tp3834
sssS'MCG-02-02-095'
p3835
(dp3836
g3
I2
sg4
F1385.0518628807
sg5
(dp3837
g7
(F0.0
F0.0
tp3838
sg9
(F0.0
F0.0
tp3839
sg11
(F1.746e-05
F2.862e-06
tp3840
ssg13
I5768
sg14
F0.2401269
sg15
I8
sg16
(lp3841
g18
asg19
(dp3842
g21
(F0.1614
F1.0605
tp3843
sg23
(F36.7134
F18.758
tp3844
sg25
(F2.836
F5.8982
tp3845
sg27
(F0.448
Finf
tp3846
sg29
(F170.3741
F0.1689
tp3847
sg31
(F126.3788
F0.1239
tp3848
sg33
(F2.858
F0.0495
tp3849
sssS'1RXSJ044154.5-082639'
p3850
(dp3851
g3
I2
sg4
F2123.4614168113
sg5
(dp3852
g7
(F0.0
F0.0
tp3853
sg9
(F0.0
F0.0
tp3854
sg11
(F-2.202e-05
F3.525e-06
tp3855
ssg13
I5768
sg14
F0.3681452
sg15
I8
sg16
(lp3856
sg19
(dp3857
g21
(F0.1409
F0.7681
tp3858
sg23
(F-23.9255
F10.4837
tp3859
sg25
(F2.3844
F2.5876
tp3860
sg27
(F0.5543
F0.3084
tp3861
sg29
(F169.2788
F0.1117
tp3862
sg31
(F128.4361
F0.065
tp3863
sg33
(F1.9595
F0.0235
tp3864
sssS'6dFJ0626586-370559'
p3865
(dp3866
g3
I2
sg4
F1389.08152103795
sg5
(dp3867
g7
(F0.0
F0.0
tp3868
sg9
(F0.0
F0.0
tp3869
sg11
(F-2.272e-05
F2.857e-06
tp3870
ssg13
I5768
sg14
F0.2408255
sg15
I8
sg16
(lp3871
g18
asg19
(dp3872
g21
(F0.0663
Finf
tp3873
sg23
(F-64.8112
F4.8046
tp3874
sg25
(F6.7146
F5.6038
tp3875
sg27
(F0.4551
Finf
tp3876
sg29
(F171.5917
F0.5073
tp3877
sg31
(F123.4024
F0.1022
tp3878
sg33
(F1.7616
F0.1057
tp3879
sssS'MCG-05-23-016'
p3880
(dp3881
g3
I2
sg4
F1467.2481004084
sg5
(dp3882
g7
(F0.0
F0.0
tp3883
sg9
(F0.0
F0.0
tp3884
sg11
(F-2.799e-05
F3.048e-06
tp3885
ssg13
I5768
sg14
F0.2543773
sg15
I8
sg16
(lp3886
g18
asg19
(dp3887
g21
(F0.1041
F0.4049
tp3888
sg23
(F-35.8682
F5.5267
tp3889
sg25
(F3.9718
F1.8394
tp3890
sg27
(F0.2022
Finf
tp3891
sg29
(F170.4389
F0.0465
tp3892
sg31
(F117.3402
F0.0348
tp3893
sg33
(F-0.3328
F0.1226
tp3894
sssS'2MASXJ12475784-5829599'
p3895
(dp3896
g3
I2
sg4
F1731.09423022992
sg5
(dp3897
g7
(F0.0
F0.0
tp3898
sg9
(F0.0
F0.0
tp3899
sg11
(F2.243e-06
F3.154e-06
tp3900
ssg13
I5768
sg14
F0.3001204
sg15
I8
sg16
(lp3901
g57
ag18
asg19
(dp3902
g21
(F0.0144
Finf
tp3903
sg23
(F-52.0552
F0.1768
tp3904
sg25
(F0.0419
Finf
tp3905
sg27
(F8.3342
F58.4027
tp3906
sg29
(F161.9663
F0.0221
tp3907
sg31
(F120.009
F0.0181
tp3908
sg33
(F0.83
F1.0692
tp3909
sssS'2MASXJ13411287-1438407'
p3910
(dp3911
g3
I2
sg4
F1288.62614746733
sg5
(dp3912
g7
(F0.0
F0.0
tp3913
sg9
(F0.0
F0.0
tp3914
sg11
(F-2.334e-05
F2.768e-06
tp3915
ssg13
I5768
sg14
F0.2234095
sg15
I8
sg16
(lp3916
sg19
(dp3917
g21
(F0.614
F0.0842
tp3918
sg23
(F55.3688
F7.0483
tp3919
sg25
(F0.2045
F0.7286
tp3920
sg27
(F1.6336
F0.3375
tp3921
sg29
(F172.0588
F0.039
tp3922
sg31
(F124.3331
F0.0347
tp3923
sg33
(F2.1873
F0.0156
tp3924
sssS'2MASXJ13512953-1813468'
p3925
(dp3926
g3
I2
sg4
F1320.97690426751
sg5
(dp3927
g7
(F0.0
F0.0
tp3928
sg9
(F0.0
F0.0
tp3929
sg11
(F2.185e-05
F2.77e-06
tp3930
ssg13
I5768
sg14
F0.2290182
sg15
I8
sg16
(lp3931
g57
ag18
asg19
(dp3932
g21
(F0.9152
F9502.2207
tp3933
sg23
(F-70.8922
F36292800.0
tp3934
sg25
(F2.2876
F11391.0469
tp3935
sg27
(F0.0102
Finf
tp3936
sg29
(F170.7818
F5214.0156
tp3937
sg31
(F124.3936
F13078.5791
tp3938
sg33
(F3.9884
F2339.6501
tp3939
sssS'CenA'
p3940
(dp3941
g3
I2
sg4
F1735058.10521035
sg5
(dp3942
g7
(F0.0
F0.0
tp3943
sg9
(F0.0
F0.0
tp3944
sg11
(F6.553e-05
F3.331e-06
tp3945
ssg13
I211592
sg14
F8.200018
sg15
I8
sg16
(lp3946
sg19
(dp3947
g21
(F0.2594
F0.0003
tp3948
sg23
(F-28.7161
F0.0259
tp3949
sg25
(F0.8802
F0.0029
tp3950
sg27
(F63.345
F0.0882
tp3951
sg29
(F937.1202
F0.0284
tp3952
sg31
(F934.8768
F0.0524
tp3953
sg33
(F-6.3208
F0.0011
tp3954
sssS'2E1739.1-1210'
p3955
(dp3956
g3
I2
sg4
F1396.80130099805
sg5
(dp3957
g7
(F0.0
F0.0
tp3958
sg9
(F0.0
F0.0
tp3959
sg11
(F3.632e-05
F2.848e-06
tp3960
ssg13
I5768
sg14
F0.2421639
sg15
I8
sg16
(lp3961
g18
asg19
(dp3962
g21
(F0.5845
F0.1111
tp3963
sg23
(F53.7169
F8.3002
tp3964
sg25
(F9.9146
F5.111
tp3965
sg27
(F0.1332
Finf
tp3966
sg29
(F171.0938
F0.0477
tp3967
sg31
(F124.7926
F0.0518
tp3968
sg33
(F0.5842
F0.1046
tp3969
sssS'CGCG493-002'
p3970
(dp3971
g3
I2
sg4
F1454.3239034761
sg5
(dp3972
g7
(F0.0
F0.0
tp3973
sg9
(F0.0
F0.0
tp3974
sg11
(F-3.111e-05
F2.984e-06
tp3975
ssg13
I5768
sg14
F0.2521366
sg15
I8
sg16
(lp3976
sg19
(dp3977
g21
(F0.4624
F0.0304
tp3978
sg23
(F-66.4878
F2.3243
tp3979
sg25
(F1.1999
F0.2607
tp3980
sg27
(F1.3778
F0.0556
tp3981
sg29
(F170.2739
F0.0195
tp3982
sg31
(F124.5345
F0.0166
tp3983
sg33
(F0.9917
F0.0071
tp3984
sssS'CGCG535-012'
p3985
(dp3986
g3
I2
sg4
F1488.40374899258
sg5
(dp3987
g7
(F0.0
F0.0
tp3988
sg9
(F0.0
F0.0
tp3989
sg11
(F1.346e-05
F3.009e-06
tp3990
ssg13
I5768
sg14
F0.258045
sg15
I8
sg16
(lp3991
sg19
(dp3992
g21
(F0.268
F0.0671
tp3993
sg23
(F-67.2082
F3.6544
tp3994
sg25
(F9.1448
F4.9627
tp3995
sg27
(F1.6854
F0.3212
tp3996
sg29
(F170.38
F0.0578
tp3997
sg31
(F124.418
F0.0735
tp3998
sg33
(F1.7899
F0.141
tp3999
sssS'ESO511-G030'
p4000
(dp4001
g3
I2
sg4
F1513.56316247542
sg5
(dp4002
g7
(F0.0
F0.0
tp4003
sg9
(F0.0
F0.0
tp4004
sg11
(F-1.999e-05
F1.277e-05
tp4005
ssg13
I5768
sg14
F0.2624069
sg15
I8
sg16
(lp4006
sg19
(dp4007
g21
(F0.6298
F0.0331
tp4008
sg23
(F32.001
F3.2009
tp4009
sg25
(F8.5382
F3.9126
tp4010
sg27
(F316.2415
F692.9515
tp4011
sg29
(F171.6188
F0.0754
tp4012
sg31
(F124.5325
F0.0944
tp4013
sg33
(F-1.3254
F1.3369
tp4014
sssS'2MASXJ04440903+2813003'
p4015
(dp4016
g3
I2
sg4
F1545.21994732126
sg5
(dp4017
g7
(F0.0
F0.0
tp4018
sg9
(F0.0
F0.0
tp4019
sg11
(F-4.038e-06
F3.083e-06
tp4020
ssg13
I5768
sg14
F0.2678953
sg15
I8
sg16
(lp4021
sg19
(dp4022
g21
(F0.9555
F0.0318
tp4023
sg23
(F-7.7886
F24.0264
tp4024
sg25
(F8.3105
F0.9114
tp4025
sg27
(F0.6542
F0.0206
tp4026
sg29
(F171.0076
F0.0171
tp4027
sg31
(F123.5222
F0.0178
tp4028
sg33
(F-0.265
F0.0059
tp4029
sssS'AXJ1737.4-2907'
p4030
(dp4031
g3
I2
sg4
F2664.75478148906
sg5
(dp4032
g7
(F0.0
F0.0
tp4033
sg9
(F0.0
F0.0
tp4034
sg11
(F-7.612e-06
F4.022e-06
tp4035
ssg13
I5768
sg14
F0.4619894
sg15
I8
sg16
(lp4036
g18
asg19
(dp4037
g21
(F0.05
Finf
tp4038
sg23
(F57.0813
F70.3078
tp4039
sg25
(F2.1976
F14.3931
tp4040
sg27
(F0.4736
Finf
tp4041
sg29
(F172.2165
F0.6324
tp4042
sg31
(F120.8428
F0.2502
tp4043
sg33
(F0.8091
F1.9381
tp4044
sssS'Mrk926'
p4045
(dp4046
g3
I2
sg4
F1532.6529731397
sg5
(dp4047
g7
(F0.0
F0.0
tp4048
sg9
(F0.0
F0.0
tp4049
sg11
(F2.656e-06
F3.281e-06
tp4050
ssg13
I5768
sg14
F0.2657165
sg15
I8
sg16
(lp4051
g18
asg19
(dp4052
g21
(F0.9505
F0.0514
tp4053
sg23
(F74.6054
F43.3396
tp4054
sg25
(F19.0035
Finf
tp4055
sg27
(F0.4929
Finf
tp4056
sg29
(F170.7092
F0.0422
tp4057
sg31
(F125.5629
F0.0425
tp4058
sg33
(F0.3523
F0.1658
tp4059
sssS'ESO479-G031'
p4060
(dp4061
g16
(lp4062
g324
assS'MCG+12-10-067'
p4063
(dp4064
g3
I2
sg4
F1465.67742974423
sg5
(dp4065
g7
(F0.0
F0.0
tp4066
sg9
(F0.0
F0.0
tp4067
sg11
(F-1.11e-05
F2.902e-06
tp4068
ssg13
I5768
sg14
F0.254105
sg15
I8
sg16
(lp4069
sg19
(dp4070
g21
(F0.3262
F0.0104
tp4071
sg23
(F83.9944
F0.6261
tp4072
sg25
(F4.5337
F0.2855
tp4073
sg27
(F3.2262
F0.0777
tp4074
sg29
(F171.8478
F0.015
tp4075
sg31
(F120.7721
F0.0142
tp4076
sg33
(F-0.007522
F0.01612
tp4077
sssS'MCG-02-08-014'
p4078
(dp4079
g3
I2
sg4
F1380.71423890581
sg5
(dp4080
g7
(F0.0
F0.0
tp4081
sg9
(F0.0
F0.0
tp4082
sg11
(F-9.092e-07
F2.776e-06
tp4083
ssg13
I5768
sg14
F0.2393749
sg15
I8
sg16
(lp4084
g18
asg19
(dp4085
g21
(F0.0487
Finf
tp4086
sg23
(F40.6654
F2.063
tp4087
sg25
(F12.4163
Finf
tp4088
sg27
(F0.4262
Finf
tp4089
sg29
(F170.8896
F0.0428
tp4090
sg31
(F122.0382
F0.2155
tp4091
sg33
(F1.1397
F0.8959
tp4092
sssS'ESO137-34'
p4093
(dp4094
g3
I2
sg4
F3759.35004158125
sg5
(dp4095
g7
(F0.0
F0.0
tp4096
sg9
(F0.0
F0.0
tp4097
sg11
(F5.172e-05
F6.083e-06
tp4098
ssg13
I5768
sg14
F0.6517597
sg15
I8
sg16
(lp4099
g18
asg19
(dp4100
g21
(F0.4441
F0.0144
tp4101
sg23
(F78.5506
F1.0215
tp4102
sg25
(F19.9626
Finf
tp4103
sg27
(F5.8139
F2.0016
tp4104
sg29
(F170.7316
F0.0266
tp4105
sg31
(F124.4044
F0.0285
tp4106
sg33
(F-1.1601
F0.124
tp4107
sssS'Mrk590'
p4108
(dp4109
g3
I2
sg4
F1426.79259385519
sg5
(dp4110
g7
(F0.0
F0.0
tp4111
sg9
(F0.0
F0.0
tp4112
sg11
(F-6.639e-05
F6.797e-06
tp4113
ssg13
I5768
sg14
F0.2473635
sg15
I8
sg16
(lp4114
sg19
(dp4115
g21
(F0.7756
F0.0233
tp4116
sg23
(F-36.1736
F3.3184
tp4117
sg25
(F9.4616
F1.8146
tp4118
sg27
(F27.9091
F15.0928
tp4119
sg29
(F170.7806
F0.0265
tp4120
sg31
(F125.2976
F0.0243
tp4121
sg33
(F-0.4355
F0.2396
tp4122
sssS'2MASSJ07594181-3843560'
p4123
(dp4124
g3
I2
sg4
F1392.25335006444
sg5
(dp4125
g7
(F0.0
F0.0
tp4126
sg9
(F0.0
F0.0
tp4127
sg11
(F-7.746e-07
F2.92e-06
tp4128
ssg13
I5768
sg14
F0.2413754
sg15
I8
sg16
(lp4129
g57
asg19
(dp4130
g21
(F0.763
F0.0407
tp4131
sg23
(F-8.7468
F9.2936
tp4132
sg25
(F0.6507
F0.0753
tp4133
sg27
(F2.8651
F0.2107
tp4134
sg29
(F167.455
F0.0984
tp4135
sg31
(F147.525
F0.1293
tp4136
sg33
(F3.6644
F0.0565
tp4137
sssS'IC2921'
p4138
(dp4139
g3
I2
sg4
F1333.03614202989
sg5
(dp4140
g7
(F0.0
F0.0
tp4141
sg9
(F0.0
F0.0
tp4142
sg11
(F-1.119e-05
F2.783e-06
tp4143
ssg13
I5768
sg14
F0.2311089
sg15
I8
sg16
(lp4144
sg19
(dp4145
g21
(F0.4323
F0.0942
tp4146
sg23
(F29.6782
F6.0233
tp4147
sg25
(F3.3284
F1.4016
tp4148
sg27
(F1.7986
F0.2254
tp4149
sg29
(F171.0042
F0.0627
tp4150
sg31
(F123.8926
F0.0684
tp4151
sg33
(F2.3691
F0.0535
tp4152
sssS'NGC4941'
p4153
(dp4154
g3
I2
sg4
F1614.29186761867
sg5
(dp4155
g7
(F0.0
F0.0
tp4156
sg9
(F0.0
F0.0
tp4157
sg11
(F4.746e-05
F3.011e-06
tp4158
ssg13
I5768
sg14
F0.2798703
sg15
I8
sg16
(lp4159
sg19
(dp4160
g21
(F0.7667
F0.042
tp4161
sg23
(F-49.8502
F5.4002
tp4162
sg25
(F3.5655
F0.4929
tp4163
sg27
(F0.6387
F0.0361
tp4164
sg29
(F170.9205
F0.0156
tp4165
sg31
(F124.3015
F0.0202
tp4166
sg33
(F0.121
F0.0073
tp4167
sssS'MCG-03-04-072'
p4168
(dp4169
g3
I2
sg4
F1357.3168658765
sg5
(dp4170
g7
(F0.0
F0.0
tp4171
sg9
(F0.0
F0.0
tp4172
sg11
(F-2.709e-06
F2.804e-06
tp4173
ssg13
I5768
sg14
F0.2353185
sg15
I8
sg16
(lp4174
g18
asg19
(dp4175
g21
(F0.0494
Finf
tp4176
sg23
(F-9.0718
F1.5431
tp4177
sg25
(F10.5881
Finf
tp4178
sg27
(F3.0084
F0.6495
tp4179
sg29
(F169.5164
F0.1059
tp4180
sg31
(F126.8704
F0.1945
tp4181
sg33
(F1.9269
F0.1296
tp4182
sssS'ESO197-G027'
p4183
(dp4184
g3
I2
sg4
F1561.58298466185
sg5
(dp4185
g7
(F0.0
F0.0
tp4186
sg9
(F0.0
F0.0
tp4187
sg11
(F-4.075e-05
F2.98e-06
tp4188
ssg13
I5768
sg14
F0.2707321
sg15
I8
sg16
(lp4189
sg19
(dp4190
g21
(F0.3116
F0.0119
tp4191
sg23
(F-12.8199
F0.683
tp4192
sg25
(F4.313
F0.3161
tp4193
sg27
(F3.4183
F0.0981
tp4194
sg29
(F170.6868
F0.0166
tp4195
sg31
(F125.6006
F0.0203
tp4196
sg33
(F0.2435
F0.0188
tp4197
sssS'PKS2331-240'
p4198
(dp4199
g3
I2
sg4
F1391.29793410881
sg5
(dp4200
g7
(F0.0
F0.0
tp4201
sg9
(F0.0
F0.0
tp4202
sg11
(F2.223e-05
F2.765e-06
tp4203
ssg13
I5768
sg14
F0.2412098
sg15
I8
sg16
(lp4204
g18
asg19
(dp4205
g21
(F0.3983
F0.0
tp4206
sg23
(F-10.6126
F0.0
tp4207
sg25
(F0.0306
Finf
tp4208
sg27
(F0.7868
F0.0
tp4209
sg29
(F168.0045
F0.0
tp4210
sg31
(F123.22
F0.0
tp4211
sg33
(F2.2555
F0.0
tp4212
sssS'2MASXJ23272195+1524375'
p4213
(dp4214
g3
I2
sg4
F1401.20763688433
sg5
(dp4215
g7
(F0.0
F0.0
tp4216
sg9
(F0.0
F0.0
tp4217
sg11
(F5.658e-06
F2.853e-06
tp4218
ssg13
I5768
sg14
F0.2429278
sg15
I8
sg16
(lp4219
g18
asg19
(dp4220
g21
(F0.1543
F0.2174
tp4221
sg23
(F-83.6208
F8.6353
tp4222
sg25
(F8.1734
F7.1888
tp4223
sg27
(F0.3131
Finf
tp4224
sg29
(F170.7228
F0.1018
tp4225
sg31
(F124.2376
F0.317
tp4226
sg33
(F2.1199
F0.1991
tp4227
sssS'KAZ320'
p4228
(dp4229
g3
I2
sg4
F1406.30384247113
sg5
(dp4230
g7
(F0.0
F0.0
tp4231
sg9
(F0.0
F0.0
tp4232
sg11
(F-3.113e-05
F2.934e-06
tp4233
ssg13
I5768
sg14
F0.2438113
sg15
I8
sg16
(lp4234
g18
asg19
(dp4235
g21
(F0.067
Finf
tp4236
sg23
(F-60.2423
F1.5852
tp4237
sg25
(F5.3877
F1.3761
tp4238
sg27
(F0.5546
F0.0937
tp4239
sg29
(F170.5245
F0.0777
tp4240
sg31
(F125.1093
F0.0604
tp4241
sg33
(F1.1166
F0.0514
tp4242
sssS'WKK1263'
p4243
(dp4244
g3
I2
sg4
F1667.33481557413
sg5
(dp4245
g7
(F0.0
F0.0
tp4246
sg9
(F0.0
F0.0
tp4247
sg11
(F-4.582e-05
F3.072e-06
tp4248
ssg13
I5768
sg14
F0.2890664
sg15
I8
sg16
(lp4249
sg19
(dp4250
g21
(F0.8632
F0.0054
tp4251
sg23
(F22.4427
F1.9559
tp4252
sg25
(F0.8707
F0.0102
tp4253
sg27
(F4.2297
F0.0408
tp4254
sg29
(F171.6495
F0.0159
tp4255
sg31
(F144.909
F0.018
tp4256
sg33
(F0.4505
F0.007
tp4257
sssS'MCG+04-22-042'
p4258
(dp4259
g3
I2
sg4
F1438.71525284975
sg5
(dp4260
g7
(F0.0
F0.0
tp4261
sg9
(F0.0
F0.0
tp4262
sg11
(F-2.396e-05
F3.014e-06
tp4263
ssg13
I5768
sg14
F0.2494305
sg15
I8
sg16
(lp4264
sg19
(dp4265
g21
(F0.379
F0.086
tp4266
sg23
(F81.3675
F5.4635
tp4267
sg25
(F4.5804
F2.0127
tp4268
sg27
(F1.4443
F0.1903
tp4269
sg29
(F170.7368
F0.0766
tp4270
sg31
(F122.0152
F0.0882
tp4271
sg33
(F2.0527
F0.0648
tp4272
sssS'IRAS03219+4031'
p4273
(dp4274
g3
I2
sg4
F2008.96406720118
sg5
(dp4275
g7
(F0.0
F0.0
tp4276
sg9
(F0.0
F0.0
tp4277
sg11
(F1.019e-06
F3.447e-06
tp4278
ssg13
I5768
sg14
F0.3482947
sg15
I8
sg16
(lp4279
g18
asg19
(dp4280
g21
(F0.099
Finf
tp4281
sg23
(F-84.4821
F1.2063
tp4282
sg25
(F8.8795
F1.6016
tp4283
sg27
(F0.2908
Finf
tp4284
sg29
(F171.8881
F0.0311
tp4285
sg31
(F121.4147
F0.0959
tp4286
sg33
(F-0.3591
F0.0551
tp4287
sssS'UGC03142'
p4288
(dp4289
g3
I2
sg4
F2309.68107125295
sg5
(dp4290
g7
(F0.0
F0.0
tp4291
sg9
(F0.0
F0.0
tp4292
sg11
(F-0.0001077
F1.568e-05
tp4293
ssg13
I5768
sg14
F0.4004301
sg15
I8
sg16
(lp4294
g18
asg19
(dp4295
g21
(F0.6794
F0.0136
tp4296
sg23
(F-13.6826
F1.4597
tp4297
sg25
(F13.9865
Finf
tp4298
sg27
(F1360.2742
F2226.8218
tp4299
sg29
(F170.7769
F0.0315
tp4300
sg31
(F123.1563
F0.0355
tp4301
sg33
(F-3.2092
F0.8327
tp4302
sssS'NGC5033'
p4303
(dp4304
g3
I2
sg4
F33850.3685592451
sg5
(dp4305
g7
(F0.0
F0.0
tp4306
sg9
(F0.0
F0.0
tp4307
sg11
(F-5.522e-06
F6.631e-06
tp4308
ssg13
I14443
sg14
F2.343721
sg15
I8
sg16
(lp4309
sg19
(dp4310
g21
(F0.3174
F0.0009
tp4311
sg23
(F48.913
F0.0804
tp4312
sg25
(F0.6559
F0.0059
tp4313
sg27
(F16.6965
F0.0506
tp4314
sg29
(F170.9041
F0.0236
tp4315
sg31
(F125.3455
F0.0209
tp4316
sg33
(F-3.2152
F0.0022
tp4317
sssS'ESO509-IG066NED01'
p4318
(dp4319
g3
I2
sg4
F2064.22924229507
sg5
(dp4320
g7
(F0.0
F0.0
tp4321
sg9
(F0.0
F0.0
tp4322
sg11
(F-2.428e-05
F3.562e-06
tp4323
ssg13
I5768
sg14
F0.3578761
sg15
I8
sg16
(lp4324
sg19
(dp4325
g21
(F0.5651
F0.0193
tp4326
sg23
(F-9.1451
F1.7046
tp4327
sg25
(F4.927
F0.4793
tp4328
sg27
(F1.8147
F0.0572
tp4329
sg29
(F170.153
F0.0175
tp4330
sg31
(F125.1367
F0.0167
tp4331
sg33
(F0.0243
F0.0197
tp4332
sssS'2MASXJ03534246+3714077'
p4333
(dp4334
g3
I2
sg4
F1541.35393587376
sg5
(dp4335
g7
(F0.0
F0.0
tp4336
sg9
(F0.0
F0.0
tp4337
sg11
(F-1.771e-05
F2.966e-06
tp4338
ssg13
I5768
sg14
F0.267225
sg15
I8
sg16
(lp4339
sg19
(dp4340
g21
(F0.8374
F0.0212
tp4341
sg23
(F20.7981
F4.5619
tp4342
sg25
(F0.8704
F0.1028
tp4343
sg27
(F1.5101
F0.026
tp4344
sg29
(F166.9176
F0.0144
tp4345
sg31
(F125.2821
F0.0146
tp4346
sg33
(F0.3207
F0.0049
tp4347
sssS'MCG+11-11-032'
p4348
(dp4349
g3
I2
sg4
F1384.85591224665
sg5
(dp4350
g7
(F0.0
F0.0
tp4351
sg9
(F0.0
F0.0
tp4352
sg11
(F4.858e-05
F2.78e-06
tp4353
ssg13
I5768
sg14
F0.2400929
sg15
I8
sg16
(lp4354
g18
asg19
(dp4355
g21
(F0.0373
Finf
tp4356
sg23
(F-87.8506
F280.9883
tp4357
sg25
(F0.9031
F8.7683
tp4358
sg27
(F1.0163
F2.2014
tp4359
sg29
(F171.4452
F0.1293
tp4360
sg31
(F123.9128
F2.9754
tp4361
sg33
(F2.3963
F0.1792
tp4362
sssS'ESO383-18'
p4363
(dp4364
g3
I2
sg4
F1547.47727510874
sg5
(dp4365
g7
(F0.0
F0.0
tp4366
sg9
(F0.0
F0.0
tp4367
sg11
(F1.744e-05
F2.972e-06
tp4368
ssg13
I5768
sg14
F0.2682866
sg15
I8
sg16
(lp4369
sg19
(dp4370
g21
(F0.4847
F0.0216
tp4371
sg23
(F-0.2583
F2.135
tp4372
sg25
(F2.4964
F0.31
tp4373
sg27
(F1.1097
F0.0335
tp4374
sg29
(F170.2846
F0.0229
tp4375
sg31
(F125.2808
F0.0199
tp4376
sg33
(F0.5344
F0.0059
tp4377
sssS'IGRJ11366-6002'
p4378
(dp4379
g3
I2
sg4
F1349.36896016898
sg5
(dp4380
g7
(F0.0
F0.0
tp4381
sg9
(F0.0
F0.0
tp4382
sg11
(F-3.068e-05
F2.714e-06
tp4383
ssg13
I5768
sg14
F0.2339405
sg15
I8
sg16
(lp4384
g18
asg19
(dp4385
g21
(F0.5826
F0.0395
tp4386
sg23
(F-34.9942
F3.0812
tp4387
sg25
(F11.8155
Finf
tp4388
sg27
(F0.2408
Finf
tp4389
sg29
(F170.6536
F0.0294
tp4390
sg31
(F124.196
F0.0277
tp4391
sg33
(F-0.1923
F0.0431
tp4392
sssS'2MASXJ05020903+0331499'
p4393
(dp4394
g3
I2
sg4
F1320.35675608853
sg5
(dp4395
g7
(F0.0
F0.0
tp4396
sg9
(F0.0
F0.0
tp4397
sg11
(F-2.324e-05
F2.762e-06
tp4398
ssg13
I5768
sg14
F0.2289107
sg15
I8
sg16
(lp4399
g18
asg19
(dp4400
g21
(F0.0426
Finf
tp4401
sg23
(F19.5578
F16.3988
tp4402
sg25
(F5.7017
F7.6955
tp4403
sg27
(F0.3481
Finf
tp4404
sg29
(F169.9276
F0.4404
tp4405
sg31
(F125.6054
F0.7963
tp4406
sg33
(F2.7223
F0.9598
tp4407
sssS'NGC985'
p4408
(dp4409
g3
I2
sg4
F3170.05706540114
sg5
(dp4410
g7
(F0.0
F0.0
tp4411
sg9
(F0.0
F0.0
tp4412
sg11
(F-4.149e-05
F4.346e-06
tp4413
ssg13
I5768
sg14
F0.5495938
sg15
I8
sg16
(lp4414
g18
asg19
(dp4415
g21
(F0.184
F0.0132
tp4416
sg23
(F49.2753
F0.6528
tp4417
sg25
(F19.9408
Finf
tp4418
sg27
(F3.5379
F0.8411
tp4419
sg29
(F169.6115
F0.0344
tp4420
sg31
(F125.3536
F0.0249
tp4421
sg33
(F-0.6217
F0.0814
tp4422
sssS'2MASXJ09043699+5536025'
p4423
(dp4424
g3
I2
sg4
F1380.46989477336
sg5
(dp4425
g7
(F0.0
F0.0
tp4426
sg9
(F0.0
F0.0
tp4427
sg11
(F1.52e-05
F2.878e-06
tp4428
ssg13
I5768
sg14
F0.2393325
sg15
I8
sg16
(lp4429
sg19
(dp4430
g21
(F0.1863
F1.5332
tp4431
sg23
(F72.9482
F52.374
tp4432
sg25
(F0.2104
F2.0904
tp4433
sg27
(F1.0704
F1.3892
tp4434
sg29
(F169.5995
F0.0371
tp4435
sg31
(F126.368
F0.0524
tp4436
sg33
(F1.9162
F0.0569
tp4437
sssS'NGC526A'
p4438
(dp4439
g3
I2
sg4
F1403.64250278312
sg5
(dp4440
g7
(F0.0
F0.0
tp4441
sg9
(F0.0
F0.0
tp4442
sg11
(F-6.473e-05
F2.921e-06
tp4443
ssg13
I5768
sg14
F0.24335
sg15
I8
sg16
(lp4444
g18
asg19
(dp4445
g21
(F0.1748
F0.0316
tp4446
sg23
(F55.6751
F1.6305
tp4447
sg25
(F12.2779
Finf
tp4448
sg27
(F3.9884
F1.4946
tp4449
sg29
(F170.4706
F0.0503
tp4450
sg31
(F126.9958
F0.0509
tp4451
sg33
(F1.2012
F0.1479
tp4452
sssS'NGC3783'
p4453
(dp4454
g3
I2
sg4
F25508.6451515037
sg5
(dp4455
g7
(F0.0
F0.0
tp4456
sg9
(F0.0
F0.0
tp4457
sg11
(F-0.0002513
F1.484e-05
tp4458
ssg13
I5768
sg14
F4.422442
sg15
I8
sg16
(lp4459
sg19
(dp4460
g21
(F0.8218
F0.0065
tp4461
sg23
(F68.6698
F1.2923
tp4462
sg25
(F5.2953
F0.235
tp4463
sg27
(F54.485
F7.972
tp4464
sg29
(F208.5002
F0.0098
tp4465
sg31
(F154.0949
F0.0224
tp4466
sg33
(F-2.4741
F0.0994
tp4467
sssS'1RXSJ045205.0+493248'
p4468
(dp4469
g3
I2
sg4
F1434.53686267969
sg5
(dp4470
g7
(F0.0
F0.0
tp4471
sg9
(F0.0
F0.0
tp4472
sg11
(F-6.561e-05
F3.94e-06
tp4473
ssg13
I5768
sg14
F0.2487061
sg15
I8
sg16
(lp4474
g18
asg19
(dp4475
g21
(F0.4835
F0.0279
tp4476
sg23
(F-25.5165
F1.9891
tp4477
sg25
(F13.3416
Finf
tp4478
sg27
(F5.4897
F2.3502
tp4479
sg29
(F168.8932
F0.0294
tp4480
sg31
(F127.169
F0.0259
tp4481
sg33
(F0.3903
F0.1581
tp4482
sssS'NGC4939'
p4483
(dp4484
g3
I2
sg4
F3753.08710347615
sg5
(dp4485
g7
(F0.0
F0.0
tp4486
sg9
(F0.0
F0.0
tp4487
sg11
(F-1.565e-05
F2.389e-05
tp4488
ssg13
I5768
sg14
F0.6506739
sg15
I8
sg16
(lp4489
g18
asg19
(dp4490
g21
(F0.8633
F0.0273
tp4491
sg23
(F-87.9554
F6.1441
tp4492
sg25
(F14.25
Finf
tp4493
sg27
(F2695.6831
F9072.709
tp4494
sg29
(F166.8651
F0.0633
tp4495
sg31
(F124.8873
F0.0599
tp4496
sg33
(F-3.5164
F1.8108
tp4497
sssS'Mrk359'
p4498
(dp4499
g3
I2
sg4
F1434.340961353
sg5
(dp4500
g7
(F0.0
F0.0
tp4501
sg9
(F0.0
F0.0
tp4502
sg11
(F-4.296e-05
F2.896e-06
tp4503
ssg13
I5768
sg14
F0.2486721
sg15
I8
sg16
(lp4504
sg19
(dp4505
g21
(F0.4554
F0.0177
tp4506
sg23
(F47.7225
F1.0841
tp4507
sg25
(F1.7452
F0.133
tp4508
sg27
(F1.17
F0.0265
tp4509
sg29
(F166.3329
F0.009
tp4510
sg31
(F125.0302
F0.01
tp4511
sg33
(F-0.3346
F0.0041
tp4512
sssS'2MASXJ01073963-1139117'
p4513
(dp4514
g3
I2
sg4
F1416.91180389239
sg5
(dp4515
g7
(F0.0
F0.0
tp4516
sg9
(F0.0
F0.0
tp4517
sg11
(F-4.634e-05
F2.882e-06
tp4518
ssg13
I5768
sg14
F0.2456505
sg15
I8
sg16
(lp4519
sg19
(dp4520
g21
(F0.1676
F0.0318
tp4521
sg23
(F-26.0238
F1.2752
tp4522
sg25
(F3.3813
F0.4339
tp4523
sg27
(F1.2298
F0.0379
tp4524
sg29
(F170.3065
F0.0268
tp4525
sg31
(F126.4468
F0.0203
tp4526
sg33
(F0.8326
F0.009
tp4527
sssS'NGC5548'
p4528
(dp4529
g3
I2
sg4
F1424.5046515338
sg5
(dp4530
g7
(F0.0
F0.0
tp4531
sg9
(F0.0
F0.0
tp4532
sg11
(F-4.328e-05
F2.859e-06
tp4533
ssg13
I5768
sg14
F0.2469668
sg15
I8
sg16
(lp4534
sg19
(dp4535
g21
(F0.8595
F0.03
tp4536
sg23
(F85.9985
F7.0946
tp4537
sg25
(F4.5564
F0.4586
tp4538
sg27
(F0.727
F0.0239
tp4539
sg29
(F170.3062
F0.0169
tp4540
sg31
(F122.8224
F0.0176
tp4541
sg33
(F-0.1274
F0.0094
tp4542
sssS'MCG-07-03-007'
p4543
(dp4544
g3
I2
sg4
F1307.75070756519
sg5
(dp4545
g7
(F0.0
F0.0
tp4546
sg9
(F0.0
F0.0
tp4547
sg11
(F9.736e-06
F2.682e-06
tp4548
ssg13
I5768
sg14
F0.2267252
sg15
I8
sg16
(lp4549
sg19
(dp4550
g21
(F0.4063
F0.0474
tp4551
sg23
(F48.1497
F2.9057
tp4552
sg25
(F2.9044
F0.623
tp4553
sg27
(F1.011
F0.0528
tp4554
sg29
(F168.4826
F0.0219
tp4555
sg31
(F125.4193
F0.0259
tp4556
sg33
(F1.2252
F0.0115
tp4557
sssS'2MASXJ16481523-3035037'
p4558
(dp4559
g3
I2
sg4
F1208.48134718394
sg5
(dp4560
g7
(F0.0
F0.0
tp4561
sg9
(F0.0
F0.0
tp4562
sg11
(F-6.526e-05
F2.678e-06
tp4563
ssg13
I5768
sg14
F0.2095148
sg15
I8
sg16
(lp4564
g18
asg19
(dp4565
g21
(F0.1595
F0.0
tp4566
sg23
(F-55.1738
F0.0
tp4567
sg25
(F0.0163
Finf
tp4568
sg27
(F0.8479
F0.0
tp4569
sg29
(F165.4584
F0.0
tp4570
sg31
(F124.2622
F0.0
tp4571
sg33
(F2.6551
F0.0
tp4572
sssS'Mrk352'
p4573
(dp4574
g3
I2
sg4
F1401.33193020165
sg5
(dp4575
g7
(F0.0
F0.0
tp4576
sg9
(F0.0
F0.0
tp4577
sg11
(F1.278e-05
F2.956e-06
tp4578
ssg13
I5768
sg14
F0.2429494
sg15
I8
sg16
(lp4579
g57
ag18
asg19
(dp4580
g21
(F0.3459
F0.0293
tp4581
sg23
(F-42.3707
F1.9837
tp4582
sg25
(F0.0185
Finf
tp4583
sg27
(F16.4561
F6506.6548
tp4584
sg29
(F159.8937
F0.3244
tp4585
sg31
(F123.2371
F0.4082
tp4586
sg33
(F2.4501
F858.5911
tp4587
sssS'ESO578-G009'
p4588
(dp4589
g3
I2
sg4
F1496.00034266292
sg5
(dp4590
g7
(F0.0
F0.0
tp4591
sg9
(F0.0
F0.0
tp4592
sg11
(F-3.46e-05
F2.959e-06
tp4593
ssg13
I5768
sg14
F0.259362
sg15
I8
sg16
(lp4594
sg19
(dp4595
g21
(F0.1668
F0.0212
tp4596
sg23
(F-63.396
F0.7774
tp4597
sg25
(F1.1665
F0.1109
tp4598
sg27
(F3.8764
F0.0832
tp4599
sg29
(F166.1729
F0.0436
tp4600
sg31
(F124.3316
F0.0249
tp4601
sg33
(F1.1548
F0.0091
tp4602
sss.