(dp0
S'MCG-01-40-001'
p1
(dp2
S'nfix'
p3
I2
sS'chi2'
p4
F4087.939578093
sS'sky'
p5
(dp6
S'sky_dx'
p7
(F0.0
F0.0
tp8
sS'sky_dy'
p9
(F0.0
F0.0
tp10
sS'sky_center'
p11
(F-5.112e-05
F1.486e-05
tp12
ssS'ndof'
p13
I4993
sS'chi2nu'
p14
F0.8187342
sS'nfree'
p15
I8
sS'fit_notes'
p16
(lp17
S'At least one problematic parameter.'
p18
asS'sersic'
p19
(dp20
S'axis_ratio'
p21
(F0.1211
F0.0078
tp22
sS'pa'
p23
(F-17.1973
F0.435
tp24
sS'n'
p25
(F11.0366
Finf
tp26
sS're'
p27
(F5.86
F0.858
tp28
sS'center_x'
p29
(F92.1897
F0.0217
tp30
sS'center_y'
p31
(F70.7823
F0.0293
tp32
sS'mag'
p33
(F-1.346
F0.0593
tp34
sssS'IRAS05078+1626'
p35
(dp36
g3
I2
sg4
F7333.19214264967
sg5
(dp37
g7
(F0.0
F0.0
tp38
sg9
(F0.0
F0.0
tp39
sg11
(F-0.000172
F1.827e-05
tp40
ssg13
I5023
sg14
F1.459923
sg15
I8
sg16
(lp41
g18
asg19
(dp42
g21
(F0.004093
Finf
tp43
sg23
(F72.0006
F0.3796
tp44
sg25
(F14.6978
Finf
tp45
sg27
(F0.4764
Finf
tp46
sg29
(F92.5739
F1.1738
tp47
sg31
(F71.7344
F0.3766
tp48
sg33
(F0.453
F2.4834
tp49
sssS'2MASSJ17485512-3254521'
p50
(dp51
g3
I2
sg4
F61614.3614480842
sg5
(dp52
g7
(F0.0
F0.0
tp53
sg9
(F0.0
F0.0
tp54
sg11
(F-0.0147
F0.0004
tp55
ssg13
I4940
sg14
F12.47254
sg15
I8
sg16
(lp56
S'Source not detected.'
p57
ag18
asg19
(dp58
g21
(F0.9033
F0.0068
tp59
sg23
(F-32.1424
F5.6621
tp60
sg25
(F0.0233
Finf
tp61
sg27
(F41.1032
F471.2702
tp62
sg29
(F94.6019
F0.1583
tp63
sg31
(F71.0839
F0.2692
tp64
sg33
(F-4.9817
F24.8972
tp65
sssS'2MASXJ09360622-6548336'
p66
(dp67
g3
I2
sg4
F2605.75795515161
sg5
(dp68
g7
(F0.0
F0.0
tp69
sg9
(F0.0
F0.0
tp70
sg11
(F2.086e-05
F1.125e-05
tp71
ssg13
I5027
sg14
F0.5183525
sg15
I8
sg16
(lp72
g57
ag18
asg19
(dp73
g21
(F0.4875
F0.063
tp74
sg23
(F44.3687
F5.3642
tp75
sg25
(F0.0371
Finf
tp76
sg27
(F7.6936
F18.5637
tp77
sg29
(F85.4471
F0.3717
tp78
sg31
(F63.2002
F0.3659
tp79
sg33
(F1.9434
F0.0854
tp80
sssS'ESO121-IG028'
p81
(dp82
g3
I2
sg4
F4052.02362267541
sg5
(dp83
g7
(F0.0
F0.0
tp84
sg9
(F0.0
F0.0
tp85
sg11
(F6.337e-05
F1.369e-05
tp86
ssg13
I5014
sg14
F0.8081419
sg15
I8
sg16
(lp87
g57
asg19
(dp88
g21
(F0.6987
F0.0584
tp89
sg23
(F88.7406
F9.3462
tp90
sg25
(F0.1654
F0.1668
tp91
sg27
(F3.6657
F0.2481
tp92
sg29
(F91.8634
F0.203
tp93
sg31
(F70.601
F0.1652
tp94
sg33
(F1.8305
F0.0404
tp95
sssS'MCG+05-03-013'
p96
(dp97
g3
I2
sg4
F39258.6156822178
sg5
(dp98
g7
(F0.0
F0.0
tp99
sg9
(F0.0
F0.0
tp100
sg11
(F0.0007202
F4.431e-05
tp101
ssg13
I5024
sg14
F7.814215
sg15
I8
sg16
(lp102
g18
asg19
(dp103
g21
(F0.0385
Finf
tp104
sg23
(F56.0422
F1.2913
tp105
sg25
(F15.6783
Finf
tp106
sg27
(F9.3646
F8.6667
tp107
sg29
(F92.3935
F0.1194
tp108
sg31
(F69.8039
F0.0805
tp109
sg33
(F-0.936
F1.1445
tp110
sssS'UGC12741'
p111
(dp112
g3
I2
sg4
F2476.39394760694
sg5
(dp113
g7
(F0.0
F0.0
tp114
sg9
(F0.0
F0.0
tp115
sg11
(F-1.687e-05
F1.114e-05
tp116
ssg13
I5000
sg14
F0.4952788
sg15
I8
sg16
(lp117
sg19
(dp118
g21
(F0.4397
F0.0193
tp119
sg23
(F68.5673
F1.3259
tp120
sg25
(F0.9488
F0.1024
tp121
sg27
(F2.5497
F0.0513
tp122
sg29
(F92.1722
F0.0271
tp123
sg31
(F71.1777
F0.0203
tp124
sg33
(F0.0579
F0.0074
tp125
sssS'SBS0915+556'
p126
(dp127
g3
I2
sg4
F6198.51326532646
sg5
(dp128
g7
(F0.0
F0.0
tp129
sg9
(F0.0
F0.0
tp130
sg11
(F0.0001821
F1.766e-05
tp131
ssg13
I5012
sg14
F1.236735
sg15
I8
sg16
(lp132
g57
ag18
asg19
(dp133
g21
(F0.0592
Finf
tp134
sg23
(F-53.6582
F202698.5156
tp135
sg25
(F0.1353
F8580.0869
tp136
sg27
(F0.577
F796.0718
tp137
sg29
(F91.8272
F32937.0664
tp138
sg31
(F70.4708
F3732.1575
tp139
sg33
(F4.1908
F1797.7638
tp140
sssS'PG2304+042'
p141
(dp142
g3
I2
sg4
F3787.81958487992
sg5
(dp143
g7
(F0.0
F0.0
tp144
sg9
(F0.0
F0.0
tp145
sg11
(F-1.667e-05
F4.87e-06
tp146
ssg13
I5548
sg14
F0.682736
sg15
I8
sg16
(lp147
g57
ag18
asg19
(dp148
g21
(F0.1268
F0.3975
tp149
sg23
(F-9.765
F20.1973
tp150
sg25
(F19.9959
Finf
tp151
sg27
(F1.3415
F3.8891
tp152
sg29
(F110.6924
F0.9632
tp153
sg31
(F82.4903
F0.6047
tp154
sg33
(F3.838
F2.6501
tp155
sssS'NGC235A'
p156
(dp157
g3
I2
sg4
F66782.7678688128
sg5
(dp158
g7
(F0.0
F0.0
tp159
sg9
(F0.0
F0.0
tp160
sg11
(F-0.0005516
F2.602e-05
tp161
ssg13
I4961
sg14
F13.46155
sg15
I8
sg16
(lp162
g18
asg19
(dp163
g21
(F0.085
Finf
tp164
sg23
(F49.8815
F0.0
tp165
sg25
(F5.0346
F0.0
tp166
sg27
(F0.004276
Finf
tp167
sg29
(F92.6836
F0.0
tp168
sg31
(F70.9458
F0.0
tp169
sg33
(F-0.8425
F0.0
tp170
sssS'2MASXJ03502377-5018354'
p171
(dp172
g3
I2
sg4
F3713.28064841066
sg5
(dp173
g7
(F0.0
F0.0
tp174
sg9
(F0.0
F0.0
tp175
sg11
(F3.109e-05
F1.355e-05
tp176
ssg13
I5025
sg14
F0.7389613
sg15
I8
sg16
(lp177
sg19
(dp178
g21
(F0.7098
F0.5346
tp179
sg23
(F1.9516
F80.475
tp180
sg25
(F0.0587
F7.782
tp181
sg27
(F0.6676
F1.8791
tp182
sg29
(F92.1571
F0.033
tp183
sg31
(F71.2841
F0.0396
tp184
sg33
(F1.0292
F0.0185
tp185
sssS'MCG+06-16-028'
p186
(dp187
g3
I2
sg4
F2379.15930554316
sg5
(dp188
g7
(F0.0
F0.0
tp189
sg9
(F0.0
F0.0
tp190
sg11
(F3.977e-05
F1.1e-05
tp191
ssg13
I5005
sg14
F0.4753565
sg15
I8
sg16
(lp192
sg19
(dp193
g21
(F0.7002
F0.038
tp194
sg23
(F-27.1376
F3.9593
tp195
sg25
(F2.8772
F0.3721
tp196
sg27
(F0.7015
F0.0356
tp197
sg29
(F92.2518
F0.0181
tp198
sg31
(F70.7072
F0.0157
tp199
sg33
(F-0.7982
F0.0054
tp200
sssS'Mrk10'
p201
(dp202
g3
I2
sg4
F2525.61079763845
sg5
(dp203
g7
(F0.0
F0.0
tp204
sg9
(F0.0
F0.0
tp205
sg11
(F1.227e-05
F1.146e-05
tp206
ssg13
I4987
sg14
F0.5064389
sg15
I8
sg16
(lp207
sg19
(dp208
g21
(F0.4507
F0.0034
tp209
sg23
(F46.3222
F0.4038
tp210
sg25
(F0.2391
F0.0138
tp211
sg27
(F6.7956
F0.0455
tp212
sg29
(F93.2351
F0.0305
tp213
sg31
(F69.7373
F0.0297
tp214
sg33
(F-0.8076
F0.0061
tp215
sssS'CGCG312-012'
p216
(dp217
g3
I2
sg4
F2243.61416382098
sg5
(dp218
g7
(F0.0
F0.0
tp219
sg9
(F0.0
F0.0
tp220
sg11
(F-5.05e-05
F1.029e-05
tp221
ssg13
I5010
sg14
F0.4478272
sg15
I8
sg16
(lp222
g18
asg19
(dp223
g21
(F0.0786
Finf
tp224
sg23
(F51.4475
F6.8545
tp225
sg25
(F3.4916
F2.561
tp226
sg27
(F1.1265
F0.2241
tp227
sg29
(F91.848
F0.1157
tp228
sg31
(F71.6714
F0.1041
tp229
sg33
(F1.9014
F0.0385
tp230
sssS'NGC4138'
p231
(dp232
g3
I2
sg4
F4229.73335476134
sg5
(dp233
g7
(F0.0
F0.0
tp234
sg9
(F0.0
F0.0
tp235
sg11
(F0.0002045
F1.527e-05
tp236
ssg13
I4993
sg14
F0.8471327
sg15
I8
sg16
(lp237
sg19
(dp238
g21
(F0.5903
F0.0021
tp239
sg23
(F62.2335
F0.3363
tp240
sg25
(F0.1459
F0.0064
tp241
sg27
(F8.1945
F0.0258
tp242
sg29
(F93.1129
F0.0204
tp243
sg31
(F68.4589
F0.0175
tp244
sg33
(F-1.9131
F0.0036
tp245
sssS'UGC07064'
p246
(dp247
g3
I2
sg4
F16124.330671151
sg5
(dp248
g7
(F0.0
F0.0
tp249
sg9
(F0.0
F0.0
tp250
sg11
(F0.0001685
F3.01e-05
tp251
ssg13
I4998
sg14
F3.226157
sg15
I8
sg16
(lp252
sg19
(dp253
g21
(F0.7788
F0.024
tp254
sg23
(F79.782
F4.5743
tp255
sg25
(F0.6378
F0.0987
tp256
sg27
(F2.1757
F0.0472
tp257
sg29
(F93.813
F0.0293
tp258
sg31
(F69.6238
F0.0271
tp259
sg33
(F-1.0356
F0.0098
tp260
sssS'3C111.0'
p261
(dp262
g3
I2
sg4
F8155.52175215173
sg5
(dp263
g7
(F0.0
F0.0
tp264
sg9
(F0.0
F0.0
tp265
sg11
(F-0.0139
F0.0017
tp266
ssg13
I4986
sg14
F1.635684
sg15
I8
sg16
(lp267
g18
asg19
(dp268
g21
(F0.474
F0.0119
tp269
sg23
(F-56.8033
F1.9344
tp270
sg25
(F0.0462
Finf
tp271
sg27
(F64.5686
F1.8092
tp272
sg29
(F98.5967
F3.5725
tp273
sg31
(F62.9348
F2.73
tp274
sg33
(F-5.5098
F0.1329
tp275
sssS'Mrk18'
p276
(dp277
g3
I2
sg4
F2495.90346875666
sg5
(dp278
g7
(F0.0
F0.0
tp279
sg9
(F0.0
F0.0
tp280
sg11
(F4e-06
F1.063e-05
tp281
ssg13
I5005
sg14
F0.498682
sg15
I8
sg16
(lp282
sg19
(dp283
g21
(F0.4112
F0.0269
tp284
sg23
(F-18.1054
F1.4543
tp285
sg25
(F1.2758
F0.1647
tp286
sg27
(F1.221
F0.0404
tp287
sg29
(F90.4133
F0.012
tp288
sg31
(F71.8413
F0.0116
tp289
sg33
(F-0.7753
F0.0056
tp290
sssS'UGC03601'
p291
(dp292
g3
I2
sg4
F2033.20185696166
sg5
(dp293
g7
(F0.0
F0.0
tp294
sg9
(F0.0
F0.0
tp295
sg11
(F2.749e-06
F9.868e-06
tp296
ssg13
I4989
sg14
F0.407537
sg15
I8
sg16
(lp297
sg19
(dp298
g21
(F0.7906
F0.0331
tp299
sg23
(F-76.1829
F6.621
tp300
sg25
(F1.2269
F0.1993
tp301
sg27
(F1.7065
F0.0564
tp302
sg29
(F91.0631
F0.0274
tp303
sg31
(F70.4257
F0.0275
tp304
sg33
(F0.5194
F0.0098
tp305
sssS'MCG+00-09-042'
p306
(dp307
g3
I2
sg4
F37375.0755260982
sg5
(dp308
g7
(F0.0
F0.0
tp309
sg9
(F0.0
F0.0
tp310
sg11
(F-0.002079
F2.841e-05
tp311
ssg13
I4990
sg14
F7.489995
sg15
I8
sg16
(lp312
g18
asg19
(dp313
g21
(F0.1008
F5.0683
tp314
sg23
(F-78.9398
F202.0857
tp315
sg25
(F3.5761
F22.6356
tp316
sg27
(F0.0931
Finf
tp317
sg29
(F92.5292
F0.1983
tp318
sg31
(F68.8498
F3.9834
tp319
sg33
(F-1.6996
F2.432
tp320
sssS'CGCG367-009'
p321
(dp322
g3
I2
sg4
F2329.07301664352
sg5
(dp323
g7
(F0.0
F0.0
tp324
sg9
(F0.0
F0.0
tp325
sg11
(F-4.468e-05
F1.103e-05
tp326
ssg13
I4971
sg14
F0.4685321
sg15
I8
sg16
(lp327
g57
asg19
(dp328
g21
(F0.4221
F0.057
tp329
sg23
(F16.2258
F4.083
tp330
sg25
(F1.836
F0.5906
tp331
sg27
(F3.7675
F0.4285
tp332
sg29
(F93.7371
F0.0851
tp333
sg31
(F67.535
F0.1258
tp334
sg33
(F1.562
F0.0808
tp335
sssS'UGC03995A'
p336
(dp337
g3
I2
sg4
F4246.06162479492
sg5
(dp338
g7
(F0.0
F0.0
tp339
sg9
(F0.0
F0.0
tp340
sg11
(F-0.000254
F1.473e-05
tp341
ssg13
I4974
sg14
F0.8536513
sg15
I8
sg16
(lp342
sg19
(dp343
g21
(F0.5306
F0.006
tp344
sg23
(F15.9451
F0.7385
tp345
sg25
(F0.4973
F0.0209
tp346
sg27
(F9.372
F0.1256
tp347
sg29
(F90.2315
F0.0481
tp348
sg31
(F76.9871
F0.0797
tp349
sg33
(F-1.0533
F0.0095
tp350
sssS'MCG+06-24-008'
p351
(dp352
g3
I2
sg4
F11432.9865088723
sg5
(dp353
g7
(F0.0
F0.0
tp354
sg9
(F0.0
F0.0
tp355
sg11
(F8.877e-05
F2.317e-05
tp356
ssg13
I5018
sg14
F2.278395
sg15
I8
sg16
(lp357
g18
asg19
(dp358
g21
(F0.071
Finf
tp359
sg23
(F-21.6494
F2.1899
tp360
sg25
(F0.3952
F0.1136
tp361
sg27
(F2.3313
F0.1064
tp362
sg29
(F92.6061
F0.029
tp363
sg31
(F70.3065
F0.0502
tp364
sg33
(F-0.4292
F0.0335
tp365
sssS'MCG+01-57-016'
p366
(dp367
g3
I2
sg4
F2409.70452655315
sg5
(dp368
g7
(F0.0
F0.0
tp369
sg9
(F0.0
F0.0
tp370
sg11
(F1.32e-05
F1.1e-05
tp371
ssg13
I4917
sg14
F0.4900762
sg15
I8
sg16
(lp372
sg19
(dp373
g21
(F0.5645
F0.0394
tp374
sg23
(F30.5001
F3.3414
tp375
sg25
(F4.817
F0.973
tp376
sg27
(F1.2428
F0.0731
tp377
sg29
(F90.399
F0.024
tp378
sg31
(F69.5636
F0.0293
tp379
sg33
(F0.0678
F0.0307
tp380
sssS'NGC1365'
p381
(dp382
g3
I2
sg4
F1643746.96339683
sg5
(dp383
g7
(F0.0
F0.0
tp384
sg9
(F0.0
F0.0
tp385
sg11
(F-0.001884
F0.0001351
tp386
ssg13
I26074
sg14
F63.04161
sg15
I8
sg16
(lp387
sg19
(dp388
g21
(F0.7579
F0.0045
tp389
sg23
(F26.3501
F0.7705
tp390
sg25
(F6.2725
F0.7157
tp391
sg27
(F316.5374
F125.122
tp392
sg29
(F171.1544
F0.0616
tp393
sg31
(F174.498
F0.0753
tp394
sg33
(F-6.8421
F0.2611
tp395
sssS'2MASXJ15115979-2119015'
p396
(dp397
g3
I2
sg4
F4175.95362857184
sg5
(dp398
g7
(F0.0
F0.0
tp399
sg9
(F0.0
F0.0
tp400
sg11
(F-3.689e-05
F1.438e-05
tp401
ssg13
I5009
sg14
F0.8336901
sg15
I8
sg16
(lp402
g18
asg19
(dp403
g21
(F0.48
F0.1668
tp404
sg23
(F10.6775
F12.6542
tp405
sg25
(F3.8651
F2.8535
tp406
sg27
(F0.248
Finf
tp407
sg29
(F92.5357
F0.087
tp408
sg31
(F71.0701
F0.0519
tp409
sg33
(F-0.3338
F0.0277
tp410
sssS'ESO209-G012'
p411
(dp412
g3
I2
sg4
F3192.25195295787
sg5
(dp413
g7
(F0.0
F0.0
tp414
sg9
(F0.0
F0.0
tp415
sg11
(F-5.566e-05
F1.258e-05
tp416
ssg13
I5003
sg14
F0.6380675
sg15
I8
sg16
(lp417
sg19
(dp418
g21
(F0.4597
F0.0105
tp419
sg23
(F82.8744
F0.7642
tp420
sg25
(F0.7799
F0.0452
tp421
sg27
(F2.7319
F0.0271
tp422
sg29
(F93.1053
F0.0188
tp423
sg31
(F70.0762
F0.0149
tp424
sg33
(F-0.7841
F0.0045
tp425
sssS'2MASXJ05054575-2351139'
p426
(dp427
g3
I2
sg4
F2419.0478479853
sg5
(dp428
g7
(F0.0
F0.0
tp429
sg9
(F0.0
F0.0
tp430
sg11
(F-5.274e-05
F1.092e-05
tp431
ssg13
I4976
sg14
F0.4861431
sg15
I8
sg16
(lp432
g18
asg19
(dp433
g21
(F0.0986
Finf
tp434
sg23
(F-25.3991
F0.0
tp435
sg25
(F0.093
F0.0
tp436
sg27
(F0.6699
F0.0
tp437
sg29
(F90.9608
F0.0
tp438
sg31
(F68.9676
F0.0
tp439
sg33
(F2.3593
F0.0
tp440
sssS'UGC01479'
p441
(dp442
g3
I2
sg4
F3549.49616825982
sg5
(dp443
g7
(F0.0
F0.0
tp444
sg9
(F0.0
F0.0
tp445
sg11
(F-8.182e-05
F1.352e-05
tp446
ssg13
I5003
sg14
F0.7094736
sg15
I8
sg16
(lp447
sg19
(dp448
g21
(F0.1324
F0.0125
tp449
sg23
(F-56.2245
F0.4183
tp450
sg25
(F3.22
F0.156
tp451
sg27
(F2.4382
F0.0438
tp452
sg29
(F91.9412
F0.0149
tp453
sg31
(F70.0361
F0.0147
tp454
sg33
(F-1.2018
F0.0058
tp455
sssS'ESO263-G013'
p456
(dp457
g3
I2
sg4
F4006.67192501387
sg5
(dp458
g7
(F0.0
F0.0
tp459
sg9
(F0.0
F0.0
tp460
sg11
(F-0.009463
F0.0006484
tp461
ssg13
I4987
sg14
F0.8034233
sg15
I8
sg16
(lp462
g57
ag18
asg19
(dp463
g21
(F0.5701
F0.0113
tp464
sg23
(F-59.9747
F0.7022
tp465
sg25
(F0.0486
Finf
tp466
sg27
(F49.4497
F2.0796
tp467
sg29
(F102.5
F1.2263
tp468
sg31
(F69.113
F0.7057
tp469
sg33
(F-4.7502
F0.108
tp470
sssS'Mrk618'
p471
(dp472
g3
I2
sg4
F3284.39996655022
sg5
(dp473
g7
(F0.0
F0.0
tp474
sg9
(F0.0
F0.0
tp475
sg11
(F5.169e-05
F1.289e-05
tp476
ssg13
I4998
sg14
F0.6571429
sg15
I8
sg16
(lp477
sg19
(dp478
g21
(F0.3288
F0.015
tp479
sg23
(F-76.1815
F0.7264
tp480
sg25
(F1.7425
F0.0999
tp481
sg27
(F1.9017
F0.0268
tp482
sg29
(F92.7221
F0.0121
tp483
sg31
(F70.3387
F0.013
tp484
sg33
(F-1.1141
F0.0054
tp485
sssS'2MASXJ20101740+4800214'
p486
(dp487
g3
I2
sg4
F2370.72371167535
sg5
(dp488
g7
(F0.0
F0.0
tp489
sg9
(F0.0
F0.0
tp490
sg11
(F-0.0001405
F1.082e-05
tp491
ssg13
I4926
sg14
F0.4812675
sg15
I8
sg16
(lp492
g18
asg19
(dp493
g21
(F0.2006
F0.0247
tp494
sg23
(F19.9433
F1.4586
tp495
sg25
(F19.723
Finf
tp496
sg27
(F46.5911
F111.7561
tp497
sg29
(F93.6556
F0.0502
tp498
sg31
(F66.9651
F0.071
tp499
sg33
(F-0.2756
F0.7258
tp500
sssS'SWIFTJ212745.6+565636'
p501
(dp502
g3
I2
sg4
F2649.3302522787
sg5
(dp503
g7
(F0.0
F0.0
tp504
sg9
(F0.0
F0.0
tp505
sg11
(F-3.932e-05
F1.162e-05
tp506
ssg13
I5030
sg14
F0.5267058
sg15
I8
sg16
(lp507
g57
ag18
asg19
(dp508
g21
(F0.05
Finf
tp509
sg23
(F-68.0
F22.0581
tp510
sg25
(F12.609
Finf
tp511
sg27
(F0.7531
F1.3431
tp512
sg29
(F91.5584
F2.6069
tp513
sg31
(F76.6416
F0.2717
tp514
sg33
(F3.0734
F0.8728
tp515
sssS'WKK6471'
p516
(dp517
g3
I2
sg4
F3618.76751280107
sg5
(dp518
g7
(F0.0
F0.0
tp519
sg9
(F0.0
F0.0
tp520
sg11
(F7.437e-05
F1.353e-05
tp521
ssg13
I5037
sg14
F0.7184371
sg15
I8
sg16
(lp522
sg19
(dp523
g21
(F0.5835
F0.0342
tp524
sg23
(F30.7557
F3.5276
tp525
sg25
(F0.6488
F0.1172
tp526
sg27
(F3.2985
F0.1065
tp527
sg29
(F92.2393
F0.0607
tp528
sg31
(F76.8901
F0.0809
tp529
sg33
(F0.8732
F0.0207
tp530
sssS'PICTORA'
p531
(dp532
g3
I2
sg4
F2043.01476457796
sg5
(dp533
g7
(F0.0
F0.0
tp534
sg9
(F0.0
F0.0
tp535
sg11
(F2.104e-05
F9.989e-06
tp536
ssg13
I4997
sg14
F0.4088483
sg15
I8
sg16
(lp537
sg19
(dp538
g21
(F0.3428
F0.077
tp539
sg23
(F-13.5094
F4.2173
tp540
sg25
(F2.7487
F1.007
tp541
sg27
(F1.429
F0.1302
tp542
sg29
(F92.6307
F0.0583
tp543
sg31
(F69.6999
F0.0541
tp544
sg33
(F1.2768
F0.031
tp545
sssS'MCG+02-57-002'
p546
(dp547
g3
I2
sg4
F2234.365023682
sg5
(dp548
g7
(F0.0
F0.0
tp549
sg9
(F0.0
F0.0
tp550
sg11
(F-2.996e-06
F1.05e-05
tp551
ssg13
I5032
sg14
F0.4440312
sg15
I8
sg16
(lp552
sg19
(dp553
g21
(F0.4734
F0.0674
tp554
sg23
(F68.6686
F4.1885
tp555
sg25
(F1.1583
F0.4128
tp556
sg27
(F1.2404
F0.0776
tp557
sg29
(F93.2805
F0.0291
tp558
sg31
(F79.1889
F0.0321
tp559
sg33
(F0.7157
F0.0113
tp560
sssS'ESO490-IG026'
p561
(dp562
g3
I2
sg4
F2637.6181881182
sg5
(dp563
g7
(F0.0
F0.0
tp564
sg9
(F0.0
F0.0
tp565
sg11
(F1.61e-05
F1.159e-05
tp566
ssg13
I5002
sg14
F0.5273127
sg15
I8
sg16
(lp567
g18
asg19
(dp568
g21
(F0.2702
F0.0289
tp569
sg23
(F-46.9843
F1.6099
tp570
sg25
(F13.5799
Finf
tp571
sg27
(F0.6172
F0.0523
tp572
sg29
(F92.6298
F0.0274
tp573
sg31
(F69.8143
F0.0361
tp574
sg33
(F-0.5712
F0.0506
tp575
sssS'4U1344-60'
p576
(dp577
g3
I2
sg4
F101866.842122915
sg5
(dp578
g7
(F0.0
F0.0
tp579
sg9
(F0.0
F0.0
tp580
sg11
(F0.005081
F3.279e-05
tp581
ssg13
I5009
sg14
F20.33676
sg15
I8
sg16
(lp582
g18
asg19
(dp583
g21
(F0.056
Finf
tp584
sg23
(F-85.0494
F210.0298
tp585
sg25
(F1.8004
F12.1997
tp586
sg27
(F0.6055
F3.6738
tp587
sg29
(F91.8939
F0.1555
tp588
sg31
(F70.9575
F2.6063
tp589
sg33
(F-0.1166
F1.959
tp590
sssS'UM614'
p591
(dp592
g3
I2
sg4
F20020.466941791
sg5
(dp593
g7
(F0.0
F0.0
tp594
sg9
(F0.0
F0.0
tp595
sg11
(F-0.0006683
F2.861e-05
tp596
ssg13
I4965
sg14
F4.03232
sg15
I8
sg16
(lp597
g57
ag18
asg19
(dp598
g21
(F0.6094
F0.0
tp599
sg23
(F56.2359
F0.0
tp600
sg25
(F0.2309
F0.0
tp601
sg27
(F0.0134
Finf
tp602
sg29
(F92.2723
F0.0
tp603
sg31
(F69.6262
F0.0
tp604
sg33
(F2.6437
F0.0
tp605
sssS'UGC05881'
p606
(dp607
g3
I2
sg4
F3225.04866483626
sg5
(dp608
g7
(F0.0
F0.0
tp609
sg9
(F0.0
F0.0
tp610
sg11
(F7.33e-06
F1.274e-05
tp611
ssg13
I4992
sg14
F0.6460434
sg15
I8
sg16
(lp612
g18
asg19
(dp613
g21
(F0.3401
F0.0462
tp614
sg23
(F-55.6125
F2.3947
tp615
sg25
(F8.9668
F2.1187
tp616
sg27
(F0.4104
Finf
tp617
sg29
(F90.5
F0.0362
tp618
sg31
(F69.4591
F0.0415
tp619
sg33
(F-0.6758
F0.0295
tp620
sssS'WKK4438'
p621
(dp622
g3
I2
sg4
F18273.7319118241
sg5
(dp623
g7
(F0.0
F0.0
tp624
sg9
(F0.0
F0.0
tp625
sg11
(F-0.0262
F0.0008
tp626
ssg13
I5013
sg14
F3.645269
sg15
I8
sg16
(lp627
g18
asg19
(dp628
g21
(F0.0895
Finf
tp629
sg23
(F59.7527
F0.6693
tp630
sg25
(F0.0527
F0.0056
tp631
sg27
(F344.5465
F0.0002
tp632
sg29
(F109.2017
F0.0279
tp633
sg31
(F80.6681
F0.0333
tp634
sg33
(F-8.102
F0.027
tp635
sssS'ESO323-077'
p636
(dp637
g3
I2
sg4
F4584.70342912769
sg5
(dp638
g7
(F0.0
F0.0
tp639
sg9
(F0.0
F0.0
tp640
sg11
(F0.0001678
F1.551e-05
tp641
ssg13
I5007
sg14
F0.9156588
sg15
I8
sg16
(lp642
sg19
(dp643
g21
(F0.9064
F0.0297
tp644
sg23
(F78.2454
F10.0225
tp645
sg25
(F1.6196
F0.1595
tp646
sg27
(F0.8771
F0.0303
tp647
sg29
(F92.4452
F0.0134
tp648
sg31
(F70.9375
F0.0161
tp649
sg33
(F-1.981
F0.0062
tp650
sssS'NGC3281'
p651
(dp652
g3
I2
sg4
F17668.0848228812
sg5
(dp653
g7
(F0.0
F0.0
tp654
sg9
(F0.0
F0.0
tp655
sg11
(F0.0001084
F9.152e-06
tp656
ssg13
I5768
sg14
F3.063122
sg15
I8
sg16
(lp657
sg19
(dp658
g21
(F0.4185
F0.0093
tp659
sg23
(F80.4376
F0.6154
tp660
sg25
(F6.3305
F0.4073
tp661
sg27
(F2.6061
F0.0733
tp662
sg29
(F139.4445
F0.0172
tp663
sg31
(F138.6684
F0.018
tp664
sg33
(F-1.8814
F0.015
tp665
sssS'ESO103-035'
p666
(dp667
g3
I2
sg4
F348818.610626238
sg5
(dp668
g7
(F0.0
F0.0
tp669
sg9
(F0.0
F0.0
tp670
sg11
(F-0.0001281
F3.342e-05
tp671
ssg13
I4976
sg14
F70.1002
sg15
I8
sg16
(lp672
g18
asg19
(dp673
g21
(F0.236
F0.0364
tp674
sg23
(F6.2366
F2.0554
tp675
sg25
(F0.0339
Finf
tp676
sg27
(F7.2083
F9.5438
tp677
sg29
(F90.6616
F0.1137
tp678
sg31
(F71.7732
F0.2441
tp679
sg33
(F-1.0199
F0.0396
tp680
sssS'2MASXJ07595347+2323241'
p681
(dp682
g3
I2
sg4
F3127.8710511162
sg5
(dp683
g7
(F0.0
F0.0
tp684
sg9
(F0.0
F0.0
tp685
sg11
(F0.0001017
F1.268e-05
tp686
ssg13
I5014
sg14
F0.6238275
sg15
I8
sg16
(lp687
sg19
(dp688
g21
(F0.4083
F0.0103
tp689
sg23
(F-71.5598
F0.5988
tp690
sg25
(F1.6422
F0.0675
tp691
sg27
(F1.9981
F0.019
tp692
sg29
(F91.8845
F0.0108
tp693
sg31
(F71.3073
F0.01
tp694
sg33
(F-1.5647
F0.0042
tp695
sssS'MCG+06-49-019'
p696
(dp697
g3
I2
sg4
F3210.94241234237
sg5
(dp698
g7
(F0.0
F0.0
tp699
sg9
(F0.0
F0.0
tp700
sg11
(F4.52e-05
F1.332e-05
tp701
ssg13
I4963
sg14
F0.6469761
sg15
I8
sg16
(lp702
sg19
(dp703
g21
(F0.4247
F0.0097
tp704
sg23
(F13.9955
F1.1239
tp705
sg25
(F0.1722
F0.0463
tp706
sg27
(F5.7501
F0.1158
tp707
sg29
(F92.9287
F0.0543
tp708
sg31
(F68.3705
F0.0995
tp709
sg33
(F0.4355
F0.0168
tp710
sssS'Mrk6'
p711
(dp712
g3
I2
sg4
F15741.6569349245
sg5
(dp713
g7
(F0.0
F0.0
tp714
sg9
(F0.0
F0.0
tp715
sg11
(F0.001691
F1.219e-05
tp716
ssg13
I4953
sg14
F3.178206
sg15
I8
sg16
(lp717
sg19
(dp718
g21
(F0.5216
F0.6519
tp719
sg23
(F36.9445
F25.6394
tp720
sg25
(F0.0611
F18.0695
tp721
sg27
(F1.0283
F0.2019
tp722
sg29
(F92.7401
F0.0524
tp723
sg31
(F70.1923
F0.0663
tp724
sg33
(F0.4637
F0.0256
tp725
sssS'NGC3393'
p726
(dp727
g3
I2
sg4
F82881.0653526211
sg5
(dp728
g7
(F0.0
F0.0
tp729
sg9
(F0.0
F0.0
tp730
sg11
(F0.003824
F4.338e-05
tp731
ssg13
I4975
sg14
F16.65951
sg15
I8
sg16
(lp732
sg19
(dp733
g21
(F0.4894
F0.0605
tp734
sg23
(F63.5257
F4.8559
tp735
sg25
(F0.3378
F0.2251
tp736
sg27
(F2.9355
F0.1403
tp737
sg29
(F92.5876
F0.1121
tp738
sg31
(F69.7099
F0.0842
tp739
sg33
(F-0.4156
F0.0294
tp740
sssS'Mrk1310'
p741
(dp742
g3
I2
sg4
F3051.71296399216
sg5
(dp743
g7
(F0.0
F0.0
tp744
sg9
(F0.0
F0.0
tp745
sg11
(F3.064e-05
F1.197e-05
tp746
ssg13
I4983
sg14
F0.6124249
sg15
I8
sg16
(lp747
sg19
(dp748
g21
(F0.5078
F0.0902
tp749
sg23
(F19.1163
F8.4527
tp750
sg25
(F0.1542
F0.7827
tp751
sg27
(F1.7828
F0.4483
tp752
sg29
(F92.1179
F0.0537
tp753
sg31
(F70.2069
F0.0713
tp754
sg33
(F1.5884
F0.024
tp755
sssS'NGC5674'
p756
(dp757
g3
I2
sg4
F43256.3058383115
sg5
(dp758
g7
(F0.0
F0.0
tp759
sg9
(F0.0
F0.0
tp760
sg11
(F-0.0246
F0.0136
tp761
ssg13
I5011
sg14
F8.63227
sg15
I8
sg16
(lp762
sg19
(dp763
g21
(F0.4344
F0.0062
tp764
sg23
(F-65.4708
F0.5929
tp765
sg25
(F1.3622
F0.312
tp766
sg27
(F364.4221
F496.8597
tp767
sg29
(F93.9999
F0.2607
tp768
sg31
(F68.9045
F0.1039
tp769
sg33
(F-8.5822
F2.8376
tp770
sssS'Fairall1146'
p771
(dp772
g3
I2
sg4
F2470.12767564448
sg5
(dp773
g7
(F0.0
F0.0
tp774
sg9
(F0.0
F0.0
tp775
sg11
(F-5.608e-05
F1.115e-05
tp776
ssg13
I5015
sg14
F0.4925479
sg15
I8
sg16
(lp777
sg19
(dp778
g21
(F0.7596
F0.019
tp779
sg23
(F88.3134
F3.3116
tp780
sg25
(F1.5023
F0.123
tp781
sg27
(F2.0983
F0.0457
tp782
sg29
(F92.761
F0.0193
tp783
sg31
(F71.0037
F0.0179
tp784
sg33
(F-0.2248
F0.0086
tp785
sssS'ESO464-G016'
p786
(dp787
g16
(lp788
S'Fit failed'
p789
assS'2MASXJ09254750+6927532'
p790
(dp791
g3
I2
sg4
F3035.65620652608
sg5
(dp792
g7
(F0.0
F0.0
tp793
sg9
(F0.0
F0.0
tp794
sg11
(F4.824e-05
F1.228e-05
tp795
ssg13
I5002
sg14
F0.6068885
sg15
I8
sg16
(lp796
g57
asg19
(dp797
g21
(F0.2979
F0.2995
tp798
sg23
(F18.4835
F15.901
tp799
sg25
(F0.1992
F1.3257
tp800
sg27
(F1.8659
F0.6486
tp801
sg29
(F92.3176
F0.1092
tp802
sg31
(F69.3637
F0.1549
tp803
sg33
(F2.4873
F0.0503
tp804
sssS'2MASXJ00253292+6821442'
p805
(dp806
g3
I2
sg4
F2760.32714913031
sg5
(dp807
g7
(F0.0
F0.0
tp808
sg9
(F0.0
F0.0
tp809
sg11
(F-1.245e-05
F1.134e-05
tp810
ssg13
I5001
sg14
F0.551955
sg15
I8
sg16
(lp811
g18
asg19
(dp812
g21
(F0.9655
F0.1503
tp813
sg23
(F29.0078
F103.2891
tp814
sg25
(F0.00698
Finf
tp815
sg27
(F1.7082
F3.0572
tp816
sg29
(F91.8932
F0.0042
tp817
sg31
(F69.4817
F0.003
tp818
sg33
(F1.5225
F54.4377
tp819
sssS'CGCG122-055'
p820
(dp821
g3
I2
sg4
F16908.2844387581
sg5
(dp822
g7
(F0.0
F0.0
tp823
sg9
(F0.0
F0.0
tp824
sg11
(F-0.0186
F0.0001
tp825
ssg13
I4919
sg14
F3.437342
sg15
I8
sg16
(lp826
g18
asg19
(dp827
g21
(F0.1299
F0.0016
tp828
sg23
(F-59.0696
F0.3903
tp829
sg25
(F0.0479
Finf
tp830
sg27
(F179.7217
F0.0001
tp831
sg29
(F95.5104
F0.0151
tp832
sg31
(F67.0731
F0.0041
tp833
sg33
(F-6.6881
F0.0079
tp834
sssS'CGCG420-015'
p835
(dp836
g3
I2
sg4
F3443.33966370432
sg5
(dp837
g7
(F0.0
F0.0
tp838
sg9
(F0.0
F0.0
tp839
sg11
(F-1.708e-05
F1.292e-05
tp840
ssg13
I5017
sg14
F0.6863344
sg15
I8
sg16
(lp841
sg19
(dp842
g21
(F0.6521
F0.0602
tp843
sg23
(F-8.1231
F7.3074
tp844
sg25
(F1.7748
F0.5658
tp845
sg27
(F1.2013
F0.0734
tp846
sg29
(F92.0641
F0.0412
tp847
sg31
(F69.9068
F0.0438
tp848
sg33
(F0.6215
F0.0147
tp849
sssS'Mrk202'
p850
(dp851
g16
(lp852
g789
assS'ARK347'
p853
(dp854
g3
I2
sg4
F4285.34383979914
sg5
(dp855
g7
(F0.0
F0.0
tp856
sg9
(F0.0
F0.0
tp857
sg11
(F-4.895e-05
F1.472e-05
tp858
ssg13
I5009
sg14
F0.8555288
sg15
I8
sg16
(lp859
g18
asg19
(dp860
g21
(F0.0595
Finf
tp861
sg23
(F5.5589
F0.0
tp862
sg25
(F0.0673
F0.0
tp863
sg27
(F1.8742
F0.0
tp864
sg29
(F92.3505
F0.0
tp865
sg31
(F69.2316
F0.0
tp866
sg33
(F0.8954
F0.0
tp867
sssS'IC2461'
p868
(dp869
g3
I2
sg4
F2455.16814355664
sg5
(dp870
g7
(F0.0
F0.0
tp871
sg9
(F0.0
F0.0
tp872
sg11
(F7.065e-06
F1.118e-05
tp873
ssg13
I4993
sg14
F0.491722
sg15
I8
sg16
(lp874
g18
asg19
(dp875
g21
(F0.0759
Finf
tp876
sg23
(F45.0278
F0.1337
tp877
sg25
(F0.5984
F0.0195
tp878
sg27
(F5.6946
F0.0552
tp879
sg29
(F92.1029
F0.0154
tp880
sg31
(F69.5737
F0.0158
tp881
sg33
(F-1.5209
F0.0066
tp882
sssS'ESO362-18'
p883
(dp884
g3
I2
sg4
F2565.80754288195
sg5
(dp885
g7
(F0.0
F0.0
tp886
sg9
(F0.0
F0.0
tp887
sg11
(F1.959e-05
F1.197e-05
tp888
ssg13
I4930
sg14
F0.5204478
sg15
I8
sg16
(lp889
sg19
(dp890
g21
(F0.7276
F0.0107
tp891
sg23
(F36.2834
F1.8183
tp892
sg25
(F1.0382
F0.0598
tp893
sg27
(F2.446
F0.0345
tp894
sg29
(F92.7284
F0.0146
tp895
sg31
(F69.4043
F0.0178
tp896
sg33
(F-0.7295
F0.0047
tp897
sssS'NGC1052'
p898
(dp899
g3
I2
sg4
F3316.54997726722
sg5
(dp900
g7
(F0.0
F0.0
tp901
sg9
(F0.0
F0.0
tp902
sg11
(F0.0003779
F6.448e-06
tp903
ssg13
I4976
sg14
F0.6665092
sg15
I8
sg16
(lp904
sg19
(dp905
g21
(F0.4065
F0.0243
tp906
sg23
(F-10.2539
F1.668
tp907
sg25
(F1.435
F0.1874
tp908
sg27
(F2.8659
F0.0916
tp909
sg29
(F90.764
F0.0345
tp910
sg31
(F70.1604
F0.0471
tp911
sg33
(F0.2933
F0.0143
tp912
sssS'NGC513'
p913
(dp914
g3
I2
sg4
F3111.15834986655
sg5
(dp915
g7
(F0.0
F0.0
tp916
sg9
(F0.0
F0.0
tp917
sg11
(F8.85e-05
F1.294e-05
tp918
ssg13
I4997
sg14
F0.6226052
sg15
I8
sg16
(lp919
sg19
(dp920
g21
(F0.5152
F0.0056
tp921
sg23
(F15.7905
F0.5864
tp922
sg25
(F0.2451
F0.0261
tp923
sg27
(F2.9239
F0.0234
tp924
sg29
(F90.84
F0.0111
tp925
sg31
(F70.3008
F0.0147
tp926
sg33
(F-1.3554
F0.0034
tp927
sssS'NGC2992'
p928
(dp929
g3
I2
sg4
F39326.3194405536
sg5
(dp930
g7
(F0.0
F0.0
tp931
sg9
(F0.0
F0.0
tp932
sg11
(F0.0002975
F1.389e-05
tp933
ssg13
I5768
sg14
F6.818017
sg15
I8
sg16
(lp934
sg19
(dp935
g21
(F0.2749
F0.0062
tp936
sg23
(F-39.5879
F0.3599
tp937
sg25
(F3.9192
F0.1605
tp938
sg27
(F3.3971
F0.0569
tp939
sg29
(F158.1159
F0.0175
tp940
sg31
(F164.9765
F0.0227
tp941
sg33
(F-2.4147
F0.0059
tp942
sssS'ESO553-G022'
p943
(dp944
g3
I2
sg4
F2431.16029107491
sg5
(dp945
g7
(F0.0
F0.0
tp946
sg9
(F0.0
F0.0
tp947
sg11
(F-9.475e-05
F1.11e-05
tp948
ssg13
I4994
sg14
F0.4868162
sg15
I8
sg16
(lp949
sg19
(dp950
g21
(F0.688
F0.034
tp951
sg23
(F-35.9891
F4.2911
tp952
sg25
(F1.2968
F0.1708
tp953
sg27
(F3.5277
F0.1421
tp954
sg29
(F92.4645
F0.0495
tp955
sg31
(F67.9074
F0.0587
tp956
sg33
(F0.7256
F0.0329
tp957
sssS'Mrk279'
p958
(dp959
g3
I2
sg4
F9098.51106163712
sg5
(dp960
g7
(F0.0
F0.0
tp961
sg9
(F0.0
F0.0
tp962
sg11
(F2.258e-05
F2.187e-05
tp963
ssg13
I4946
sg14
F1.83957
sg15
I8
sg16
(lp964
sg19
(dp965
g21
(F0.379
F0.1975
tp966
sg23
(F84.17
F12.1965
tp967
sg25
(F1.2267
F1.3579
tp968
sg27
(F0.8395
F0.2563
tp969
sg29
(F90.7574
F0.0507
tp970
sg31
(F70.7135
F0.0705
tp971
sg33
(F0.423
F0.0189
tp972
sssS'NGC7679'
p973
(dp974
g3
I2
sg4
F4167.21821323427
sg5
(dp975
g7
(F0.0
F0.0
tp976
sg9
(F0.0
F0.0
tp977
sg11
(F0.0002316
F1.463e-05
tp978
ssg13
I5011
sg14
F0.8316141
sg15
I8
sg16
(lp979
sg19
(dp980
g21
(F0.9171
F0.0109
tp981
sg23
(F32.3059
F4.6201
tp982
sg25
(F1.4093
F0.0546
tp983
sg27
(F1.6402
F0.0166
tp984
sg29
(F92.6385
F0.0111
tp985
sg31
(F70.5322
F0.0119
tp986
sg33
(F-2.1936
F0.0042
tp987
sssS'ESO399-20'
p988
(dp989
g3
I2
sg4
F3524.08595751005
sg5
(dp990
g7
(F0.0
F0.0
tp991
sg9
(F0.0
F0.0
tp992
sg11
(F-1.585e-05
F1.33e-05
tp993
ssg13
I4984
sg14
F0.7070798
sg15
I8
sg16
(lp994
sg19
(dp995
g21
(F0.5796
F0.0119
tp996
sg23
(F17.4705
F1.3309
tp997
sg25
(F0.5855
F0.0574
tp998
sg27
(F2.8784
F0.0429
tp999
sg29
(F91.9327
F0.0206
tp1000
sg31
(F69.5586
F0.0281
tp1001
sg33
(F-0.3443
F0.0065
tp1002
sssS'2MASXJ04234080+0408017'
p1003
(dp1004
g3
I2
sg4
F117922.066633416
sg5
(dp1005
g7
(F0.0
F0.0
tp1006
sg9
(F0.0
F0.0
tp1007
sg11
(F-0.00365
F5.593e-05
tp1008
ssg13
I5000
sg14
F23.58441
sg15
I8
sg16
(lp1009
g18
asg19
(dp1010
g21
(F0.486
F0.0912
tp1011
sg23
(F-74.6279
F8.2889
tp1012
sg25
(F20.0
Finf
tp1013
sg27
(F2.8341
F4.2458
tp1014
sg29
(F94.1401
F0.0863
tp1015
sg31
(F68.7099
F0.1276
tp1016
sg33
(F-1.2922
F0.6662
tp1017
sssS'NGC1125'
p1018
(dp1019
g3
I2
sg4
F6349.49647653374
sg5
(dp1020
g7
(F0.0
F0.0
tp1021
sg9
(F0.0
F0.0
tp1022
sg11
(F-0.0002189
F1.708e-05
tp1023
ssg13
I4989
sg14
F1.272699
sg15
I8
sg16
(lp1024
g18
asg19
(dp1025
g21
(F0.0678
Finf
tp1026
sg23
(F6.7472
F0.5597
tp1027
sg25
(F19.9619
Finf
tp1028
sg27
(F2.562
F0.4119
tp1029
sg29
(F90.6226
F0.0576
tp1030
sg31
(F71.0557
F0.0369
tp1031
sg33
(F-1.2899
F0.1119
tp1032
sssS'HB890241+622'
p1033
(dp1034
g3
I2
sg4
F8776.37639206153
sg5
(dp1035
g7
(F0.0
F0.0
tp1036
sg9
(F0.0
F0.0
tp1037
sg11
(F-0.0003194
F2.003e-05
tp1038
ssg13
I5022
sg14
F1.747586
sg15
I8
sg16
(lp1039
g18
asg19
(dp1040
g21
(F0.1513
F0.0482
tp1041
sg23
(F1.9203
F3.0424
tp1042
sg25
(F12.0965
Finf
tp1043
sg27
(F5.7819
F6.2122
tp1044
sg29
(F92.7177
F0.1832
tp1045
sg31
(F70.5883
F0.1368
tp1046
sg33
(F0.4563
F0.5093
tp1047
sssS'2MASXiJ1802473-145454'
p1048
(dp1049
g3
I2
sg4
F7539.50988357002
sg5
(dp1050
g7
(F0.0
F0.0
tp1051
sg9
(F0.0
F0.0
tp1052
sg11
(F0.0003211
F1.95e-05
tp1053
ssg13
I4991
sg14
F1.510621
sg15
I8
sg16
(lp1054
g18
asg19
(dp1055
g21
(F0.9707
F0.0655
tp1056
sg23
(F-3.1913
F77.9224
tp1057
sg25
(F13.5413
Finf
tp1058
sg27
(F0.8242
F0.2396
tp1059
sg29
(F93.0281
F0.0456
tp1060
sg31
(F68.9085
F0.0484
tp1061
sg33
(F-0.9326
F0.0463
tp1062
sssS'Fairall49'
p1063
(dp1064
g3
I2
sg4
F2483.3486153447
sg5
(dp1065
g7
(F0.0
F0.0
tp1066
sg9
(F0.0
F0.0
tp1067
sg11
(F1.296e-05
F1.155e-05
tp1068
ssg13
I4946
sg14
F0.5020923
sg15
I8
sg16
(lp1069
g18
asg19
(dp1070
g21
(F0.6249
F0.0548
tp1071
sg23
(F-48.6376
F4.3702
tp1072
sg25
(F4.046
F0.7229
tp1073
sg27
(F0.4558
Finf
tp1074
sg29
(F90.8039
F0.0257
tp1075
sg31
(F70.4846
F0.0281
tp1076
sg33
(F-0.8772
F0.0067
tp1077
sssS'2MASXJ19380437-5109497'
p1078
(dp1079
g3
I2
sg4
F228486.651520773
sg5
(dp1080
g7
(F0.0
F0.0
tp1081
sg9
(F0.0
F0.0
tp1082
sg11
(F-0.0009556
F6.892e-05
tp1083
ssg13
I4943
sg14
F46.22429
sg15
I8
sg16
(lp1084
g18
asg19
(dp1085
g21
(F0.0274
Finf
tp1086
sg23
(F-56.6748
F7.9476
tp1087
sg25
(F5.497
F31.3185
tp1088
sg27
(F6.291
F27.2192
tp1089
sg29
(F80.0737
F3.6947
tp1090
sg31
(F72.0175
F2.1696
tp1091
sg33
(F1.0314
F0.9203
tp1092
sssS'IC0486'
p1093
(dp1094
g3
I2
sg4
F4810.87951528939
sg5
(dp1095
g7
(F0.0
F0.0
tp1096
sg9
(F0.0
F0.0
tp1097
sg11
(F-5.016e-05
F1.597e-05
tp1098
ssg13
I4957
sg14
F0.9705224
sg15
I8
sg16
(lp1099
sg19
(dp1100
g21
(F0.6066
F0.0271
tp1101
sg23
(F23.029
F2.7989
tp1102
sg25
(F2.9493
F0.3829
tp1103
sg27
(F2.4633
F0.1007
tp1104
sg29
(F92.4036
F0.0271
tp1105
sg31
(F69.6544
F0.0337
tp1106
sg33
(F-0.4027
F0.0259
tp1107
sssS'NGC7469'
p1108
(dp1109
g3
I2
sg4
F199036.986980203
sg5
(dp1110
g7
(F0.0
F0.0
tp1111
sg9
(F0.0
F0.0
tp1112
sg11
(F0.0007787
F3.903e-05
tp1113
ssg13
I5569
sg14
F35.74017
sg15
I8
sg16
(lp1114
sg19
(dp1115
g21
(F0.9001
F0.0211
tp1116
sg23
(F-62.0024
F6.216
tp1117
sg25
(F1.9148
F0.1373
tp1118
sg27
(F2.2679
F0.0528
tp1119
sg29
(F109.545
F0.0327
tp1120
sg31
(F85.8108
F0.0359
tp1121
sg33
(F-2.8538
F0.0111
tp1122
sssS'NGC7582'
p1123
(dp1124
g3
I2
sg4
F84393.2323624084
sg5
(dp1125
g7
(F0.0
F0.0
tp1126
sg9
(F0.0
F0.0
tp1127
sg11
(F0.0006132
F2.897e-05
tp1128
ssg13
I9498
sg14
F8.885368
sg15
I8
sg16
(lp1129
sg19
(dp1130
g21
(F0.2061
F0.0016
tp1131
sg23
(F-64.6756
F0.0983
tp1132
sg25
(F0.3527
F0.0084
tp1133
sg27
(F19.1722
F0.0835
tp1134
sg29
(F170.8781
F0.0715
tp1135
sg31
(F149.3675
F0.032
tp1136
sg33
(F-3.9111
F0.0049
tp1137
sssS'MCG-02-08-038'
p1138
(dp1139
g3
I2
sg4
F2293.68049056116
sg5
(dp1140
g7
(F0.0
F0.0
tp1141
sg9
(F0.0
F0.0
tp1142
sg11
(F6.512e-05
F1.04e-05
tp1143
ssg13
I5004
sg14
F0.4583694
sg15
I8
sg16
(lp1144
sg19
(dp1145
g21
(F0.5141
F0.017
tp1146
sg23
(F-21.2808
F1.8954
tp1147
sg25
(F0.2652
F0.0618
tp1148
sg27
(F4.9823
F0.1277
tp1149
sg29
(F91.0892
F0.0685
tp1150
sg31
(F71.9989
F0.1065
tp1151
sg33
(F0.9953
F0.019
tp1152
sssS'Mrk1392'
p1153
(dp1154
g3
I2
sg4
F2534.97586956642
sg5
(dp1155
g7
(F0.0
F0.0
tp1156
sg9
(F0.0
F0.0
tp1157
sg11
(F-0.0001611
F1.139e-05
tp1158
ssg13
I4976
sg14
F0.5094405
sg15
I8
sg16
(lp1159
sg19
(dp1160
g21
(F0.5522
F0.0157
tp1161
sg23
(F-52.6697
F1.5041
tp1162
sg25
(F0.5566
F0.0543
tp1163
sg27
(F3.9086
F0.0712
tp1164
sg29
(F91.0645
F0.0426
tp1165
sg31
(F68.8904
F0.0336
tp1166
sg33
(F0.2302
F0.0098
tp1167
sssS'NGC4619'
p1168
(dp1169
g3
I2
sg4
F5320.80942109814
sg5
(dp1170
g7
(F0.0
F0.0
tp1171
sg9
(F0.0
F0.0
tp1172
sg11
(F1.01e-05
F1.656e-05
tp1173
ssg13
I4960
sg14
F1.072744
sg15
I8
sg16
(lp1174
sg19
(dp1175
g21
(F0.6571
F0.0047
tp1176
sg23
(F80.8127
F0.7243
tp1177
sg25
(F0.1962
F0.0121
tp1178
sg27
(F5.5967
F0.0341
tp1179
sg29
(F92.1888
F0.0299
tp1180
sg31
(F70.9081
F0.0231
tp1181
sg33
(F-1.3604
F0.005
tp1182
sssS'MCG+08-11-011'
p1183
(dp1184
g3
I2
sg4
F9335.82322025667
sg5
(dp1185
g7
(F0.0
F0.0
tp1186
sg9
(F0.0
F0.0
tp1187
sg11
(F9.472e-05
F2.205e-05
tp1188
ssg13
I4990
sg14
F1.870906
sg15
I8
sg16
(lp1189
sg19
(dp1190
g21
(F0.2574
F0.004
tp1191
sg23
(F-69.2158
F0.2861
tp1192
sg25
(F0.064
F0.019
tp1193
sg27
(F11.8753
F0.0691
tp1194
sg29
(F92.219
F0.0846
tp1195
sg31
(F69.8515
F0.0365
tp1196
sg33
(F-1.1855
F0.0107
tp1197
sssS'IIZw083'
p1198
(dp1199
g3
I2
sg4
F2265.52797665187
sg5
(dp1200
g7
(F0.0
F0.0
tp1201
sg9
(F0.0
F0.0
tp1202
sg11
(F-7.421e-05
F1.068e-05
tp1203
ssg13
I5010
sg14
F0.4522012
sg15
I8
sg16
(lp1204
sg19
(dp1205
g21
(F0.7518
F0.032
tp1206
sg23
(F-28.8159
F4.291
tp1207
sg25
(F5.2814
F0.7391
tp1208
sg27
(F1.6948
F0.0745
tp1209
sg29
(F92.4971
F0.0253
tp1210
sg31
(F70.4401
F0.0268
tp1211
sg33
(F-0.3856
F0.0338
tp1212
sssS'Mrk509'
p1213
(dp1214
g3
I2
sg4
F668026.600798226
sg5
(dp1215
g7
(F0.0
F0.0
tp1216
sg9
(F0.0
F0.0
tp1217
sg11
(F0.0003737
F5.262e-05
tp1218
ssg13
I4948
sg14
F135.0094
sg15
I8
sg16
(lp1219
g18
asg19
(dp1220
g21
(F0.5752
F73.3388
tp1221
sg23
(F-7.5823
F10279.8799
tp1222
sg25
(F6.7667
F4023.9187
tp1223
sg27
(F0.0101
Finf
tp1224
sg29
(F93.0823
F24.843
tp1225
sg31
(F69.4044
F9.4342
tp1226
sg33
(F-0.449
F671.9702
tp1227
sssS'NGC6860'
p1228
(dp1229
g3
I2
sg4
F5145.97646477595
sg5
(dp1230
g7
(F0.0
F0.0
tp1231
sg9
(F0.0
F0.0
tp1232
sg11
(F9.712e-05
F5.986e-06
tp1233
ssg13
I5523
sg14
F0.9317358
sg15
I8
sg16
(lp1234
sg19
(dp1235
g21
(F0.6136
F0.0028
tp1236
sg23
(F-12.9061
F0.3565
tp1237
sg25
(F0.4329
F0.0094
tp1238
sg27
(F4.0186
F0.0145
tp1239
sg29
(F110.4543
F0.0085
tp1240
sg31
(F83.0627
F0.0116
tp1241
sg33
(F-1.0758
F0.0022
tp1242
sssS'NGC4051'
p1243
(dp1244
g3
I2
sg4
F105904.243400757
sg5
(dp1245
g7
(F0.0
F0.0
tp1246
sg9
(F0.0
F0.0
tp1247
sg11
(F9.927e-05
F9.815e-06
tp1248
ssg13
I33682
sg14
F3.144238
sg15
I8
sg16
(lp1249
sg19
(dp1250
g21
(F0.6756
F0.0025
tp1251
sg23
(F-43.2242
F0.337
tp1252
sg25
(F0.2067
F0.0029
tp1253
sg27
(F27.3113
F0.0888
tp1254
sg29
(F158.9893
F0.0628
tp1255
sg31
(F169.4702
F0.0733
tp1256
sg33
(F-3.7793
F0.0048
tp1257
sssS'2MASXJ07262635-3554214'
p1258
(dp1259
g3
I2
sg4
F3479.74963328277
sg5
(dp1260
g7
(F0.0
F0.0
tp1261
sg9
(F0.0
F0.0
tp1262
sg11
(F-0.0001697
F2.971e-05
tp1263
ssg13
I4985
sg14
F0.6980441
sg15
I8
sg16
(lp1264
g18
asg19
(dp1265
g21
(F0.8369
F0.0488
tp1266
sg23
(F26.8878
F9.5172
tp1267
sg25
(F19.9871
Finf
tp1268
sg27
(F286.1524
F1184.2924
tp1269
sg29
(F90.5958
F0.0507
tp1270
sg31
(F69.7353
F0.0585
tp1271
sg33
(F-1.8125
F1.4835
tp1272
sssS'NGC4748'
p1273
(dp1274
g3
I2
sg4
F5708.65162221517
sg5
(dp1275
g7
(F0.0
F0.0
tp1276
sg9
(F0.0
F0.0
tp1277
sg11
(F-0.0001519
F1.663e-05
tp1278
ssg13
I4994
sg14
F1.143102
sg15
I8
sg16
(lp1279
sg19
(dp1280
g21
(F0.5064
F0.0187
tp1281
sg23
(F-36.8024
F1.3808
tp1282
sg25
(F2.634
F0.2166
tp1283
sg27
(F2.5263
F0.0635
tp1284
sg29
(F90.3591
F0.0211
tp1285
sg31
(F70.3212
F0.0249
tp1286
sg33
(F-0.8938
F0.0142
tp1287
sssS'NGC4507'
p1288
(dp1289
g3
I2
sg4
F6724.40050988134
sg5
(dp1290
g7
(F0.0
F0.0
tp1291
sg9
(F0.0
F0.0
tp1292
sg11
(F-0.0002025
F3.227e-05
tp1293
ssg13
I4995
sg14
F1.346226
sg15
I8
sg16
(lp1294
sg19
(dp1295
g21
(F0.7294
F0.01
tp1296
sg23
(F-54.0685
F1.339
tp1297
sg25
(F2.538
F0.1181
tp1298
sg27
(F7.5784
F0.3309
tp1299
sg29
(F92.4534
F0.0198
tp1300
sg31
(F69.6614
F0.022
tp1301
sg33
(F-2.0817
F0.0311
tp1302
sssS'NGC2655'
p1303
(dp1304
g3
I2
sg4
F44178.0804198295
sg5
(dp1305
g7
(F0.0
F0.0
tp1306
sg9
(F0.0
F0.0
tp1307
sg11
(F0.003512
F1.24e-05
tp1308
ssg13
I4987
sg14
F8.858648
sg15
I8
sg16
(lp1309
sg19
(dp1310
g21
(F0.3401
F0.0379
tp1311
sg23
(F-80.1361
F2.1449
tp1312
sg25
(F0.8174
F0.1735
tp1313
sg27
(F3.1377
F0.1236
tp1314
sg29
(F91.9288
F0.0835
tp1315
sg31
(F69.4285
F0.06
tp1316
sg33
(F-0.7663
F0.0196
tp1317
sssS'NGC5106'
p1318
(dp1319
g3
I2
sg4
F3380.24412591382
sg5
(dp1320
g7
(F0.0
F0.0
tp1321
sg9
(F0.0
F0.0
tp1322
sg11
(F0.0001033
F1.33e-05
tp1323
ssg13
I5009
sg14
F0.6748341
sg15
I8
sg16
(lp1324
sg19
(dp1325
g21
(F0.5211
F0.0138
tp1326
sg23
(F-67.2594
F1.1102
tp1327
sg25
(F0.9066
F0.0703
tp1328
sg27
(F1.5857
F0.0254
tp1329
sg29
(F92.1302
F0.0081
tp1330
sg31
(F70.5285
F0.0092
tp1331
sg33
(F-1.5859
F0.0047
tp1332
sssS'WKK4374'
p1333
(dp1334
g3
I2
sg4
F18363.4631097137
sg5
(dp1335
g7
(F0.0
F0.0
tp1336
sg9
(F0.0
F0.0
tp1337
sg11
(F-0.008652
F0.0003069
tp1338
ssg13
I5015
sg14
F3.661707
sg15
I8
sg16
(lp1339
g18
asg19
(dp1340
g21
(F0.3008
F0.013
tp1341
sg23
(F58.0268
F1.1829
tp1342
sg25
(F0.0472
Finf
tp1343
sg27
(F91.054
F0.0017
tp1344
sg29
(F128.4398
F0.2736
tp1345
sg31
(F61.9057
F0.885
tp1346
sg33
(F-5.3131
F0.0702
tp1347
sssS'NGC3035'
p1348
(dp1349
g3
I2
sg4
F2633.65604354051
sg5
(dp1350
g7
(F0.0
F0.0
tp1351
sg9
(F0.0
F0.0
tp1352
sg11
(F6.572e-05
F1.167e-05
tp1353
ssg13
I5039
sg14
F0.5226545
sg15
I8
sg16
(lp1354
sg19
(dp1355
g21
(F0.7519
F0.0055
tp1356
sg23
(F15.2116
F1.0905
tp1357
sg25
(F0.4924
F0.0143
tp1358
sg27
(F5.9379
F0.0475
tp1359
sg29
(F91.8586
F0.027
tp1360
sg31
(F79.0585
F0.0338
tp1361
sg33
(F-1.0097
F0.0051
tp1362
sssS'NGC5252'
p1363
(dp1364
g3
I2
sg4
F3242.03412791942
sg5
(dp1365
g7
(F0.0
F0.0
tp1366
sg9
(F0.0
F0.0
tp1367
sg11
(F-8.964e-05
F1.232e-05
tp1368
ssg13
I5001
sg14
F0.6482772
sg15
I8
sg16
(lp1369
sg19
(dp1370
g21
(F0.3367
F0.0356
tp1371
sg23
(F59.6559
F2.1304
tp1372
sg25
(F2.6706
F0.5783
tp1373
sg27
(F4.3773
F0.4953
tp1374
sg29
(F92.5506
F0.0697
tp1375
sg31
(F70.5714
F0.0521
tp1376
sg33
(F0.7678
F0.0694
tp1377
sssS'IC1657'
p1378
(dp1379
g3
I2
sg4
F4576.45742669907
sg5
(dp1380
g7
(F0.0
F0.0
tp1381
sg9
(F0.0
F0.0
tp1382
sg11
(F0.0001544
F1.535e-05
tp1383
ssg13
I5032
sg14
F0.9094709
sg15
I8
sg16
(lp1384
sg19
(dp1385
g21
(F0.1715
F0.0037
tp1386
sg23
(F-67.2167
F0.1761
tp1387
sg25
(F0.5053
F0.0143
tp1388
sg27
(F5.8461
F0.0279
tp1389
sg29
(F93.2463
F0.0213
tp1390
sg31
(F72.3235
F0.0109
tp1391
sg33
(F-1.7843
F0.0037
tp1392
sssS'IRAS05218-1212'
p1393
(dp1394
g3
I2
sg4
F3116.12704698801
sg5
(dp1395
g7
(F0.0
F0.0
tp1396
sg9
(F0.0
F0.0
tp1397
sg11
(F-3.374e-05
F1.286e-05
tp1398
ssg13
I4934
sg14
F0.6315621
sg15
I8
sg16
(lp1399
g18
asg19
(dp1400
g21
(F0.1947
F0.4796
tp1401
sg23
(F49.3681
F13.7714
tp1402
sg25
(F0.0337
Finf
tp1403
sg27
(F1.0152
F3.7986
tp1404
sg29
(F89.2854
F0.0044
tp1405
sg31
(F71.3871
F0.0029
tp1406
sg33
(F1.7234
F0.0324
tp1407
sssS'ESO297-018'
p1408
(dp1409
g3
I2
sg4
F17491.1708058092
sg5
(dp1410
g7
(F0.0
F0.0
tp1411
sg9
(F0.0
F0.0
tp1412
sg11
(F0.0005579
F2.803e-05
tp1413
ssg13
I5014
sg14
F3.488467
sg15
I8
sg16
(lp1414
sg19
(dp1415
g21
(F0.1552
F0.0256
tp1416
sg23
(F80.2988
F0.8437
tp1417
sg25
(F0.2075
F0.039
tp1418
sg27
(F4.6231
F0.0825
tp1419
sg29
(F92.1767
F0.0651
tp1420
sg31
(F71.4167
F0.0372
tp1421
sg33
(F-0.7281
F0.0232
tp1422
sssS'NGC7465'
p1423
(dp1424
g3
I2
sg4
F35681.3656150949
sg5
(dp1425
g7
(F0.0
F0.0
tp1426
sg9
(F0.0
F0.0
tp1427
sg11
(F-0.0004206
F3.33e-05
tp1428
ssg13
I4988
sg14
F7.153441
sg15
I8
sg16
(lp1429
sg19
(dp1430
g21
(F0.8316
F0.0411
tp1431
sg23
(F-60.3251
F8.1294
tp1432
sg25
(F4.0961
F0.6149
tp1433
sg27
(F2.0281
F0.1049
tp1434
sg29
(F92.2752
F0.0479
tp1435
sg31
(F70.2333
F0.0499
tp1436
sg33
(F-1.7881
F0.0299
tp1437
sssS'CGCG229-015'
p1438
(dp1439
g3
I2
sg4
F2728.90578948523
sg5
(dp1440
g7
(F0.0
F0.0
tp1441
sg9
(F0.0
F0.0
tp1442
sg11
(F1.67e-05
F1.136e-05
tp1443
ssg13
I5014
sg14
F0.5442572
sg15
I8
sg16
(lp1444
g18
asg19
(dp1445
g21
(F0.0869
Finf
tp1446
sg23
(F13.8788
F2.0736
tp1447
sg25
(F2.3982
F0.7636
tp1448
sg27
(F2.6502
F0.2336
tp1449
sg29
(F91.8845
F0.0741
tp1450
sg31
(F70.823
F0.0942
tp1451
sg33
(F1.3518
F0.0314
tp1452
sssS'IC5063'
p1453
(dp1454
g3
I2
sg4
F8755.97545553933
sg5
(dp1455
g7
(F0.0
F0.0
tp1456
sg9
(F0.0
F0.0
tp1457
sg11
(F-0.0002041
F1.643e-05
tp1458
ssg13
I5455
sg14
F1.605128
sg15
I8
sg16
(lp1459
g18
asg19
(dp1460
g21
(F0.6436
F0.0086
tp1461
sg23
(F43.7158
F0.8218
tp1462
sg25
(F17.137
Finf
tp1463
sg27
(F32.37
F13.8069
tp1464
sg29
(F110.1448
F0.0119
tp1465
sg31
(F80.9692
F0.0123
tp1466
sg33
(F-2.2864
F0.1388
tp1467
sssS'ESO417-G006'
p1468
(dp1469
g3
I2
sg4
F2267.08373642787
sg5
(dp1470
g7
(F0.0
F0.0
tp1471
sg9
(F0.0
F0.0
tp1472
sg11
(F4.664e-05
F1.023e-05
tp1473
ssg13
I5013
sg14
F0.4522409
sg15
I8
sg16
(lp1474
g57
ag18
asg19
(dp1475
g21
(F0.1124
F0.0414
tp1476
sg23
(F33.2662
F2.5847
tp1477
sg25
(F16.551
Finf
tp1478
sg27
(F32.6564
F120.3615
tp1479
sg29
(F92.2928
F0.1414
tp1480
sg31
(F69.9287
F0.1465
tp1481
sg33
(F0.9653
F1.1703
tp1482
sssS'2MASXJ05580206-3820043'
p1483
(dp1484
g3
I2
sg4
F149162.959763302
sg5
(dp1485
g7
(F0.0
F0.0
tp1486
sg9
(F0.0
F0.0
tp1487
sg11
(F0.002372
F7.43e-05
tp1488
ssg13
I5005
sg14
F29.80279
sg15
I8
sg16
(lp1489
g57
ag18
asg19
(dp1490
g21
(F0.0183
Finf
tp1491
sg23
(F4.8963
F96.49
tp1492
sg25
(F19.9876
Finf
tp1493
sg27
(F4.5828
F492.0179
tp1494
sg29
(F97.2757
F50.1749
tp1495
sg31
(F40.1745
F806.9227
tp1496
sg33
(F3.5016
F53.0925
tp1497
sssS'NGC5290'
p1498
(dp1499
g3
I2
sg4
F5796.62316281828
sg5
(dp1500
g7
(F0.0
F0.0
tp1501
sg9
(F0.0
F0.0
tp1502
sg11
(F0.0001638
F1.524e-05
tp1503
ssg13
I6103
sg14
F0.949799
sg15
I8
sg16
(lp1504
sg19
(dp1505
g21
(F0.1298
F0.0012
tp1506
sg23
(F5.2788
F0.084
tp1507
sg25
(F0.9145
F0.0162
tp1508
sg27
(F13.3162
F0.1201
tp1509
sg29
(F93.1676
F0.0104
tp1510
sg31
(F68.9992
F0.0424
tp1511
sg33
(F-2.285
F0.0064
tp1512
sssS'IC4329A'
p1513
(dp1514
g3
I2
sg4
F2860.04537135495
sg5
(dp1515
g7
(F0.0
F0.0
tp1516
sg9
(F0.0
F0.0
tp1517
sg11
(F1.733e-07
F1.179e-05
tp1518
ssg13
I5020
sg14
F0.5697302
sg15
I8
sg16
(lp1519
g18
asg19
(dp1520
g21
(F0.0456
Finf
tp1521
sg23
(F-68.7813
F1.4699
tp1522
sg25
(F1.9044
F0.2473
tp1523
sg27
(F2.0081
F0.1802
tp1524
sg29
(F92.5615
F0.0825
tp1525
sg31
(F71.0035
F0.039
tp1526
sg33
(F0.1706
F0.1082
tp1527
sssS'NGC4388'
p1528
(dp1529
g3
I2
sg4
F18718.0354643301
sg5
(dp1530
g7
(F0.0
F0.0
tp1531
sg9
(F0.0
F0.0
tp1532
sg11
(F0.0003819
F1.937e-05
tp1533
ssg13
I6716
sg14
F2.787081
sg15
I8
sg16
(lp1534
sg19
(dp1535
g21
(F0.1472
F0.0017
tp1536
sg23
(F-8.4076
F0.0977
tp1537
sg25
(F0.2084
F0.0064
tp1538
sg27
(F11.8898
F0.0508
tp1539
sg29
(F176.2197
F0.0145
tp1540
sg31
(F172.9566
F0.0431
tp1541
sg33
(F-2.9785
F0.0046
tp1542
sssS'Fairall9'
p1543
(dp1544
g16
(lp1545
g789
assS'NGC788'
p1546
(dp1547
g3
I2
sg4
F2412.87444454051
sg5
(dp1548
g7
(F0.0
F0.0
tp1549
sg9
(F0.0
F0.0
tp1550
sg11
(F-7.654e-05
F2.348e-05
tp1551
ssg13
I4981
sg14
F0.4844157
sg15
I8
sg16
(lp1552
g18
asg19
(dp1553
g21
(F0.8563
F0.0336
tp1554
sg23
(F41.3855
F9.0749
tp1555
sg25
(F19.4919
Finf
tp1556
sg27
(F192.1165
F591.249
tp1557
sg29
(F91.6039
F0.0274
tp1558
sg31
(F69.4441
F0.0429
tp1559
sg33
(F-1.6159
F1.0882
tp1560
sssS'NGC2110'
p1561
(dp1562
g3
I2
sg4
F3467.76557340464
sg5
(dp1563
g7
(F0.0
F0.0
tp1564
sg9
(F0.0
F0.0
tp1565
sg11
(F0.0001085
F1.362e-05
tp1566
ssg13
I4992
sg14
F0.6946646
sg15
I8
sg16
(lp1567
sg19
(dp1568
g21
(F0.6235
F0.0134
tp1569
sg23
(F-87.7087
F1.3433
tp1570
sg25
(F2.512
F0.1341
tp1571
sg27
(F1.4637
F0.0222
tp1572
sg29
(F92.6862
F0.0144
tp1573
sg31
(F69.9568
F0.0159
tp1574
sg33
(F-1.6279
F0.0051
tp1575
sssS'NGC7603'
p1576
(dp1577
g3
I2
sg4
F4013.83289268149
sg5
(dp1578
g7
(F0.0
F0.0
tp1579
sg9
(F0.0
F0.0
tp1580
sg11
(F-0.0001074
F1.483e-05
tp1581
ssg13
I4992
sg14
F0.8040531
sg15
I8
sg16
(lp1582
sg19
(dp1583
g21
(F0.5167
F0.0208
tp1584
sg23
(F-69.113
F1.8189
tp1585
sg25
(F2.2411
F0.2156
tp1586
sg27
(F1.3158
F0.0297
tp1587
sg29
(F90.6408
F0.0198
tp1588
sg31
(F71.0742
F0.0219
tp1589
sg33
(F-0.9394
F0.0066
tp1590
sssS'Mrk739E'
p1591
(dp1592
g3
I2
sg4
F3379.38483707273
sg5
(dp1593
g7
(F0.0
F0.0
tp1594
sg9
(F0.0
F0.0
tp1595
sg11
(F-1.539e-06
F1.294e-05
tp1596
ssg13
I4973
sg14
F0.6795465
sg15
I8
sg16
(lp1597
sg19
(dp1598
g21
(F0.7364
F0.012
tp1599
sg23
(F-22.76
F1.9966
tp1600
sg25
(F0.937
F0.0658
tp1601
sg27
(F1.8929
F0.023
tp1602
sg29
(F92.8563
F0.0145
tp1603
sg31
(F68.6994
F0.0165
tp1604
sg33
(F-1.0383
F0.005
tp1605
sssS'IGRJ23308+7120'
p1606
(dp1607
g3
I2
sg4
F2051.59955344862
sg5
(dp1608
g7
(F0.0
F0.0
tp1609
sg9
(F0.0
F0.0
tp1610
sg11
(F-1.794e-05
F1.018e-05
tp1611
ssg13
I5007
sg14
F0.4097463
sg15
I8
sg16
(lp1612
sg19
(dp1613
g21
(F0.8925
F0.0303
tp1614
sg23
(F-65.1762
F11.2083
tp1615
sg25
(F1.0995
F0.1487
tp1616
sg27
(F1.8943
F0.0552
tp1617
sg29
(F91.2287
F0.0307
tp1618
sg31
(F70.5
F0.0313
tp1619
sg33
(F0.3852
F0.0099
tp1620
sssS'NGC3516'
p1621
(dp1622
g3
I2
sg4
F2951.46266502957
sg5
(dp1623
g7
(F0.0
F0.0
tp1624
sg9
(F0.0
F0.0
tp1625
sg11
(F-2.238e-05
F1.25e-05
tp1626
ssg13
I4920
sg14
F0.5998908
sg15
I8
sg16
(lp1627
sg19
(dp1628
g21
(F0.6088
F0.0484
tp1629
sg23
(F-57.6271
F4.3439
tp1630
sg25
(F2.9397
F0.573
tp1631
sg27
(F0.9589
F0.0425
tp1632
sg29
(F91.5161
F0.0284
tp1633
sg31
(F68.7644
F0.0308
tp1634
sg33
(F-0.0509
F0.0129
tp1635
sssS'Mrk766'
p1636
(dp1637
g3
I2
sg4
F2770.57463657862
sg5
(dp1638
g7
(F0.0
F0.0
tp1639
sg9
(F0.0
F0.0
tp1640
sg11
(F6.036e-05
F1.196e-05
tp1641
ssg13
I5002
sg14
F0.5538934
sg15
I8
sg16
(lp1642
sg19
(dp1643
g21
(F0.5913
F0.0295
tp1644
sg23
(F-6.8691
F2.7091
tp1645
sg25
(F3.3405
F0.3988
tp1646
sg27
(F0.7377
F0.0354
tp1647
sg29
(F93.0063
F0.0229
tp1648
sg31
(F69.923
F0.0204
tp1649
sg33
(F-1.044
F0.0061
tp1650
sssS'ESO374-G044'
p1651
(dp1652
g3
I2
sg4
F4489.8031762242
sg5
(dp1653
g7
(F0.0
F0.0
tp1654
sg9
(F0.0
F0.0
tp1655
sg11
(F-0.009601
F0.0003266
tp1656
ssg13
I4921
sg14
F0.9123762
sg15
I8
sg16
(lp1657
sg19
(dp1658
g21
(F0.6092
F0.0073
tp1659
sg23
(F-60.696
F0.8924
tp1660
sg25
(F0.053
F0.0047
tp1661
sg27
(F42.8845
F0.5161
tp1662
sg29
(F97.3556
F0.4878
tp1663
sg31
(F66.4271
F0.272
tp1664
sg33
(F-4.579
F0.0584
tp1665
sssS'2MASXJ20005575-1810274'
p1666
(dp1667
g3
I2
sg4
F2207.41404314845
sg5
(dp1668
g7
(F0.0
F0.0
tp1669
sg9
(F0.0
F0.0
tp1670
sg11
(F-2.537e-05
F1.024e-05
tp1671
ssg13
I5020
sg14
F0.4397239
sg15
I8
sg16
(lp1672
g18
asg19
(dp1673
g21
(F0.0924
Finf
tp1674
sg23
(F51.2102
F5.0259
tp1675
sg25
(F10.4343
Finf
tp1676
sg27
(F0.182
Finf
tp1677
sg29
(F92.9825
F0.0996
tp1678
sg31
(F70.3797
F0.0828
tp1679
sg33
(F0.5174
F0.2186
tp1680
sssS'MCG-01-30-041'
p1681
(dp1682
g3
I2
sg4
F2773.77281963377
sg5
(dp1683
g7
(F0.0
F0.0
tp1684
sg9
(F0.0
F0.0
tp1685
sg11
(F-2.186e-05
F1.153e-05
tp1686
ssg13
I4982
sg14
F0.5567589
sg15
I8
sg16
(lp1687
sg19
(dp1688
g21
(F0.3281
F0.021
tp1689
sg23
(F-68.7177
F1.3165
tp1690
sg25
(F3.6855
F0.3827
tp1691
sg27
(F1.2816
F0.0402
tp1692
sg29
(F92.276
F0.0214
tp1693
sg31
(F70.0382
F0.0215
tp1694
sg33
(F-0.507
F0.0082
tp1695
sssS'2MASXJ18570768-7828212'
p1696
(dp1697
g3
I2
sg4
F2869.72375613693
sg5
(dp1698
g7
(F0.0
F0.0
tp1699
sg9
(F0.0
F0.0
tp1700
sg11
(F6.276e-05
F1.198e-05
tp1701
ssg13
I4993
sg14
F0.5747494
sg15
I8
sg16
(lp1702
g18
asg19
(dp1703
g21
(F0.0456
Finf
tp1704
sg23
(F-77.3066
F12.0095
tp1705
sg25
(F1.9853
F1.6905
tp1706
sg27
(F1.1018
F0.309
tp1707
sg29
(F92.6
F0.3757
tp1708
sg31
(F70.2872
F0.1238
tp1709
sg33
(F1.2069
F1.3825
tp1710
sssS'CGCG300-062'
p1711
(dp1712
g3
I2
sg4
F2497.39530064426
sg5
(dp1713
g7
(F0.0
F0.0
tp1714
sg9
(F0.0
F0.0
tp1715
sg11
(F-5.055e-05
F1.108e-05
tp1716
ssg13
I5003
sg14
F0.4991795
sg15
I8
sg16
(lp1717
sg19
(dp1718
g21
(F0.7686
F0.0482
tp1719
sg23
(F-89.7637
F8.541
tp1720
sg25
(F0.1017
F0.271
tp1721
sg27
(F2.3897
F0.1668
tp1722
sg29
(F93.016
F0.0721
tp1723
sg31
(F68.8987
F0.0675
tp1724
sg33
(F1.3183
F0.1516
tp1725
sssS'Mrk477'
p1726
(dp1727
g3
I2
sg4
F161609.659716903
sg5
(dp1728
g7
(F0.0
F0.0
tp1729
sg9
(F0.0
F0.0
tp1730
sg11
(F-0.003126
F4.765e-05
tp1731
ssg13
I4954
sg14
F32.62206
sg15
I8
sg16
(lp1732
g18
asg19
(dp1733
g21
(F0.0404
Finf
tp1734
sg23
(F-70.4393
F180.0145
tp1735
sg25
(F0.7367
F13.6037
tp1736
sg27
(F0.008795
Finf
tp1737
sg29
(F91.754
F75.5883
tp1738
sg31
(F70.4261
F74.2417
tp1739
sg33
(F0.1013
F36.6058
tp1740
sssS'NGC5899'
p1741
(dp1742
g3
I2
sg4
F20017.4137406704
sg5
(dp1743
g7
(F0.0
F0.0
tp1744
sg9
(F0.0
F0.0
tp1745
sg11
(F0.000158
F2.976e-05
tp1746
ssg13
I5809
sg14
F3.445931
sg15
I8
sg16
(lp1747
sg19
(dp1748
g21
(F0.3157
F0.0019
tp1749
sg23
(F84.0669
F0.1922
tp1750
sg25
(F0.5289
F0.0111
tp1751
sg27
(F12.2792
F0.0814
tp1752
sg29
(F89.5
F0.0574
tp1753
sg31
(F70.6858
F0.0218
tp1754
sg33
(F-2.8359
F0.0051
tp1755
sssS'NGC3718'
p1756
(dp1757
g3
I2
sg4
F3833.37682771386
sg5
(dp1758
g7
(F0.0
F0.0
tp1759
sg9
(F0.0
F0.0
tp1760
sg11
(F6.448e-05
F1.195e-05
tp1761
ssg13
I6158
sg14
F0.6225035
sg15
I8
sg16
(lp1762
sg19
(dp1763
g21
(F0.105
F0.0018
tp1764
sg23
(F-4.3648
F0.1324
tp1765
sg25
(F1.8525
F0.0825
tp1766
sg27
(F21.9771
F0.9149
tp1767
sg29
(F93.0689
F0.0172
tp1768
sg31
(F70.5677
F0.0701
tp1769
sg33
(F-1.7135
F0.0285
tp1770
sssS'ARP151'
p1771
(dp1772
g3
I2
sg4
F2455.70075452805
sg5
(dp1773
g7
(F0.0
F0.0
tp1774
sg9
(F0.0
F0.0
tp1775
sg11
(F5.058e-06
F1.081e-05
tp1776
ssg13
I5011
sg14
F0.490062
sg15
I8
sg16
(lp1777
g57
ag18
asg19
(dp1778
g21
(F0.6174
F2321.4253
tp1779
sg23
(F-8.5724
F377878.0625
tp1780
sg25
(F1.3666
F5606.4517
tp1781
sg27
(F0.0101
Finf
tp1782
sg29
(F91.0206
F999.8698
tp1783
sg31
(F65.1783
F80394.3984
tp1784
sg33
(F3.3255
F773.1534
tp1785
sssS'Mrk704'
p1786
(dp1787
g3
I2
sg4
F3986.08143192621
sg5
(dp1788
g7
(F0.0
F0.0
tp1789
sg9
(F0.0
F0.0
tp1790
sg11
(F-0.008029
F0.0005293
tp1791
ssg13
I4982
sg14
F0.8000966
sg15
I8
sg16
(lp1792
sg19
(dp1793
g21
(F0.4905
F0.0122
tp1794
sg23
(F-65.418
F0.5907
tp1795
sg25
(F0.0509
F0.0051
tp1796
sg27
(F50.8928
F1.9636
tp1797
sg29
(F100.4993
F0.9404
tp1798
sg31
(F70.6756
F0.4761
tp1799
sg33
(F-4.5132
F0.0985
tp1800
sssS'MCG-06-30-015'
p1801
(dp1802
g3
I2
sg4
F9508.24948361642
sg5
(dp1803
g7
(F0.0
F0.0
tp1804
sg9
(F0.0
F0.0
tp1805
sg11
(F-0.0009807
F3.524e-05
tp1806
ssg13
I5010
sg14
F1.897854
sg15
I8
sg16
(lp1807
g18
asg19
(dp1808
g21
(F0.6995
F0.0505
tp1809
sg23
(F-78.5446
F5.834
tp1810
sg25
(F19.3042
Finf
tp1811
sg27
(F208.293
F813.4232
tp1812
sg29
(F92.5
F0.073
tp1813
sg31
(F70.4297
F0.0748
tp1814
sg33
(F-2.0054
F1.3758
tp1815
sssS'IISZ010'
p1816
(dp1817
g3
I2
sg4
F3842.86413763681
sg5
(dp1818
g7
(F0.0
F0.0
tp1819
sg9
(F0.0
F0.0
tp1820
sg11
(F-3.184e-05
F5.04e-06
tp1821
ssg13
I5462
sg14
F0.7035636
sg15
I8
sg16
(lp1822
g18
asg19
(dp1823
g21
(F0.0329
Finf
tp1824
sg23
(F83.2833
F0.0
tp1825
sg25
(F0.4247
F0.0
tp1826
sg27
(F0.9823
F0.0
tp1827
sg29
(F109.4823
F0.0
tp1828
sg31
(F79.6743
F0.0
tp1829
sg33
(F2.418
F0.0
tp1830
sssS'LEDA138501'
p1831
(dp1832
g3
I2
sg4
F4256.98820723409
sg5
(dp1833
g7
(F0.0
F0.0
tp1834
sg9
(F0.0
F0.0
tp1835
sg11
(F3.128e-05
F1.456e-05
tp1836
ssg13
I4984
sg14
F0.8541309
sg15
I8
sg16
(lp1837
g57
ag18
asg19
(dp1838
g21
(F0.0488
Finf
tp1839
sg23
(F16.9084
F26683212.0
tp1840
sg25
(F0.0889
F695923.625
tp1841
sg27
(F0.2908
Finf
tp1842
sg29
(F90.5438
F3221728.75
tp1843
sg31
(F62.0901
F1042785.25
tp1844
sg33
(F4.9342
F464.6623
tp1845
sssS'ESO426-G002'
p1846
(dp1847
g3
I2
sg4
F2409.15234218929
sg5
(dp1848
g7
(F0.0
F0.0
tp1849
sg9
(F0.0
F0.0
tp1850
sg11
(F-6.995e-05
F1.068e-05
tp1851
ssg13
I5006
sg14
F0.481253
sg15
I8
sg16
(lp1852
g57
asg19
(dp1853
g21
(F0.7374
F0.0385
tp1854
sg23
(F-34.0744
F6.2087
tp1855
sg25
(F1.0571
F0.1277
tp1856
sg27
(F6.3887
F0.4904
tp1857
sg29
(F92.7851
F0.111
tp1858
sg31
(F69.1983
F0.1341
tp1859
sg33
(F0.8376
F0.0664
tp1860
sssS'LCRSB232242.2-384320'
p1861
(dp1862
g3
I2
sg4
F2583.27317336261
sg5
(dp1863
g7
(F0.0
F0.0
tp1864
sg9
(F0.0
F0.0
tp1865
sg11
(F-8.182e-05
F1.133e-05
tp1866
ssg13
I5006
sg14
F0.5160354
sg15
I8
sg16
(lp1867
sg19
(dp1868
g21
(F0.7428
F0.0363
tp1869
sg23
(F-31.6503
F4.6621
tp1870
sg25
(F0.8463
F0.2125
tp1871
sg27
(F1.2988
F0.0527
tp1872
sg29
(F91.477
F0.0192
tp1873
sg31
(F69.4653
F0.0208
tp1874
sg33
(F-0.1134
F0.0071
tp1875
sssS'Mrk417'
p1876
(dp1877
g16
(lp1878
g57
ag789
assS'ESO565-G019'
p1879
(dp1880
g3
I2
sg4
F213909.732480256
sg5
(dp1881
g7
(F0.0
F0.0
tp1882
sg9
(F0.0
F0.0
tp1883
sg11
(F0.00701
F4.576e-05
tp1884
ssg13
I4934
sg14
F43.35422
sg15
I8
sg16
(lp1885
g18
asg19
(dp1886
g21
(F0.0886
Finf
tp1887
sg23
(F-24.8268
F258.3432
tp1888
sg25
(F0.0513
F2.6971
tp1889
sg27
(F2.2091
F24.2596
tp1890
sg29
(F91.8149
F0.1193
tp1891
sg31
(F67.0615
F0.0839
tp1892
sg33
(F-0.8358
F1.1127
tp1893
sssS'2MASXJ06561197-4919499'
p1894
(dp1895
g16
(lp1896
g57
ag789
assS'NGC5728'
p1897
(dp1898
g3
I2
sg4
F114950.51097214
sg5
(dp1899
g7
(F0.0
F0.0
tp1900
sg9
(F0.0
F0.0
tp1901
sg11
(F9.305e-05
F4.941e-05
tp1902
ssg13
I6055
sg14
F18.98439
sg15
I8
sg16
(lp1903
g18
asg19
(dp1904
g21
(F0.2522
F0.005
tp1905
sg23
(F-59.6064
F0.3624
tp1906
sg25
(F19.9985
Finf
tp1907
sg27
(F36.357
F20.1732
tp1908
sg29
(F109.7185
F0.0302
tp1909
sg31
(F84.5154
F0.0238
tp1910
sg33
(F-3.4321
F0.1655
tp1911
sssS'NGC3431'
p1912
(dp1913
g3
I2
sg4
F2428.54822246081
sg5
(dp1914
g7
(F0.0
F0.0
tp1915
sg9
(F0.0
F0.0
tp1916
sg11
(F0.0001171
F1.115e-05
tp1917
ssg13
I5010
sg14
F0.4847402
sg15
I8
sg16
(lp1918
sg19
(dp1919
g21
(F0.2275
F0.0043
tp1920
sg23
(F34.9548
F0.2688
tp1921
sg25
(F0.5473
F0.0252
tp1922
sg27
(F5.365
F0.0418
tp1923
sg29
(F92.6637
F0.0179
tp1924
sg31
(F70.4531
F0.0257
tp1925
sg33
(F-0.7533
F0.0054
tp1926
sssS'2MFGC02280'
p1927
(dp1928
g3
I2
sg4
F47584.6696839628
sg5
(dp1929
g7
(F0.0
F0.0
tp1930
sg9
(F0.0
F0.0
tp1931
sg11
(F0.001787
F1.21e-05
tp1932
ssg13
I4999
sg14
F9.518838
sg15
I8
sg16
(lp1933
g18
asg19
(dp1934
g21
(F0.0582
Finf
tp1935
sg23
(F-69.4315
F23.5054
tp1936
sg25
(F1.2674
F1.3584
tp1937
sg27
(F1.0669
F0.7989
tp1938
sg29
(F92.8696
F0.0779
tp1939
sg31
(F70.2443
F0.4857
tp1940
sg33
(F-0.524
F0.2873
tp1941
sssS'Mrk841'
p1942
(dp1943
g3
I2
sg4
F3907.61017589114
sg5
(dp1944
g7
(F0.0
F0.0
tp1945
sg9
(F0.0
F0.0
tp1946
sg11
(F-6.284e-07
F5.023e-06
tp1947
ssg13
I5504
sg14
F0.7099583
sg15
I8
sg16
(lp1948
g18
asg19
(dp1949
g21
(F0.8154
F28.2795
tp1950
sg23
(F-26.8275
F3272.0691
tp1951
sg25
(F4.6803
F1195.6074
tp1952
sg27
(F0.0168
Finf
tp1953
sg29
(F110.469
F0.1141
tp1954
sg31
(F83.5536
F0.0427
tp1955
sg33
(F1.8699
F151.9139
tp1956
sssS'2MASXJ21090996-0940147'
p1957
(dp1958
g3
I2
sg4
F3354.93085171739
sg5
(dp1959
g7
(F0.0
F0.0
tp1960
sg9
(F0.0
F0.0
tp1961
sg11
(F-8.67e-05
F1.304e-05
tp1962
ssg13
I4914
sg14
F0.6827291
sg15
I8
sg16
(lp1963
sg19
(dp1964
g21
(F0.2097
F0.1262
tp1965
sg23
(F-3.5405
F7.4385
tp1966
sg25
(F6.9699
F6.6768
tp1967
sg27
(F0.9665
F0.2834
tp1968
sg29
(F90.8175
F0.2213
tp1969
sg31
(F69.9991
F0.1197
tp1970
sg33
(F1.5577
F0.1591
tp1971
sssS'3C120'
p1972
(dp1973
g3
I2
sg4
F3605.33293299298
sg5
(dp1974
g7
(F0.0
F0.0
tp1975
sg9
(F0.0
F0.0
tp1976
sg11
(F-8.293e-05
F1.338e-05
tp1977
ssg13
I4994
sg14
F0.7219329
sg15
I8
sg16
(lp1978
sg19
(dp1979
g21
(F0.492
F0.0273
tp1980
sg23
(F-46.5527
F2.0545
tp1981
sg25
(F6.4647
F0.9332
tp1982
sg27
(F1.5983
F0.1041
tp1983
sg29
(F92.6611
F0.0209
tp1984
sg31
(F69.0135
F0.0266
tp1985
sg33
(F-0.5964
F0.0243
tp1986
sssS'NGC6552'
p1987
(dp1988
g3
I2
sg4
F3421.6370610965
sg5
(dp1989
g7
(F0.0
F0.0
tp1990
sg9
(F0.0
F0.0
tp1991
sg11
(F3.843e-05
F1.321e-05
tp1992
ssg13
I5011
sg14
F0.6828252
sg15
I8
sg16
(lp1993
g18
asg19
(dp1994
g21
(F0.0526
Finf
tp1995
sg23
(F-66.779
F2.4733
tp1996
sg25
(F2.5381
F0.2906
tp1997
sg27
(F1.1345
F0.0463
tp1998
sg29
(F92.2841
F0.0668
tp1999
sg31
(F69.5218
F0.0179
tp2000
sg33
(F-0.7564
F0.0603
tp2001
sssS'CGCG319-007'
p2002
(dp2003
g3
I2
sg4
F4290.23422029895
sg5
(dp2004
g7
(F0.0
F0.0
tp2005
sg9
(F0.0
F0.0
tp2006
sg11
(F2.912e-05
F1.44e-05
tp2007
ssg13
I5005
sg14
F0.8571897
sg15
I8
sg16
(lp2008
sg19
(dp2009
g21
(F0.3758
F0.101
tp2010
sg23
(F-68.7173
F4.3649
tp2011
sg25
(F0.3793
F0.4285
tp2012
sg27
(F1.4592
F0.1537
tp2013
sg29
(F92.2679
F0.0342
tp2014
sg31
(F70.5117
F0.0319
tp2015
sg33
(F0.4777
F0.0127
tp2016
sssS'MCG+04-48-002'
p2017
(dp2018
g3
I2
sg4
F15592.2846200967
sg5
(dp2019
g7
(F0.0
F0.0
tp2020
sg9
(F0.0
F0.0
tp2021
sg11
(F-0.0009656
F7.339e-06
tp2022
ssg13
I5023
sg14
F3.104178
sg15
I8
sg16
(lp2023
sg19
(dp2024
g21
(F0.4354
F0.0141
tp2025
sg23
(F23.5914
F0.9824
tp2026
sg25
(F1.416
F0.1105
tp2027
sg27
(F1.865
F0.0447
tp2028
sg29
(F92.5154
F0.0178
tp2029
sg31
(F71.8783
F0.0228
tp2030
sg33
(F-2.525
F0.0084
tp2031
sssS'ESO553-G043'
p2032
(dp2033
g3
I2
sg4
F2314.11855896037
sg5
(dp2034
g7
(F0.0
F0.0
tp2035
sg9
(F0.0
F0.0
tp2036
sg11
(F-0.0009544
F0.001448
tp2037
ssg13
I5002
sg14
F0.4626386
sg15
I8
sg16
(lp2038
g57
ag18
asg19
(dp2039
g21
(F0.3264
F0.2505
tp2040
sg23
(F-40.6715
F7.701
tp2041
sg25
(F0.1931
F0.1854
tp2042
sg27
(F112.6895
F73.7948
tp2043
sg29
(F51.836
Finf
tp2044
sg31
(F5.5548
Finf
tp2045
sg33
(F-3.5607
F2.2722
tp2046
sssS'NGC6221'
p2047
(dp2048
g3
I2
sg4
F199702.167857666
sg5
(dp2049
g7
(F0.0
F0.0
tp2050
sg9
(F0.0
F0.0
tp2051
sg11
(F-0.0005247
F0.0001857
tp2052
ssg13
I6853
sg14
F29.14084
sg15
I8
sg16
(lp2053
sg19
(dp2054
g21
(F0.7239
F0.0064
tp2055
sg23
(F-88.2382
F1.0213
tp2056
sg25
(F1.1852
F0.033
tp2057
sg27
(F14.3872
F0.3215
tp2058
sg29
(F91.8337
F0.0602
tp2059
sg31
(F64.4961
F0.0493
tp2060
sg33
(F-4.6335
F0.0225
tp2061
sssS'CGCG102-048'
p2062
(dp2063
g3
I2
sg4
F3721.8000725603
sg5
(dp2064
g7
(F0.0
F0.0
tp2065
sg9
(F0.0
F0.0
tp2066
sg11
(F-3.075e-05
F1.319e-05
tp2067
ssg13
I4982
sg14
F0.7470494
sg15
I8
sg16
(lp2068
g57
asg19
(dp2069
g21
(F0.4636
F0.0552
tp2070
sg23
(F-63.8764
F4.467
tp2071
sg25
(F1.2978
F0.3144
tp2072
sg27
(F5.3148
F0.6609
tp2073
sg29
(F92.2677
F0.1679
tp2074
sg31
(F70.2338
F0.1189
tp2075
sg33
(F1.3555
F0.0949
tp2076
sssS'ESO506-G027'
p2077
(dp2078
g3
I2
sg4
F2298.83917029774
sg5
(dp2079
g7
(F0.0
F0.0
tp2080
sg9
(F0.0
F0.0
tp2081
sg11
(F-1.494e-05
F1.083e-05
tp2082
ssg13
I5004
sg14
F0.4594003
sg15
I8
sg16
(lp2083
sg19
(dp2084
g21
(F0.1173
F0.011
tp2085
sg23
(F-31.6443
F0.3495
tp2086
sg25
(F1.3491
F0.0523
tp2087
sg27
(F4.7876
F0.053
tp2088
sg29
(F92.6027
F0.0173
tp2089
sg31
(F70.2865
F0.0293
tp2090
sg33
(F-0.4365
F0.0071
tp2091
sssS'IRAS05589+2828'
p2092
(dp2093
g3
I2
sg4
F3248.40571932437
sg5
(dp2094
g7
(F0.0
F0.0
tp2095
sg9
(F0.0
F0.0
tp2096
sg11
(F-5.721e-06
F1.275e-05
tp2097
ssg13
I4976
sg14
F0.6528146
sg15
I8
sg16
(lp2098
g18
asg19
(dp2099
g21
(F0.7834
F199.9268
tp2100
sg23
(F60.0013
F21639.9258
tp2101
sg25
(F3.0922
F2252.0581
tp2102
sg27
(F0.0222
Finf
tp2103
sg29
(F91.7318
F6.3002
tp2104
sg31
(F69.2807
F10.4762
tp2105
sg33
(F0.4389
F261.5038
tp2106
sssS'M106'
p2107
(dp2108
g3
I2
sg4
F530530.420078207
sg5
(dp2109
g7
(F0.0
F0.0
tp2110
sg9
(F0.0
F0.0
tp2111
sg11
(F0.002194
F0.0002665
tp2112
ssg13
I5002
sg14
F106.0637
sg15
I8
sg16
(lp2113
g57
ag18
asg19
(dp2114
g21
(F0.9984
F0.1035
tp2115
sg23
(F32.097
F1903.549
tp2116
sg25
(F19.9998
Finf
tp2117
sg27
(F3.867
F5.3172
tp2118
sg29
(F89.9427
F0.0572
tp2119
sg31
(F69.8844
F0.062
tp2120
sg33
(F-3.4128
F0.4725
tp2121
sssS'ESO549-G049'
p2122
(dp2123
g3
I2
sg4
F4937.96248834034
sg5
(dp2124
g7
(F0.0
F0.0
tp2125
sg9
(F0.0
F0.0
tp2126
sg11
(F-3.091e-05
F1.57e-05
tp2127
ssg13
I5015
sg14
F0.9846386
sg15
I8
sg16
(lp2128
sg19
(dp2129
g21
(F0.7823
F0.0136
tp2130
sg23
(F-16.56
F2.4149
tp2131
sg25
(F1.107
F0.073
tp2132
sg27
(F1.6588
F0.0206
tp2133
sg29
(F92.7667
F0.0141
tp2134
sg31
(F71.0218
F0.0156
tp2135
sg33
(F-1.5791
F0.0055
tp2136
sssS'ESO005-G004'
p2137
(dp2138
g3
I2
sg4
F16374.6593894743
sg5
(dp2139
g7
(F0.0
F0.0
tp2140
sg9
(F0.0
F0.0
tp2141
sg11
(F0.0001029
F6.588e-06
tp2142
ssg13
I5789
sg14
F2.828582
sg15
I8
sg16
(lp2143
sg19
(dp2144
g21
(F0.1016
F0.0013
tp2145
sg23
(F-30.7888
F0.0644
tp2146
sg25
(F0.5081
F0.0092
tp2147
sg27
(F12.2287
F0.0343
tp2148
sg29
(F92.2437
F0.0152
tp2149
sg31
(F66.6698
F0.0262
tp2150
sg33
(F-3.3697
F0.0035
tp2151
sssS'NGC5231'
p2152
(dp2153
g3
I2
sg4
F2495.35879004678
sg5
(dp2154
g7
(F0.0
F0.0
tp2155
sg9
(F0.0
F0.0
tp2156
sg11
(F5.09e-05
F1.116e-05
tp2157
ssg13
I4987
sg14
F0.5003727
sg15
I8
sg16
(lp2158
sg19
(dp2159
g21
(F0.7766
F0.0176
tp2160
sg23
(F0.3477
F3.0622
tp2161
sg25
(F0.4075
F0.0894
tp2162
sg27
(F1.8785
F0.0359
tp2163
sg29
(F90.2579
F0.0161
tp2164
sg31
(F70.7333
F0.0191
tp2165
sg33
(F-0.4353
F0.0053
tp2166
sssS'UGC12237'
p2167
(dp2168
g3
I2
sg4
F2344.62204111992
sg5
(dp2169
g7
(F0.0
F0.0
tp2170
sg9
(F0.0
F0.0
tp2171
sg11
(F-9.615e-05
F1.077e-05
tp2172
ssg13
I5005
sg14
F0.4684559
sg15
I8
sg16
(lp2173
g18
asg19
(dp2174
g21
(F0.0544
Finf
tp2175
sg23
(F48.0814
F0.349
tp2176
sg25
(F5.9342
F0.5229
tp2177
sg27
(F7.829
F0.7721
tp2178
sg29
(F92.4139
F0.0637
tp2179
sg31
(F70.4072
F0.0278
tp2180
sg33
(F-0.5077
F0.0369
tp2181
sssS'2MASXJ12335145-2103448'
p2182
(dp2183
g3
I2
sg4
F2424.06687476294
sg5
(dp2184
g7
(F0.0
F0.0
tp2185
sg9
(F0.0
F0.0
tp2186
sg11
(F-6.608e-05
F1.096e-05
tp2187
ssg13
I5002
sg14
F0.4846195
sg15
I8
sg16
(lp2188
g18
asg19
(dp2189
g21
(F0.0342
Finf
tp2190
sg23
(F34.4342
F9.584
tp2191
sg25
(F2.4411
F29.6326
tp2192
sg27
(F0.5994
F6.0703
tp2193
sg29
(F90.9037
F0.1359
tp2194
sg31
(F70.616
F0.1264
tp2195
sg33
(F1.5251
F3.0823
tp2196
sssS'Mrk885'
p2197
(dp2198
g3
I2
sg4
F2970.88412969255
sg5
(dp2199
g7
(F0.0
F0.0
tp2200
sg9
(F0.0
F0.0
tp2201
sg11
(F-2.129e-05
F1.206e-05
tp2202
ssg13
I4957
sg14
F0.5993311
sg15
I8
sg16
(lp2203
sg19
(dp2204
g21
(F0.5787
F0.021
tp2205
sg23
(F14.8601
F2.1684
tp2206
sg25
(F1.0949
F0.1318
tp2207
sg27
(F2.4446
F0.0629
tp2208
sg29
(F91.8335
F0.0271
tp2209
sg31
(F69.6081
F0.0348
tp2210
sg33
(F0.1361
F0.009
tp2211
sssS'2MASXJ03342453-1513402'
p2212
(dp2213
g16
(lp2214
g789
assS'ESO548-G081'
p2215
(dp2216
g3
I2
sg4
F2553.64008030533
sg5
(dp2217
g7
(F0.0
F0.0
tp2218
sg9
(F0.0
F0.0
tp2219
sg11
(F2.38e-05
F1.118e-05
tp2220
ssg13
I5020
sg14
F0.5086932
sg15
I8
sg16
(lp2221
sg19
(dp2222
g21
(F0.9988
F0.009
tp2223
sg23
(F-11.1475
F347.6413
tp2224
sg25
(F0.3477
F0.0199
tp2225
sg27
(F2.6475
F0.0238
tp2226
sg29
(F92.9938
F0.0158
tp2227
sg31
(F70.3965
F0.0165
tp2228
sg33
(F-0.6832
F0.0041
tp2229
sssS'KUG1141+371'
p2230
(dp2231
g3
I2
sg4
F2323.0074431693
sg5
(dp2232
g7
(F0.0
F0.0
tp2233
sg9
(F0.0
F0.0
tp2234
sg11
(F-0.0001279
F1.073e-05
tp2235
ssg13
I5009
sg14
F0.4637667
sg15
I8
sg16
(lp2236
g57
ag18
asg19
(dp2237
g21
(F0.3426
F0.044
tp2238
sg23
(F29.7304
F2.7631
tp2239
sg25
(F0.0332
Finf
tp2240
sg27
(F6.3861
F14.7073
tp2241
sg29
(F93.8191
F0.144
tp2242
sg31
(F68.4674
F0.2495
tp2243
sg33
(F2.0107
F0.0547
tp2244
sssS'MCG-01-13-025'
p2245
(dp2246
g16
(lp2247
g57
ag789
assS'LEDA214543'
p2248
(dp2249
g3
I2
sg4
F3016.64113386287
sg5
(dp2250
g7
(F0.0
F0.0
tp2251
sg9
(F0.0
F0.0
tp2252
sg11
(F-2.656e-05
F1.239e-05
tp2253
ssg13
I5012
sg14
F0.6018837
sg15
I8
sg16
(lp2254
g18
asg19
(dp2255
g21
(F0.219
F0.0236
tp2256
sg23
(F29.4048
F1.523
tp2257
sg25
(F19.7457
Finf
tp2258
sg27
(F440.7726
F1928.2321
tp2259
sg29
(F92.8504
F0.057
tp2260
sg31
(F70.1022
F0.0865
tp2261
sg33
(F-1.145
F1.5412
tp2262
sssS'2MASXJ11454045-1827149'
p2263
(dp2264
g3
I2
sg4
F40385.1527644602
sg5
(dp2265
g7
(F0.0
F0.0
tp2266
sg9
(F0.0
F0.0
tp2267
sg11
(F0.002935
F8.893e-06
tp2268
ssg13
I5020
sg14
F8.044851
sg15
I8
sg16
(lp2269
g18
asg19
(dp2270
g21
(F0.3061
F0.0
tp2271
sg23
(F36.8161
F0.0
tp2272
sg25
(F3.6874
F0.0
tp2273
sg27
(F0.007505
Finf
tp2274
sg29
(F93.5192
F0.0
tp2275
sg31
(F70.6436
F0.0
tp2276
sg33
(F2.2697
F0.0
tp2277
sssS'2MASXJ21355399+4728217'
p2278
(dp2279
g3
I2
sg4
F2653.65155638669
sg5
(dp2280
g7
(F0.0
F0.0
tp2281
sg9
(F0.0
F0.0
tp2282
sg11
(F-4.161e-05
F1.456e-05
tp2283
ssg13
I5023
sg14
F0.5283001
sg15
I8
sg16
(lp2284
g18
asg19
(dp2285
g21
(F0.508
F0.0367
tp2286
sg23
(F24.6261
F2.7588
tp2287
sg25
(F19.9978
Finf
tp2288
sg27
(F21.1716
F37.2079
tp2289
sg29
(F92.0703
F0.036
tp2290
sg31
(F71.262
F0.0456
tp2291
sg33
(F-0.6792
F0.5249
tp2292
sssS'2MASXJ12313717-4758019'
p2293
(dp2294
g3
I2
sg4
F2617.39562920549
sg5
(dp2295
g7
(F0.0
F0.0
tp2296
sg9
(F0.0
F0.0
tp2297
sg11
(F1.794e-05
F1.148e-05
tp2298
ssg13
I5033
sg14
F0.5200468
sg15
I8
sg16
(lp2299
sg19
(dp2300
g21
(F0.57
F0.0189
tp2301
sg23
(F57.2068
F1.6549
tp2302
sg25
(F0.1939
F0.1311
tp2303
sg27
(F1.8597
F0.07
tp2304
sg29
(F93.0676
F0.0126
tp2305
sg31
(F70.9157
F0.0111
tp2306
sg33
(F-0.5243
F0.0057
tp2307
sssS'NGC6300'
p2308
(dp2309
g3
I2
sg4
F92560.1148427878
sg5
(dp2310
g7
(F0.0
F0.0
tp2311
sg9
(F0.0
F0.0
tp2312
sg11
(F0.000541
F4.748e-05
tp2313
ssg13
I9391
sg14
F9.856257
sg15
I8
sg16
(lp2314
sg19
(dp2315
g21
(F0.5759
F0.0049
tp2316
sg23
(F32.7321
F0.4349
tp2317
sg25
(F0.1504
F0.0045
tp2318
sg27
(F20.793
F0.1594
tp2319
sg29
(F92.6755
F0.0719
tp2320
sg31
(F70.0422
F0.1182
tp2321
sg33
(F-3.9029
F0.0068
tp2322
sssS'NGC3786'
p2323
(dp2324
g3
I2
sg4
F54709.0448548008
sg5
(dp2325
g7
(F0.0
F0.0
tp2326
sg9
(F0.0
F0.0
tp2327
sg11
(F0.0008219
F5.517e-05
tp2328
ssg13
I4982
sg14
F10.98134
sg15
I8
sg16
(lp2329
sg19
(dp2330
g21
(F0.4052
F0.0293
tp2331
sg23
(F-23.6056
F1.8645
tp2332
sg25
(F1.2532
F0.1897
tp2333
sg27
(F3.4177
F0.1361
tp2334
sg29
(F90.9348
F0.0544
tp2335
sg31
(F70.241
F0.0713
tp2336
sg33
(F-1.2607
F0.0182
tp2337
sssS'Fairall51'
p2338
(dp2339
g3
I2
sg4
F12760.6884356354
sg5
(dp2340
g7
(F0.0
F0.0
tp2341
sg9
(F0.0
F0.0
tp2342
sg11
(F-0.0004621
F2.607e-05
tp2343
ssg13
I4939
sg14
F2.583658
sg15
I8
sg16
(lp2344
g18
asg19
(dp2345
g21
(F0.2005
F0.0293
tp2346
sg23
(F-49.4549
F1.4472
tp2347
sg25
(F19.9803
Finf
tp2348
sg27
(F6.2239
F5.7526
tp2349
sg29
(F92.4458
F0.056
tp2350
sg31
(F70.0154
F0.061
tp2351
sg33
(F-1.0747
F0.284
tp2352
sssS'Mrk817'
p2353
(dp2354
g3
I2
sg4
F2323.23657914442
sg5
(dp2355
g7
(F0.0
F0.0
tp2356
sg9
(F0.0
F0.0
tp2357
sg11
(F-5.791e-05
F1.074e-05
tp2358
ssg13
I5018
sg14
F0.4629806
sg15
I8
sg16
(lp2359
sg19
(dp2360
g21
(F0.6209
F0.021
tp2361
sg23
(F-12.1059
F2.4362
tp2362
sg25
(F1.5826
F0.1866
tp2363
sg27
(F1.3083
F0.0298
tp2364
sg29
(F92.8114
F0.0174
tp2365
sg31
(F71.022
F0.0188
tp2366
sg33
(F-0.4143
F0.0059
tp2367
sssS'NGC2885'
p2368
(dp2369
g3
I2
sg4
F28461.9448187241
sg5
(dp2370
g7
(F0.0
F0.0
tp2371
sg9
(F0.0
F0.0
tp2372
sg11
(F0.00129
F3.339e-05
tp2373
ssg13
I5015
sg14
F5.675363
sg15
I8
sg16
(lp2374
g18
asg19
(dp2375
g21
(F0.0915
Finf
tp2376
sg23
(F87.3353
F16488.1426
tp2377
sg25
(F2.4671
F211.7343
tp2378
sg27
(F0.2283
Finf
tp2379
sg29
(F91.3124
F5.9611
tp2380
sg31
(F70.0712
F254.6032
tp2381
sg33
(F0.8087
F69.3264
tp2382
sssS'ARP102B'
p2383
(dp2384
g3
I2
sg4
F2472.78043542726
sg5
(dp2385
g7
(F0.0
F0.0
tp2386
sg9
(F0.0
F0.0
tp2387
sg11
(F-0.007704
F0.0005643
tp2388
ssg13
I4980
sg14
F0.4965422
sg15
I8
sg16
(lp2389
g57
ag18
asg19
(dp2390
g21
(F0.4731
F0.0156
tp2391
sg23
(F-68.7287
F0.7436
tp2392
sg25
(F0.0478
Finf
tp2393
sg27
(F59.0832
F3.8519
tp2394
sg29
(F110.4977
F2.2009
tp2395
sg31
(F73.7926
F0.8087
tp2396
sg33
(F-4.7067
F0.1237
tp2397
sssS'IC4518A'
p2398
(dp2399
g3
I2
sg4
F34168.4512301054
sg5
(dp2400
g7
(F0.0
F0.0
tp2401
sg9
(F0.0
F0.0
tp2402
sg11
(F0.0007143
F4.11e-05
tp2403
ssg13
I4854
sg14
F7.039236
sg15
I8
sg16
(lp2404
g18
asg19
(dp2405
g21
(F0.2392
F0.0052
tp2406
sg23
(F14.0661
F0.2763
tp2407
sg25
(F0.0274
Finf
tp2408
sg27
(F13.5562
F0.4356
tp2409
sg29
(F91.6357
F0.0368
tp2410
sg31
(F79.5096
F0.1108
tp2411
sg33
(F-2.0655
F0.0128
tp2412
sssS'MCG-03-34-064'
p2413
(dp2414
g3
I2
sg4
F3018.91017460167
sg5
(dp2415
g7
(F0.0
F0.0
tp2416
sg9
(F0.0
F0.0
tp2417
sg11
(F-6.243e-06
F1.234e-05
tp2418
ssg13
I5009
sg14
F0.6026972
sg15
I8
sg16
(lp2419
sg19
(dp2420
g21
(F0.5693
F0.0193
tp2421
sg23
(F-19.7962
F1.6926
tp2422
sg25
(F1.582
F0.1447
tp2423
sg27
(F1.1901
F0.0299
tp2424
sg29
(F92.5789
F0.0139
tp2425
sg31
(F70.9646
F0.015
tp2426
sg33
(F-1.1472
F0.0054
tp2427
sssS'NGC4180'
p2428
(dp2429
g3
I2
sg4
F4703.39207587734
sg5
(dp2430
g7
(F0.0
F0.0
tp2431
sg9
(F0.0
F0.0
tp2432
sg11
(F3.211e-05
F1.591e-05
tp2433
ssg13
I5019
sg14
F0.9371174
sg15
I8
sg16
(lp2434
sg19
(dp2435
g21
(F0.3165
F0.0037
tp2436
sg23
(F-64.3211
F0.218
tp2437
sg25
(F0.7151
F0.0109
tp2438
sg27
(F4.0975
F0.0161
tp2439
sg29
(F93.0571
F0.0111
tp2440
sg31
(F70.3235
F0.0087
tp2441
sg33
(F-2.3743
F0.0025
tp2442
sssS'NGC3227'
p2443
(dp2444
g3
I2
sg4
F36348.8011176704
sg5
(dp2445
g7
(F0.0
F0.0
tp2446
sg9
(F0.0
F0.0
tp2447
sg11
(F-0.0002726
F3.205e-05
tp2448
ssg13
I10808
sg14
F3.363138
sg15
I8
sg16
(lp2449
sg19
(dp2450
g21
(F0.4406
F0.0039
tp2451
sg23
(F55.811
F0.3609
tp2452
sg25
(F3.116
F0.1635
tp2453
sg27
(F26.5199
F1.6518
tp2454
sg29
(F175.7598
F0.0341
tp2455
sg31
(F166.15
F0.0289
tp2456
sg33
(F-3.5769
F0.0451
tp2457
sssS'NGC7172'
p2458
(dp2459
g3
I2
sg4
F11309.3822977407
sg5
(dp2460
g7
(F0.0
F0.0
tp2461
sg9
(F0.0
F0.0
tp2462
sg11
(F4.806e-05
F1.858e-05
tp2463
ssg13
I5768
sg14
F1.960711
sg15
I8
sg16
(lp2464
sg19
(dp2465
g21
(F0.2554
F0.0055
tp2466
sg23
(F50.9338
F0.3538
tp2467
sg25
(F2.0308
F0.0828
tp2468
sg27
(F3.7633
F0.0525
tp2469
sg29
(F127.1983
F0.0231
tp2470
sg31
(F110.9602
F0.0219
tp2471
sg33
(F-2.5076
F0.0066
tp2472
sssS'ESO439-G009'
p2473
(dp2474
g3
I2
sg4
F3429.55831332993
sg5
(dp2475
g7
(F0.0
F0.0
tp2476
sg9
(F0.0
F0.0
tp2477
sg11
(F0.0001104
F1.329e-05
tp2478
ssg13
I5008
sg14
F0.6848159
sg15
I8
sg16
(lp2479
sg19
(dp2480
g21
(F0.2199
F0.0105
tp2481
sg23
(F-4.8949
F0.4531
tp2482
sg25
(F0.1521
F0.0255
tp2483
sg27
(F4.4276
F0.0472
tp2484
sg29
(F93.2452
F0.0188
tp2485
sg31
(F69.8904
F0.0348
tp2486
sg33
(F-0.5007
F0.0068
tp2487
sssS'MCG-01-33-063'
p2488
(dp2489
g3
I2
sg4
F2462.69277841188
sg5
(dp2490
g7
(F0.0
F0.0
tp2491
sg9
(F0.0
F0.0
tp2492
sg11
(F-2.374e-05
F1.099e-05
tp2493
ssg13
I4999
sg14
F0.4926371
sg15
I8
sg16
(lp2494
sg19
(dp2495
g21
(F0.1687
F0.0102
tp2496
sg23
(F76.6588
F0.3753
tp2497
sg25
(F0.5805
F0.0334
tp2498
sg27
(F4.8694
F0.0494
tp2499
sg29
(F93.5402
F0.0357
tp2500
sg31
(F70.1369
F0.0176
tp2501
sg33
(F-0.3887
F0.0062
tp2502
sssS'IC4709'
p2503
(dp2504
g3
I2
sg4
F23890.659427557
sg5
(dp2505
g7
(F0.0
F0.0
tp2506
sg9
(F0.0
F0.0
tp2507
sg11
(F-0.0007498
F3.225e-05
tp2508
ssg13
I4964
sg14
F4.812784
sg15
I8
sg16
(lp2509
g18
asg19
(dp2510
g21
(F0.0736
Finf
tp2511
sg23
(F-46.2647
F1.0723
tp2512
sg25
(F0.5019
F0.1069
tp2513
sg27
(F6.3293
F0.2136
tp2514
sg29
(F90.6651
F0.119
tp2515
sg31
(F69.6761
F0.1306
tp2516
sg33
(F-0.1727
F0.0431
tp2517
sssS'NGC7479'
p2518
(dp2519
g3
I2
sg4
F70138.9107372922
sg5
(dp2520
g7
(F0.0
F0.0
tp2521
sg9
(F0.0
F0.0
tp2522
sg11
(F-0.001241
F9.664e-05
tp2523
ssg13
I8327
sg14
F8.423071
sg15
I8
sg16
(lp2524
sg19
(dp2525
g21
(F0.2177
F0.0032
tp2526
sg23
(F-30.0141
F0.2619
tp2527
sg25
(F5.5073
F0.7527
tp2528
sg27
(F121.5648
F43.4184
tp2529
sg29
(F92.4512
F0.0378
tp2530
sg31
(F69.8997
F0.0702
tp2531
sg33
(F-4.6755
F0.2203
tp2532
sssS'NGC4235'
p2533
(dp2534
g3
I2
sg4
F4583.44079469476
sg5
(dp2535
g7
(F0.0
F0.0
tp2536
sg9
(F0.0
F0.0
tp2537
sg11
(F-0.0001093
F1.509e-05
tp2538
ssg13
I4988
sg14
F0.9188935
sg15
I8
sg16
(lp2539
g18
asg19
(dp2540
g21
(F0.0989
Finf
tp2541
sg23
(F-39.0322
F0.7031
tp2542
sg25
(F10.507
Finf
tp2543
sg27
(F10.4746
F4.2306
tp2544
sg29
(F90.4549
F0.0408
tp2545
sg31
(F69.5888
F0.0583
tp2546
sg33
(F-0.439
F0.143
tp2547
sssS'2MASXJ08032736+0841523'
p2548
(dp2549
g3
I2
sg4
F2598.33171998415
sg5
(dp2550
g7
(F0.0
F0.0
tp2551
sg9
(F0.0
F0.0
tp2552
sg11
(F-5.794e-05
F1.099e-05
tp2553
ssg13
I5008
sg14
F0.5188362
sg15
I8
sg16
(lp2554
g57
ag18
asg19
(dp2555
g21
(F0.2787
F58.0818
tp2556
sg23
(F-27.3521
F2210.49
tp2557
sg25
(F19.9763
Finf
tp2558
sg27
(F0.001188
Finf
tp2559
sg29
(F92.1513
F19.8099
tp2560
sg31
(F60.1104
F12.0635
tp2561
sg33
(F3.8437
F934.9296
tp2562
sssS'ARK241'
p2563
(dp2564
g3
I2
sg4
F2531.44901480744
sg5
(dp2565
g7
(F0.0
F0.0
tp2566
sg9
(F0.0
F0.0
tp2567
sg11
(F-1.272e-05
F1.121e-05
tp2568
ssg13
I4946
sg14
F0.5118175
sg15
I8
sg16
(lp2569
sg19
(dp2570
g21
(F0.5523
F0.1126
tp2571
sg23
(F56.16
F9.5902
tp2572
sg25
(F0.1768
F0.9723
tp2573
sg27
(F1.8553
F0.4684
tp2574
sg29
(F93.1066
F0.0749
tp2575
sg31
(F69.1009
F0.0658
tp2576
sg33
(F2.0056
F0.03
tp2577
sssS'ESO244-IG030'
p2578
(dp2579
g3
I2
sg4
F3896.99171772051
sg5
(dp2580
g7
(F0.0
F0.0
tp2581
sg9
(F0.0
F0.0
tp2582
sg11
(F-1.26e-05
F1.401e-05
tp2583
ssg13
I4938
sg14
F0.7891842
sg15
I8
sg16
(lp2584
sg19
(dp2585
g21
(F0.2341
F0.0089
tp2586
sg23
(F-21.8772
F0.4051
tp2587
sg25
(F0.6251
F0.0259
tp2588
sg27
(F4.037
F0.0339
tp2589
sg29
(F91.0577
F0.0154
tp2590
sg31
(F71.692
F0.0258
tp2591
sg33
(F-0.8903
F0.0051
tp2592
sssS'NGC5610'
p2593
(dp2594
g3
I2
sg4
F5597.07630026777
sg5
(dp2595
g7
(F0.0
F0.0
tp2596
sg9
(F0.0
F0.0
tp2597
sg11
(F0.0001069
F1.718e-05
tp2598
ssg13
I5010
sg14
F1.117181
sg15
I8
sg16
(lp2599
sg19
(dp2600
g21
(F0.2418
F0.0064
tp2601
sg23
(F-19.2117
F0.3094
tp2602
sg25
(F2.7769
F0.1004
tp2603
sg27
(F2.9822
F0.0414
tp2604
sg29
(F92.3358
F0.0145
tp2605
sg31
(F70.9387
F0.0175
tp2606
sg33
(F-2.0653
F0.005
tp2607
sssS'VIIZw073'
p2608
(dp2609
g3
I2
sg4
F3307.5257590506
sg5
(dp2610
g7
(F0.0
F0.0
tp2611
sg9
(F0.0
F0.0
tp2612
sg11
(F-2.753e-05
F1.292e-05
tp2613
ssg13
I4994
sg14
F0.6622999
sg15
I8
sg16
(lp2614
g18
asg19
(dp2615
g21
(F0.5133
F0.0596
tp2616
sg23
(F-28.3481
F4.2987
tp2617
sg25
(F13.6564
Finf
tp2618
sg27
(F0.2552
Finf
tp2619
sg29
(F91.1283
F0.0497
tp2620
sg31
(F70.2164
F0.0475
tp2621
sg33
(F-0.66
F0.0993
tp2622
sssS'CGCG468-002NED01'
p2623
(dp2624
g3
I2
sg4
F19264.7376576082
sg5
(dp2625
g7
(F0.0
F0.0
tp2626
sg9
(F0.0
F0.0
tp2627
sg11
(F7.764e-05
F3.204e-05
tp2628
ssg13
I5033
sg14
F3.827685
sg15
I8
sg16
(lp2629
g18
asg19
(dp2630
g21
(F0.3747
F0.0086
tp2631
sg23
(F-24.3811
F0.7116
tp2632
sg25
(F0.0242
Finf
tp2633
sg27
(F9.2414
F1.5287
tp2634
sg29
(F93.5241
F0.0394
tp2635
sg31
(F74.882
F0.0813
tp2636
sg33
(F-1.4126
F0.0156
tp2637
sssS'KUG1208+386'
p2638
(dp2639
g3
I2
sg4
F2637.35558478366
sg5
(dp2640
g7
(F0.0
F0.0
tp2641
sg9
(F0.0
F0.0
tp2642
sg11
(F5.94e-05
F1.124e-05
tp2643
ssg13
I5011
sg14
F0.5263132
sg15
I8
sg16
(lp2644
g18
asg19
(dp2645
g21
(F0.0402
Finf
tp2646
sg23
(F-17.4858
F10.3954
tp2647
sg25
(F1.1581
F5.464
tp2648
sg27
(F1.4001
F1.6291
tp2649
sg29
(F92.6036
F0.2454
tp2650
sg31
(F68.6022
F1.4091
tp2651
sg33
(F2.1707
F1.8151
tp2652
sssS'NGC6814'
p2653
(dp2654
g3
I2
sg4
F14311.8602552856
sg5
(dp2655
g7
(F0.0
F0.0
tp2656
sg9
(F0.0
F0.0
tp2657
sg11
(F0.0007496
F2.525e-05
tp2658
ssg13
I6065
sg14
F2.359746
sg15
I8
sg16
(lp2659
sg19
(dp2660
g21
(F0.8963
F0.0026
tp2661
sg23
(F52.754
F1.3897
tp2662
sg25
(F0.1371
F0.0031
tp2663
sg27
(F10.7456
F0.0281
tp2664
sg29
(F93.0131
F0.025
tp2665
sg31
(F70.1117
F0.0232
tp2666
sg33
(F-2.9866
F0.0042
tp2667
sssS'UGC08327NED02'
p2668
(dp2669
g3
I2
sg4
F6430.09678509399
sg5
(dp2670
g7
(F0.0
F0.0
tp2671
sg9
(F0.0
F0.0
tp2672
sg11
(F8.218e-05
F1.781e-05
tp2673
ssg13
I5009
sg14
F1.283709
sg15
I8
sg16
(lp2674
g18
asg19
(dp2675
g21
(F0.0394
Finf
tp2676
sg23
(F-9.8422
F0.8513
tp2677
sg25
(F16.6248
Finf
tp2678
sg27
(F1.2455
F0.2419
tp2679
sg29
(F92.3812
F0.0733
tp2680
sg31
(F70.8623
F0.1755
tp2681
sg33
(F-0.2463
F0.1846
tp2682
sssS'2MASXJ06411806+3249313'
p2683
(dp2684
g3
I2
sg4
F2586.84901038959
sg5
(dp2685
g7
(F0.0
F0.0
tp2686
sg9
(F0.0
F0.0
tp2687
sg11
(F2.386e-05
F1.127e-05
tp2688
ssg13
I5001
sg14
F0.5172663
sg15
I8
sg16
(lp2689
g57
ag18
asg19
(dp2690
g21
(F0.0731
Finf
tp2691
sg23
(F33.8546
F20.8166
tp2692
sg25
(F0.6955
F1.5981
tp2693
sg27
(F2.1052
F0.5857
tp2694
sg29
(F93.3825
F0.2384
tp2695
sg31
(F67.8965
F0.2927
tp2696
sg33
(F3.2362
F1.0793
tp2697
sssS'Mrk50'
p2698
(dp2699
g3
I2
sg4
F2138.05418143065
sg5
(dp2700
g7
(F0.0
F0.0
tp2701
sg9
(F0.0
F0.0
tp2702
sg11
(F2.042e-08
F1.033e-05
tp2703
ssg13
I4925
sg14
F0.4341227
sg15
I8
sg16
(lp2704
g57
asg19
(dp2705
g21
(F0.7236
F0.0867
tp2706
sg23
(F-26.5283
F13.7282
tp2707
sg25
(F0.6682
F0.4867
tp2708
sg27
(F2.0076
F0.1826
tp2709
sg29
(F91.2558
F0.0816
tp2710
sg31
(F70.6195
F0.1085
tp2711
sg33
(F2.0516
F0.0312
tp2712
sssS'SBS1301+540'
p2713
(dp2714
g3
I2
sg4
F47207.8170043881
sg5
(dp2715
g7
(F0.0
F0.0
tp2716
sg9
(F0.0
F0.0
tp2717
sg11
(F0.0007432
F4.276e-05
tp2718
ssg13
I5000
sg14
F9.441564
sg15
I8
sg16
(lp2719
g57
ag18
asg19
(dp2720
g21
(F0.0512
Finf
tp2721
sg23
(F53.0659
F0.0
tp2722
sg25
(F5.5544
F0.0
tp2723
sg27
(F0.003004
Finf
tp2724
sg29
(F93.5837
F0.0
tp2725
sg31
(F69.7829
F0.0
tp2726
sg33
(F3.6455
F0.0
tp2727
sssS'NGC1194'
p2728
(dp2729
g3
I2
sg4
F6070.38954832347
sg5
(dp2730
g7
(F0.0
F0.0
tp2731
sg9
(F0.0
F0.0
tp2732
sg11
(F-0.000405
F2.624e-05
tp2733
ssg13
I4991
sg14
F1.216267
sg15
I8
sg16
(lp2734
g18
asg19
(dp2735
g21
(F0.3029
F0.0406
tp2736
sg23
(F-68.8891
F2.5262
tp2737
sg25
(F15.6263
Finf
tp2738
sg27
(F25.9277
F58.6389
tp2739
sg29
(F90.5933
F0.0752
tp2740
sg31
(F69.597
F0.0624
tp2741
sg33
(F-0.4274
F0.7617
tp2742
sssS'MCG-01-24-012'
p2743
(dp2744
g3
I2
sg4
F4155.44466818103
sg5
(dp2745
g7
(F0.0
F0.0
tp2746
sg9
(F0.0
F0.0
tp2747
sg11
(F-5.857e-06
F1.437e-05
tp2748
ssg13
I4972
sg14
F0.8357692
sg15
I8
sg16
(lp2749
sg19
(dp2750
g21
(F0.5214
F0.0277
tp2751
sg23
(F-38.0325
F2.1513
tp2752
sg25
(F1.8882
F0.2225
tp2753
sg27
(F3.3229
F0.1113
tp2754
sg29
(F92.6409
F0.0339
tp2755
sg31
(F68.9461
F0.0417
tp2756
sg33
(F0.0537
F0.0263
tp2757
sssS'Mrk653'
p2758
(dp2759
g3
I2
sg4
F2389.88364759867
sg5
(dp2760
g7
(F0.0
F0.0
tp2761
sg9
(F0.0
F0.0
tp2762
sg11
(F-5.909e-05
F1.064e-05
tp2763
ssg13
I4981
sg14
F0.4798
sg15
I8
sg16
(lp2764
sg19
(dp2765
g21
(F0.4824
F0.042
tp2766
sg23
(F39.6285
F4.2263
tp2767
sg25
(F0.7411
F0.3599
tp2768
sg27
(F1.8039
F0.0994
tp2769
sg29
(F90.4259
F0.0346
tp2770
sg31
(F70.8229
F0.0346
tp2771
sg33
(F1.1055
F0.0161
tp2772
sssS'2MASXJ09023729-4813339'
p2773
(dp2774
g16
(lp2775
g57
ag789
assS'UGC12282'
p2776
(dp2777
g3
I2
sg4
F3759.16367938521
sg5
(dp2778
g7
(F0.0
F0.0
tp2779
sg9
(F0.0
F0.0
tp2780
sg11
(F5.296e-05
F1.4e-05
tp2781
ssg13
I4982
sg14
F0.7545491
sg15
I8
sg16
(lp2782
sg19
(dp2783
g21
(F0.1572
F0.0022
tp2784
sg23
(F-20.1045
F0.1244
tp2785
sg25
(F0.2272
F0.0096
tp2786
sg27
(F8.9559
F0.0397
tp2787
sg29
(F91.0754
F0.012
tp2788
sg31
(F68.6289
F0.0356
tp2789
sg33
(F-1.5102
F0.0044
tp2790
sssS'ESO499-G041'
p2791
(dp2792
g3
I2
sg4
F7419.43447273492
sg5
(dp2793
g7
(F0.0
F0.0
tp2794
sg9
(F0.0
F0.0
tp2795
sg11
(F0.0008869
F1.155e-05
tp2796
ssg13
I4916
sg14
F1.509242
sg15
I8
sg16
(lp2797
sg19
(dp2798
g21
(F0.526
F0.1134
tp2799
sg23
(F63.0359
F9.3389
tp2800
sg25
(F0.0995
F2.3589
tp2801
sg27
(F1.4346
F1.0671
tp2802
sg29
(F91.724
F0.0337
tp2803
sg31
(F69.3941
F0.0387
tp2804
sg33
(F0.3291
F0.0151
tp2805
sssS'NGC5683'
p2806
(dp2807
g3
I2
sg4
F3242.2670715901
sg5
(dp2808
g7
(F0.0
F0.0
tp2809
sg9
(F0.0
F0.0
tp2810
sg11
(F-7.677e-07
F1.234e-05
tp2811
ssg13
I4986
sg14
F0.6502742
sg15
I8
sg16
(lp2812
g57
asg19
(dp2813
g21
(F0.3845
F0.0637
tp2814
sg23
(F42.6698
F5.3353
tp2815
sg25
(F0.5017
F0.4328
tp2816
sg27
(F2.586
F0.2101
tp2817
sg29
(F93.2118
F0.0906
tp2818
sg31
(F69.7474
F0.118
tp2819
sg33
(F1.9943
F0.0338
tp2820
sssS'2MASXJ09594263-3112581'
p2821
(dp2822
g3
I2
sg4
F2410.11263803553
sg5
(dp2823
g7
(F0.0
F0.0
tp2824
sg9
(F0.0
F0.0
tp2825
sg11
(F-7.003e-05
F1.114e-05
tp2826
ssg13
I4896
sg14
F0.4922616
sg15
I8
sg16
(lp2827
g18
asg19
(dp2828
g21
(F0.6124
F0.0
tp2829
sg23
(F-71.9592
F0.0
tp2830
sg25
(F0.7507
F0.0
tp2831
sg27
(F0.01
Finf
tp2832
sg29
(F90.0282
F0.0
tp2833
sg31
(F66.244
F0.0
tp2834
sg33
(F1.6103
F0.0
tp2835
sssS'Fairall272'
p2836
(dp2837
g3
I2
sg4
F3630.04546492515
sg5
(dp2838
g7
(F0.0
F0.0
tp2839
sg9
(F0.0
F0.0
tp2840
sg11
(F-4.714e-05
F1.368e-05
tp2841
ssg13
I4941
sg14
F0.7346783
sg15
I8
sg16
(lp2842
sg19
(dp2843
g21
(F0.2063
F0.0765
tp2844
sg23
(F-41.0408
F1.913
tp2845
sg25
(F0.958
F0.225
tp2846
sg27
(F1.452
F0.0618
tp2847
sg29
(F92.4117
F0.0185
tp2848
sg31
(F70.1028
F0.0213
tp2849
sg33
(F-0.0382
F0.0091
tp2850
sssS'Mrk348'
p2851
(dp2852
g3
I2
sg4
F9549.3068864743
sg5
(dp2853
g7
(F0.0
F0.0
tp2854
sg9
(F0.0
F0.0
tp2855
sg11
(F9.634e-05
F8.071e-06
tp2856
ssg13
I5465
sg14
F1.747357
sg15
I8
sg16
(lp2857
sg19
(dp2858
g21
(F0.7493
F0.019
tp2859
sg23
(F-86.6627
F2.6872
tp2860
sg25
(F3.4784
F0.2819
tp2861
sg27
(F3.5763
F0.1895
tp2862
sg29
(F109.4758
F0.0181
tp2863
sg31
(F82.1474
F0.0171
tp2864
sg33
(F-0.2331
F0.0319
tp2865
sssS'NGC5273'
p2866
(dp2867
g3
I2
sg4
F2748.76014466652
sg5
(dp2868
g7
(F0.0
F0.0
tp2869
sg9
(F0.0
F0.0
tp2870
sg11
(F-8.688e-05
F1.921e-05
tp2871
ssg13
I5016
sg14
F0.5479984
sg15
I8
sg16
(lp2872
g18
asg19
(dp2873
g21
(F0.6454
F0.0432
tp2874
sg23
(F-31.3102
F4.4097
tp2875
sg25
(F19.9546
Finf
tp2876
sg27
(F15.6305
F28.3914
tp2877
sg29
(F92.2196
F0.0464
tp2878
sg31
(F70.6855
F0.0507
tp2879
sg33
(F-0.6524
F0.5456
tp2880
sssS'LEDA170194'
p2881
(dp2882
g3
I2
sg4
F5121.28514404567
sg5
(dp2883
g7
(F0.0
F0.0
tp2884
sg9
(F0.0
F0.0
tp2885
sg11
(F7.512e-05
F1.609e-05
tp2886
ssg13
I4991
sg14
F1.026104
sg15
I8
sg16
(lp2887
sg19
(dp2888
g21
(F0.8775
F0.0597
tp2889
sg23
(F-81.2397
F18.3274
tp2890
sg25
(F1.2135
F0.3194
tp2891
sg27
(F1.6554
F0.0868
tp2892
sg29
(F90.6362
F0.0372
tp2893
sg31
(F70.4609
F0.037
tp2894
sg33
(F0.5389
F0.0176
tp2895
sssS'CGCG341-006'
p2896
(dp2897
g3
I2
sg4
F9965.47326266883
sg5
(dp2898
g7
(F0.0
F0.0
tp2899
sg9
(F0.0
F0.0
tp2900
sg11
(F-0.008561
F0.0007477
tp2901
ssg13
I4918
sg14
F2.026326
sg15
I8
sg16
(lp2902
g18
asg19
(dp2903
g21
(F0.5522
F0.027
tp2904
sg23
(F-33.9583
F4.1545
tp2905
sg25
(F0.0498
Finf
tp2906
sg27
(F57.333
F4.9572
tp2907
sg29
(F93.5029
F3.582
tp2908
sg31
(F55.1137
F6.1977
tp2909
sg33
(F-4.9447
F0.153
tp2910
sssS'MCG-01-05-047'
p2911
(dp2912
g3
I2
sg4
F128990.887046723
sg5
(dp2913
g7
(F0.0
F0.0
tp2914
sg9
(F0.0
F0.0
tp2915
sg11
(F0.005184
F3.345e-05
tp2916
ssg13
I4992
sg14
F25.83952
sg15
I8
sg16
(lp2917
g18
asg19
(dp2918
g21
(F0.06
Finf
tp2919
sg23
(F-72.9755
F0.9155
tp2920
sg25
(F0.0463
Finf
tp2921
sg27
(F7.2515
F7.2438
tp2922
sg29
(F90.6976
F0.3296
tp2923
sg31
(F69.613
F0.023
tp2924
sg33
(F-2.105
F0.1692
tp2925
sssS'Mrk728'
p2926
(dp2927
g3
I2
sg4
F2124.47313720411
sg5
(dp2928
g7
(F0.0
F0.0
tp2929
sg9
(F0.0
F0.0
tp2930
sg11
(F-2.527e-05
F9.936e-06
tp2931
ssg13
I5014
sg14
F0.4237082
sg15
I8
sg16
(lp2932
g57
ag18
asg19
(dp2933
g21
(F0.0733
Finf
tp2934
sg23
(F1.4
F89.2391
tp2935
sg25
(F9.925
F110.8447
tp2936
sg27
(F0.1313
Finf
tp2937
sg29
(F89.3594
F6.2195
tp2938
sg31
(F70.2709
F1.6114
tp2939
sg33
(F2.9244
F11.3548
tp2940
sssS'MCG-01-09-045'
p2941
(dp2942
g3
I2
sg4
F2400.5339368793
sg5
(dp2943
g7
(F0.0
F0.0
tp2944
sg9
(F0.0
F0.0
tp2945
sg11
(F-2.012e-05
F1.066e-05
tp2946
ssg13
I5021
sg14
F0.4780988
sg15
I8
sg16
(lp2947
sg19
(dp2948
g21
(F0.5981
F0.0243
tp2949
sg23
(F33.8699
F2.9365
tp2950
sg25
(F0.6366
F0.0936
tp2951
sg27
(F3.9345
F0.145
tp2952
sg29
(F93.0024
F0.0532
tp2953
sg31
(F70.3357
F0.0776
tp2954
sg33
(F0.9975
F0.0209
tp2955
sssS'UGC03478'
p2956
(dp2957
g3
I2
sg4
F4791.06460133544
sg5
(dp2958
g7
(F0.0
F0.0
tp2959
sg9
(F0.0
F0.0
tp2960
sg11
(F-1.119e-05
F1.591e-05
tp2961
ssg13
I4985
sg14
F0.9610962
sg15
I8
sg16
(lp2962
sg19
(dp2963
g21
(F0.5803
F0.0067
tp2964
sg23
(F-24.4137
F0.6881
tp2965
sg25
(F1.0332
F0.0258
tp2966
sg27
(F4.5934
F0.0453
tp2967
sg29
(F92.9448
F0.0177
tp2968
sg31
(F69.2154
F0.0234
tp2969
sg33
(F-1.477
F0.0061
tp2970
sssS'WKK6092'
p2971
(dp2972
g3
I2
sg4
F3185.45209579118
sg5
(dp2973
g7
(F0.0
F0.0
tp2974
sg9
(F0.0
F0.0
tp2975
sg11
(F-0.001137
F6.497e-05
tp2976
ssg13
I5036
sg14
F0.6325362
sg15
I8
sg16
(lp2977
g57
ag18
asg19
(dp2978
g21
(F0.4965
F0.0685
tp2979
sg23
(F31.8095
F9.509
tp2980
sg25
(F0.0487
Finf
tp2981
sg27
(F52.6289
F11.2726
tp2982
sg29
(F94.3393
F7.9031
tp2983
sg31
(F86.0027
F14.7316
tp2984
sg33
(F-2.4729
F0.2059
tp2985
sssS'LEDA38038'
p2986
(dp2987
g3
I2
sg4
F2248.67776629624
sg5
(dp2988
g7
(F0.0
F0.0
tp2989
sg9
(F0.0
F0.0
tp2990
sg11
(F-3.438e-06
F1.053e-05
tp2991
ssg13
I5031
sg14
F0.4469644
sg15
I8
sg16
(lp2992
sg19
(dp2993
g21
(F0.5664
F0.0426
tp2994
sg23
(F36.6989
F3.2662
tp2995
sg25
(F2.21
F0.4057
tp2996
sg27
(F0.8724
F0.0497
tp2997
sg29
(F92.9544
F0.0163
tp2998
sg31
(F70.9733
F0.0181
tp2999
sg33
(F-0.2279
F0.0068
tp3000
sssS'2MASXJ14530794+2554327'
p3001
(dp3002
g3
I2
sg4
F2170.93368312948
sg5
(dp3003
g7
(F0.0
F0.0
tp3004
sg9
(F0.0
F0.0
tp3005
sg11
(F2.11e-05
F1.038e-05
tp3006
ssg13
I4976
sg14
F0.4362809
sg15
I8
sg16
(lp3007
g57
ag18
asg19
(dp3008
g21
(F0.05
Finf
tp3009
sg23
(F36.3925
F584442.75
tp3010
sg25
(F0.0496
Finf
tp3011
sg27
(F1.3871
F235.4295
tp3012
sg29
(F91.5295
F9236.5635
tp3013
sg31
(F68.6969
F15454.7832
tp3014
sg33
(F4.7102
F3442.3091
tp3015
sssS'6dFJ2132022-334254'
p3016
(dp3017
g3
I2
sg4
F18701.5655967852
sg5
(dp3018
g7
(F0.0
F0.0
tp3019
sg9
(F0.0
F0.0
tp3020
sg11
(F0.0008616
F2.661e-05
tp3021
ssg13
I5014
sg14
F3.729869
sg15
I8
sg16
(lp3022
g57
ag18
asg19
(dp3023
g21
(F0.0487
Finf
tp3024
sg23
(F52.6544
F255260.5156
tp3025
sg25
(F19.2335
Finf
tp3026
sg27
(F0.009509
Finf
tp3027
sg29
(F89.1792
F4107.1147
tp3028
sg31
(F70.2368
F13047.8896
tp3029
sg33
(F10.3756
F484382.8438
tp3030
sssS'MCG-02-14-009'
p3031
(dp3032
g3
I2
sg4
F2730.47305614763
sg5
(dp3033
g7
(F0.0
F0.0
tp3034
sg9
(F0.0
F0.0
tp3035
sg11
(F-0.0001131
F1.415e-05
tp3036
ssg13
I4968
sg14
F0.5496121
sg15
I8
sg16
(lp3037
sg19
(dp3038
g21
(F0.5453
F0.0232
tp3039
sg23
(F19.2463
F1.895
tp3040
sg25
(F3.7025
F0.5253
tp3041
sg27
(F9.0119
F1.6
tp3042
sg29
(F92.5955
F0.0394
tp3043
sg31
(F70.3061
F0.0516
tp3044
sg33
(F-0.3652
F0.105
tp3045
sssS'2MASXJ09235371-3141305'
p3046
(dp3047
g3
I2
sg4
F2187.8560901276
sg5
(dp3048
g7
(F0.0
F0.0
tp3049
sg9
(F0.0
F0.0
tp3050
sg11
(F-4.815e-05
F1.027e-05
tp3051
ssg13
I4994
sg14
F0.4380969
sg15
I8
sg16
(lp3052
g57
ag18
asg19
(dp3053
g21
(F0.5324
F544345.25
tp3054
sg23
(F13.7594
F129338600.0
tp3055
sg25
(F0.5644
F144160.3438
tp3056
sg27
(F0.0394
Finf
tp3057
sg29
(F92.9738
F1150446.0
tp3058
sg31
(F66.4841
F1270852.625
tp3059
sg33
(F2.8737
F427.978
tp3060
sssS'Mrk198'
p3061
(dp3062
g3
I2
sg4
F2165.82932172236
sg5
(dp3063
g7
(F0.0
F0.0
tp3064
sg9
(F0.0
F0.0
tp3065
sg11
(F-5.724e-05
F1.077e-05
tp3066
ssg13
I4970
sg14
F0.4357806
sg15
I8
sg16
(lp3067
sg19
(dp3068
g21
(F0.8063
F0.0587
tp3069
sg23
(F-76.9696
F10.3681
tp3070
sg25
(F3.2086
F0.6388
tp3071
sg27
(F0.8349
F0.033
tp3072
sg29
(F92.9834
F0.0282
tp3073
sg31
(F70.6051
F0.0317
tp3074
sg33
(F0.1161
F0.0114
tp3075
sssS'ESO139-G012'
p3076
(dp3077
g3
I2
sg4
F2781.9035160891
sg5
(dp3078
g7
(F0.0
F0.0
tp3079
sg9
(F0.0
F0.0
tp3080
sg11
(F0.0001063
F1.21e-05
tp3081
ssg13
I4982
sg14
F0.5583909
sg15
I8
sg16
(lp3082
sg19
(dp3083
g21
(F0.6138
F0.0037
tp3084
sg23
(F-37.8095
F0.5999
tp3085
sg25
(F0.1746
F0.0099
tp3086
sg27
(F7.4198
F0.0361
tp3087
sg29
(F91.7995
F0.0266
tp3088
sg31
(F70.2333
F0.0289
tp3089
sg33
(F-1.016
F0.0054
tp3090
sssS'MCG+05-28-032'
p3091
(dp3092
g3
I2
sg4
F79541.5764552716
sg5
(dp3093
g7
(F0.0
F0.0
tp3094
sg9
(F0.0
F0.0
tp3095
sg11
(F0.003292
F4.218e-05
tp3096
ssg13
I4990
sg14
F15.9402
sg15
I8
sg16
(lp3097
g18
asg19
(dp3098
g21
(F0.0818
Finf
tp3099
sg23
(F-70.8282
F10557.0127
tp3100
sg25
(F0.0385
Finf
tp3101
sg27
(F1.9377
F1600.616
tp3102
sg29
(F92.3318
F0.097
tp3103
sg31
(F69.7277
F0.1403
tp3104
sg33
(F0.0623
F247.2889
tp3105
sssS'ESO198-024'
p3106
(dp3107
g3
I2
sg4
F2647.76217856908
sg5
(dp3108
g7
(F0.0
F0.0
tp3109
sg9
(F0.0
F0.0
tp3110
sg11
(F-7.563e-06
F1.122e-05
tp3111
ssg13
I4991
sg14
F0.5305073
sg15
I8
sg16
(lp3112
g57
ag18
asg19
(dp3113
g21
(F0.4007
F0.0
tp3114
sg23
(F32.959
F0.0
tp3115
sg25
(F3.4497
F0.0
tp3116
sg27
(F0.0105
Finf
tp3117
sg29
(F92.9823
F0.0
tp3118
sg31
(F69.0302
F0.0
tp3119
sg33
(F2.3777
F0.0
tp3120
sssS'Mrk1210'
p3121
(dp3122
g3
I2
sg4
F4776.11093643551
sg5
(dp3123
g7
(F0.0
F0.0
tp3124
sg9
(F0.0
F0.0
tp3125
sg11
(F0.000223
F1.409e-05
tp3126
ssg13
I4992
sg14
F0.956753
sg15
I8
sg16
(lp3127
sg19
(dp3128
g21
(F0.7863
F0.1023
tp3129
sg23
(F88.7916
F15.515
tp3130
sg25
(F0.4836
F0.8553
tp3131
sg27
(F1.0593
F0.2577
tp3132
sg29
(F90.9333
F0.028
tp3133
sg31
(F69.5019
F0.03
tp3134
sg33
(F0.3829
F0.0129
tp3135
sssS'ESO033-G002'
p3136
(dp3137
g16
(lp3138
g789
assS'MCG-02-12-050'
p3139
(dp3140
g3
I2
sg4
F39717.51720789
sg5
(dp3141
g7
(F0.0
F0.0
tp3142
sg9
(F0.0
F0.0
tp3143
sg11
(F0.001154
F4.232e-05
tp3144
ssg13
I5023
sg14
F7.907131
sg15
I8
sg16
(lp3145
sg19
(dp3146
g21
(F0.4058
F0.032
tp3147
sg23
(F-52.0036
F2.4539
tp3148
sg25
(F0.2009
F0.0905
tp3149
sg27
(F4.1617
F0.155
tp3150
sg29
(F91.6479
F0.1014
tp3151
sg31
(F71.5888
F0.081
tp3152
sg33
(F-0.3265
F0.024
tp3153
sssS'NGC424'
p3154
(dp3155
g3
I2
sg4
F58624.2710969445
sg5
(dp3156
g7
(F0.0
F0.0
tp3157
sg9
(F0.0
F0.0
tp3158
sg11
(F-0.006555
F3.965e-05
tp3159
ssg13
I5006
sg14
F11.7108
sg15
I8
sg16
(lp3160
g18
asg19
(dp3161
g21
(F0.4542
F0.0698
tp3162
sg23
(F-43.2615
F4.9604
tp3163
sg25
(F0.0479
Finf
tp3164
sg27
(F58.5475
F15.9569
tp3165
sg29
(F86.458
F10.3475
tp3166
sg31
(F52.9382
F13.3894
tp3167
sg33
(F-4.5274
F0.2545
tp3168
sssS'NGC5506'
p3169
(dp3170
g3
I2
sg4
F17475.7872928231
sg5
(dp3171
g7
(F0.0
F0.0
tp3172
sg9
(F0.0
F0.0
tp3173
sg11
(F0.0001374
F1.143e-05
tp3174
ssg13
I5471
sg14
F3.194258
sg15
I8
sg16
(lp3175
g18
asg19
(dp3176
g21
(F0.1328
F0.0042
tp3177
sg23
(F-44.2329
F0.2226
tp3178
sg25
(F19.5296
Finf
tp3179
sg27
(F4.1918
F0.5708
tp3180
sg29
(F109.1738
F0.0168
tp3181
sg31
(F82.2265
F0.0187
tp3182
sg33
(F-2.2073
F0.0234
tp3183
sssS'2MASXJ10402231-4625264'
p3184
(dp3185
g3
I2
sg4
F2548.64673510767
sg5
(dp3186
g7
(F0.0
F0.0
tp3187
sg9
(F0.0
F0.0
tp3188
sg11
(F3.429e-05
F1.113e-05
tp3189
ssg13
I5028
sg14
F0.5068908
sg15
I8
sg16
(lp3190
sg19
(dp3191
g21
(F0.3674
F0.0782
tp3192
sg23
(F-23.5206
F3.2468
tp3193
sg25
(F1.8559
F0.567
tp3194
sg27
(F0.7306
F0.0869
tp3195
sg29
(F92.5816
F0.0274
tp3196
sg31
(F71.357
F0.0227
tp3197
sg33
(F-0.1887
F0.0071
tp3198
sssS'Mrk335'
p3199
(dp3200
g3
I2
sg4
F2334.83067450294
sg5
(dp3201
g7
(F0.0
F0.0
tp3202
sg9
(F0.0
F0.0
tp3203
sg11
(F-6.985e-06
F3.785e-06
tp3204
ssg13
I5535
sg14
F0.4218303
sg15
I8
sg16
(lp3205
g18
asg19
(dp3206
g21
(F0.1781
F0.0469
tp3207
sg23
(F2.6081
F2.7246
tp3208
sg25
(F10.6652
Finf
tp3209
sg27
(F1.6521
F0.4877
tp3210
sg29
(F110.945
F0.0854
tp3211
sg31
(F82.4757
F0.0671
tp3212
sg33
(F1.9363
F0.0825
tp3213
sssS'UGC11185NED02'
p3214
(dp3215
g3
I2
sg4
F5098.31172958412
sg5
(dp3216
g7
(F0.0
F0.0
tp3217
sg9
(F0.0
F0.0
tp3218
sg11
(F8.216e-05
F1.612e-05
tp3219
ssg13
I5001
sg14
F1.019458
sg15
I8
sg16
(lp3220
g18
asg19
(dp3221
g21
(F0.0617
Finf
tp3222
sg23
(F-69.6303
F2.9713
tp3223
sg25
(F6.0391
F2.4839
tp3224
sg27
(F1.677
F0.2973
tp3225
sg29
(F91.0581
F0.1066
tp3226
sg31
(F70.6283
F0.1625
tp3227
sg33
(F0.7608
F0.0618
tp3228
sssS'NGC4992'
p3229
(dp3230
g3
I2
sg4
F3296.63021572509
sg5
(dp3231
g7
(F0.0
F0.0
tp3232
sg9
(F0.0
F0.0
tp3233
sg11
(F-2.165e-05
F1.251e-05
tp3234
ssg13
I4958
sg14
F0.6649113
sg15
I8
sg16
(lp3235
sg19
(dp3236
g21
(F0.5664
F0.0162
tp3237
sg23
(F72.8435
F1.9733
tp3238
sg25
(F0.5898
F0.0595
tp3239
sg27
(F5.3784
F0.153
tp3240
sg29
(F93.5053
F0.095
tp3241
sg31
(F70.2143
F0.0611
tp3242
sg33
(F0.3959
F0.0188
tp3243
sssS'ESO031-G008'
p3244
(dp3245
g3
I2
sg4
F2453.5161387363
sg5
(dp3246
g7
(F0.0
F0.0
tp3247
sg9
(F0.0
F0.0
tp3248
sg11
(F-4.635e-05
F1.078e-05
tp3249
ssg13
I4998
sg14
F0.4908996
sg15
I8
sg16
(lp3250
g57
asg19
(dp3251
g21
(F0.76
F0.0739
tp3252
sg23
(F-36.3579
F10.0481
tp3253
sg25
(F0.0516
F0.3565
tp3254
sg27
(F2.8128
F4.1092
tp3255
sg29
(F93.2244
F0.0931
tp3256
sg31
(F68.5421
F0.1041
tp3257
sg33
(F1.761
F0.037
tp3258
sssS'2MASXJ20183871+4041003'
p3259
(dp3260
g3
I2
sg4
F77837.3122712203
sg5
(dp3261
g7
(F0.0
F0.0
tp3262
sg9
(F0.0
F0.0
tp3263
sg11
(F0.002292
F9.886e-05
tp3264
ssg13
I4983
sg14
F15.62057
sg15
I8
sg16
(lp3265
sg19
(dp3266
g21
(F0.572
F0.0126
tp3267
sg23
(F-51.7053
F0.8027
tp3268
sg25
(F0.2434
F0.0054
tp3269
sg27
(F30.899
F0.8341
tp3270
sg29
(F63.0351
F1.1341
tp3271
sg31
(F55.3445
F0.6476
tp3272
sg33
(F-5.104
F0.0418
tp3273
sssS'ESO533-G050'
p3274
(dp3275
g3
I2
sg4
F3652.87201329435
sg5
(dp3276
g7
(F0.0
F0.0
tp3277
sg9
(F0.0
F0.0
tp3278
sg11
(F-4.106e-05
F1.31e-05
tp3279
ssg13
I5046
sg14
F0.7239144
sg15
I8
sg16
(lp3280
sg19
(dp3281
g21
(F0.5144
F0.0154
tp3282
sg23
(F-26.6361
F1.7613
tp3283
sg25
(F0.6633
F0.0581
tp3284
sg27
(F7.1785
F0.2444
tp3285
sg29
(F92.9004
F0.0769
tp3286
sg31
(F71.0552
F0.1249
tp3287
sg33
(F0.2635
F0.0265
tp3288
sssS'ESO141-G055'
p3289
(dp3290
g3
I2
sg4
F11597.8007919957
sg5
(dp3291
g7
(F0.0
F0.0
tp3292
sg9
(F0.0
F0.0
tp3293
sg11
(F-0.0154
F0.0162
tp3294
ssg13
I4989
sg14
F2.324674
sg15
I8
sg16
(lp3295
g18
asg19
(dp3296
g21
(F0.3639
F0.0691
tp3297
sg23
(F-23.8686
F2.2267
tp3298
sg25
(F0.195
F0.033
tp3299
sg27
(F112.5974
F32.1723
tp3300
sg29
(F78.3049
F8.1448
tp3301
sg31
(F17.7319
Finf
tp3302
sg33
(F-6.6278
F1.4643
tp3303
sssS'NGC931'
p3304
(dp3305
g3
I2
sg4
F7225.8635784911
sg5
(dp3306
g7
(F0.0
F0.0
tp3307
sg9
(F0.0
F0.0
tp3308
sg11
(F2.962e-05
F1.938e-05
tp3309
ssg13
I4977
sg14
F1.451851
sg15
I8
sg16
(lp3310
sg19
(dp3311
g21
(F0.1936
F0.0025
tp3312
sg23
(F19.8089
F0.2167
tp3313
sg25
(F1.7099
F0.0605
tp3314
sg27
(F12.1089
F0.3121
tp3315
sg29
(F92.2381
F0.0173
tp3316
sg31
(F69.4317
F0.047
tp3317
sg33
(F-1.949
F0.0168
tp3318
sssS'NGC4102'
p3319
(dp3320
g3
I2
sg4
F55874.3797938802
sg5
(dp3321
g7
(F0.0
F0.0
tp3322
sg9
(F0.0
F0.0
tp3323
sg11
(F-0.003016
F3.732e-05
tp3324
ssg13
I4989
sg14
F11.19952
sg15
I8
sg16
(lp3325
sg19
(dp3326
g21
(F0.569
F0.0046
tp3327
sg23
(F-52.803
F0.5371
tp3328
sg25
(F2.5261
F0.1193
tp3329
sg27
(F11.9417
F0.312
tp3330
sg29
(F92.1785
F0.0349
tp3331
sg31
(F70.0396
F0.0301
tp3332
sg33
(F-4.0812
F0.0241
tp3333
sssS'ESO157-G023'
p3334
(dp3335
g3
I2
sg4
F4148.64366485173
sg5
(dp3336
g7
(F0.0
F0.0
tp3337
sg9
(F0.0
F0.0
tp3338
sg11
(F-8.358e-05
F1.437e-05
tp3339
ssg13
I5003
sg14
F0.8292312
sg15
I8
sg16
(lp3340
sg19
(dp3341
g21
(F0.4092
F0.0061
tp3342
sg23
(F23.5387
F0.7489
tp3343
sg25
(F0.0885
F0.0295
tp3344
sg27
(F9.785
F0.1157
tp3345
sg29
(F95.8727
F0.0602
tp3346
sg31
(F66.6622
F0.1179
tp3347
sg33
(F-0.0948
F0.0146
tp3348
sssS'SDSSJ104326.47+110524.2'
p3349
(dp3350
g3
I2
sg4
F2622.28953417757
sg5
(dp3351
g7
(F0.0
F0.0
tp3352
sg9
(F0.0
F0.0
tp3353
sg11
(F-0.004114
F0.0005906
tp3354
ssg13
I5012
sg14
F0.5232022
sg15
I8
sg16
(lp3355
g57
asg19
(dp3356
g21
(F0.5898
F0.0204
tp3357
sg23
(F-49.1435
F4.5004
tp3358
sg25
(F0.0846
F0.0104
tp3359
sg27
(F50.6609
F2.7752
tp3360
sg29
(F94.6698
F2.95
tp3361
sg31
(F60.4989
F3.4486
tp3362
sg33
(F-3.9842
F0.2162
tp3363
sssS'2MASXJ15462424+6929102'
p3364
(dp3365
g3
I2
sg4
F4427.54360068277
sg5
(dp3366
g7
(F0.0
F0.0
tp3367
sg9
(F0.0
F0.0
tp3368
sg11
(F8.084e-05
F1.478e-05
tp3369
ssg13
I5024
sg14
F0.8812786
sg15
I8
sg16
(lp3370
g57
ag18
asg19
(dp3371
g21
(F0.7909
F2250.2698
tp3372
sg23
(F1.3734
F325514.0938
tp3373
sg25
(F0.008233
Finf
tp3374
sg27
(F0.6279
F433.7941
tp3375
sg29
(F92.3803
F2708.1321
tp3376
sg31
(F71.3581
F408.4824
tp3377
sg33
(F2.931
F368.8039
tp3378
sssS'IC2637'
p3379
(dp3380
g3
I2
sg4
F5748.77825146473
sg5
(dp3381
g7
(F0.0
F0.0
tp3382
sg9
(F0.0
F0.0
tp3383
sg11
(F1.459e-05
F1.729e-05
tp3384
ssg13
I4987
sg14
F1.152753
sg15
I8
sg16
(lp3385
sg19
(dp3386
g21
(F0.3513
F0.0158
tp3387
sg23
(F-42.5075
F0.9072
tp3388
sg25
(F0.8989
F0.0788
tp3389
sg27
(F1.968
F0.0297
tp3390
sg29
(F92.8798
F0.0124
tp3391
sg31
(F69.9887
F0.015
tp3392
sg33
(F-1.3512
F0.0061
tp3393
sssS'2MASXJ03305218+0538253'
p3394
(dp3395
g3
I2
sg4
F2588.80624668122
sg5
(dp3396
g7
(F0.0
F0.0
tp3397
sg9
(F0.0
F0.0
tp3398
sg11
(F-2.523e-05
F1.097e-05
tp3399
ssg13
I5014
sg14
F0.5163156
sg15
I8
sg16
(lp3400
g57
ag18
asg19
(dp3401
g21
(F0.1113
F0.0
tp3402
sg23
(F-9.7888
F0.0
tp3403
sg25
(F0.0373
Finf
tp3404
sg27
(F1.5218
F0.0
tp3405
sg29
(F93.0589
F0.0
tp3406
sg31
(F70.1304
F0.0
tp3407
sg33
(F2.3988
F0.0
tp3408
sssS'UGC06728'
p3409
(dp3410
g16
(lp3411
g57
ag789
assS'2MASXJ12005792+0648226'
p3412
(dp3413
g3
I2
sg4
F2356.44823894134
sg5
(dp3414
g7
(F0.0
F0.0
tp3415
sg9
(F0.0
F0.0
tp3416
sg11
(F0.0001005
F1.093e-05
tp3417
ssg13
I4951
sg14
F0.475954
sg15
I8
sg16
(lp3418
sg19
(dp3419
g21
(F0.2753
F0.0987
tp3420
sg23
(F-57.5405
F2.8377
tp3421
sg25
(F0.4963
F0.3286
tp3422
sg27
(F1.2982
F0.1074
tp3423
sg29
(F92.7934
F0.0177
tp3424
sg31
(F70.4166
F0.0193
tp3425
sg33
(F0.2245
F0.0085
tp3426
sssS'LCRSB034324.7-394349'
p3427
(dp3428
g3
I2
sg4
F2939.00683680325
sg5
(dp3429
g7
(F0.0
F0.0
tp3430
sg9
(F0.0
F0.0
tp3431
sg11
(F-1.793e-05
F1.206e-05
tp3432
ssg13
I5009
sg14
F0.5867452
sg15
I8
sg16
(lp3433
sg19
(dp3434
g21
(F0.5858
F0.2599
tp3435
sg23
(F32.3511
F48.2754
tp3436
sg25
(F0.0682
F3.0146
tp3437
sg27
(F1.4221
F0.6
tp3438
sg29
(F92.4162
F0.0517
tp3439
sg31
(F69.6093
F0.0553
tp3440
sg33
(F1.8025
F0.0254
tp3441
sssS'NGC1106'
p3442
(dp3443
g3
I2
sg4
F3131.71759950849
sg5
(dp3444
g7
(F0.0
F0.0
tp3445
sg9
(F0.0
F0.0
tp3446
sg11
(F7.15e-06
F1.27e-05
tp3447
ssg13
I4944
sg14
F0.6334381
sg15
I8
sg16
(lp3448
sg19
(dp3449
g21
(F0.8941
F0.0101
tp3450
sg23
(F8.6999
F4.3522
tp3451
sg25
(F0.6924
F0.0296
tp3452
sg27
(F3.8787
F0.0489
tp3453
sg29
(F92.8468
F0.0271
tp3454
sg31
(F70.1724
F0.0312
tp3455
sg33
(F-0.7261
F0.0057
tp3456
sssS'NGC4151'
p3457
(dp3458
g3
I2
sg4
F8133.5724333198
sg5
(dp3459
g7
(F0.0
F0.0
tp3460
sg9
(F0.0
F0.0
tp3461
sg11
(F-0.000667
F5.769e-05
tp3462
ssg13
I9596
sg14
F0.8476003
sg15
I8
sg16
(lp3463
sg19
(dp3464
g21
(F0.8847
F0.011
tp3465
sg23
(F-40.2547
F3.104
tp3466
sg25
(F8.3741
F1.2209
tp3467
sg27
(F524.6834
F391.5274
tp3468
sg29
(F170.2877
F0.0338
tp3469
sg31
(F169.3511
F0.0343
tp3470
sg33
(F-5.0368
F0.4812
tp3471
sssS'2MASXJ19373299-0613046'
p3472
(dp3473
g3
I2
sg4
F3141.55468864953
sg5
(dp3474
g7
(F0.0
F0.0
tp3475
sg9
(F0.0
F0.0
tp3476
sg11
(F6.715e-05
F1.269e-05
tp3477
ssg13
I4977
sg14
F0.6312145
sg15
I8
sg16
(lp3478
sg19
(dp3479
g21
(F0.8114
F0.0048
tp3480
sg23
(F26.3191
F1.3153
tp3481
sg25
(F0.4931
F0.0138
tp3482
sg27
(F2.7988
F0.015
tp3483
sg29
(F92.5948
F0.0101
tp3484
sg31
(F68.8622
F0.0119
tp3485
sg33
(F-1.5786
F0.0027
tp3486
sssS'Mrk290'
p3487
(dp3488
g3
I2
sg4
F2412.87543806779
sg5
(dp3489
g7
(F0.0
F0.0
tp3490
sg9
(F0.0
F0.0
tp3491
sg11
(F-1.486e-05
F3.845e-06
tp3492
ssg13
I5605
sg14
F0.4304863
sg15
I8
sg16
(lp3493
sg19
(dp3494
g21
(F0.1949
F0.0759
tp3495
sg23
(F-6.2504
F3.5287
tp3496
sg25
(F4.4373
F1.5819
tp3497
sg27
(F1.3427
F0.1418
tp3498
sg29
(F109.8103
F0.1044
tp3499
sg31
(F84.1755
F0.0556
tp3500
sg33
(F2.2667
F0.0484
tp3501
sssS'2MASXJ15064412+0351444'
p3502
(dp3503
g3
I2
sg4
F2629.77752592918
sg5
(dp3504
g7
(F0.0
F0.0
tp3505
sg9
(F0.0
F0.0
tp3506
sg11
(F1.944e-05
F1.13e-05
tp3507
ssg13
I5005
sg14
F0.5254301
sg15
I8
sg16
(lp3508
g57
ag18
asg19
(dp3509
g21
(F0.029
Finf
tp3510
sg23
(F49.3367
F4.02
tp3511
sg25
(F14.0758
Finf
tp3512
sg27
(F1.7449
F6.3194
tp3513
sg29
(F93.2942
F0.285
tp3514
sg31
(F70.8935
F0.3196
tp3515
sg33
(F2.2099
F2.048
tp3516
sssS'ESO195-IG021NED03'
p3517
(dp3518
g3
I2
sg4
F3703.35425709005
sg5
(dp3519
g7
(F0.0
F0.0
tp3520
sg9
(F0.0
F0.0
tp3521
sg11
(F-3.27e-05
F1.347e-05
tp3522
ssg13
I4977
sg14
F0.7440937
sg15
I8
sg16
(lp3523
g18
asg19
(dp3524
g21
(F0.5142
F0.0697
tp3525
sg23
(F-6.4101
F5.7138
tp3526
sg25
(F18.2971
Finf
tp3527
sg27
(F0.6705
F0.1628
tp3528
sg29
(F90.5546
F0.0731
tp3529
sg31
(F70.7388
F0.0652
tp3530
sg33
(F-0.0697
F0.2714
tp3531
sssS'2MASXJ01064523+0638015'
p3532
(dp3533
g3
I2
sg4
F2639.99311566821
sg5
(dp3534
g7
(F0.0
F0.0
tp3535
sg9
(F0.0
F0.0
tp3536
sg11
(F6.22e-05
F1.113e-05
tp3537
ssg13
I4981
sg14
F0.5300127
sg15
I8
sg16
(lp3538
g57
ag18
asg19
(dp3539
g21
(F0.0484
Finf
tp3540
sg23
(F-13.5907
F9955.5557
tp3541
sg25
(F0.3738
F381.5032
tp3542
sg27
(F0.9405
F1259.4352
tp3543
sg29
(F89.4476
F0.7592
tp3544
sg31
(F70.7062
F2.0021
tp3545
sg33
(F2.9067
F1370.2549
tp3546
sssS'Mrk975'
p3547
(dp3548
g3
I2
sg4
F2347.91141118451
sg5
(dp3549
g7
(F0.0
F0.0
tp3550
sg9
(F0.0
F0.0
tp3551
sg11
(F-2.14e-06
F1.086e-05
tp3552
ssg13
I5014
sg14
F0.4682711
sg15
I8
sg16
(lp3553
sg19
(dp3554
g21
(F0.6617
F0.0214
tp3555
sg23
(F39.0562
F2.7897
tp3556
sg25
(F1.0294
F0.152
tp3557
sg27
(F1.6343
F0.0378
tp3558
sg29
(F92.2445
F0.0148
tp3559
sg31
(F71.6602
F0.0197
tp3560
sg33
(F-0.0654
F0.0065
tp3561
sssS'ESO509-G038'
p3562
(dp3563
g16
(lp3564
g789
assS'UGC10593'
p3565
(dp3566
g3
I2
sg4
F2481.50852672635
sg5
(dp3567
g7
(F0.0
F0.0
tp3568
sg9
(F0.0
F0.0
tp3569
sg11
(F7.691e-06
F1.114e-05
tp3570
ssg13
I4979
sg14
F0.498395
sg15
I8
sg16
(lp3571
sg19
(dp3572
g21
(F0.4316
F0.0178
tp3573
sg23
(F77.6029
F1.2749
tp3574
sg25
(F1.3891
F0.1256
tp3575
sg27
(F3.4683
F0.0733
tp3576
sg29
(F91.1428
F0.0401
tp3577
sg31
(F69.2831
F0.0293
tp3578
sg33
(F0.0945
F0.015
tp3579
sssS'2MASXJ14080674-3023537'
p3580
(dp3581
g3
I2
sg4
F2106.20817001013
sg5
(dp3582
g7
(F0.0
F0.0
tp3583
sg9
(F0.0
F0.0
tp3584
sg11
(F-0.0002022
F5.555e-05
tp3585
ssg13
I4926
sg14
F0.4275697
sg15
I8
sg16
(lp3586
g57
asg19
(dp3587
g21
(F0.2894
F0.0416
tp3588
sg23
(F18.3275
F2.6296
tp3589
sg25
(F3.227
F2.2782
tp3590
sg27
(F187.0571
F450.5067
tp3591
sg29
(F93.2304
F0.2602
tp3592
sg31
(F59.9484
F0.751
tp3593
sg33
(F-1.5821
F2.3539
tp3594
sssS'MCG+02-21-013'
p3595
(dp3596
g3
I2
sg4
F41154.9729364423
sg5
(dp3597
g7
(F0.0
F0.0
tp3598
sg9
(F0.0
F0.0
tp3599
sg11
(F0.00192
F3.577e-05
tp3600
ssg13
I5002
sg14
F8.227703
sg15
I8
sg16
(lp3601
g18
asg19
(dp3602
g21
(F0.0783
Finf
tp3603
sg23
(F-62.9075
F14.6745
tp3604
sg25
(F0.1081
F0.7581
tp3605
sg27
(F2.0639
F0.4687
tp3606
sg29
(F91.9251
F0.0973
tp3607
sg31
(F70.8129
F0.3221
tp3608
sg33
(F-0.2976
F1.0968
tp3609
sssS'Ark120'
p3610
(dp3611
g3
I2
sg4
F2230.87359932329
sg5
(dp3612
g7
(F0.0
F0.0
tp3613
sg9
(F0.0
F0.0
tp3614
sg11
(F1.22e-05
F1.067e-05
tp3615
ssg13
I4970
sg14
F0.4488679
sg15
I8
sg16
(lp3616
sg19
(dp3617
g21
(F0.854
F0.0269
tp3618
sg23
(F84.1856
F7.2789
tp3619
sg25
(F1.5345
F0.1669
tp3620
sg27
(F1.5985
F0.0417
tp3621
sg29
(F90.407
F0.0169
tp3622
sg31
(F70.2049
F0.0178
tp3623
sg33
(F-0.0775
F0.0078
tp3624
sssS'NGC5995'
p3625
(dp3626
g3
I2
sg4
F4513.24613295072
sg5
(dp3627
g7
(F0.0
F0.0
tp3628
sg9
(F0.0
F0.0
tp3629
sg11
(F0.000192
F1.544e-05
tp3630
ssg13
I4999
sg14
F0.9028298
sg15
I8
sg16
(lp3631
sg19
(dp3632
g21
(F0.7716
F0.0111
tp3633
sg23
(F32.3259
F1.9931
tp3634
sg25
(F2.4208
F0.1177
tp3635
sg27
(F1.6935
F0.0278
tp3636
sg29
(F92.4158
F0.0125
tp3637
sg31
(F70.2084
F0.0147
tp3638
sg33
(F-1.8317
F0.0053
tp3639
sssS'IRAS04124-0803'
p3640
(dp3641
g3
I2
sg4
F2326.87447399733
sg5
(dp3642
g7
(F0.0
F0.0
tp3643
sg9
(F0.0
F0.0
tp3644
sg11
(F-5.403e-05
F1.045e-05
tp3645
ssg13
I5001
sg14
F0.4652818
sg15
I8
sg16
(lp3646
sg19
(dp3647
g21
(F0.4136
F0.1468
tp3648
sg23
(F-64.0672
F6.3899
tp3649
sg25
(F1.0051
F0.8063
tp3650
sg27
(F1.0
F0.1656
tp3651
sg29
(F93.102
F0.0366
tp3652
sg31
(F69.9445
F0.0423
tp3653
sg33
(F1.0548
F0.0138
tp3654
sssS'Mrk1018'
p3655
(dp3656
g3
I2
sg4
F2315.79604146689
sg5
(dp3657
g7
(F0.0
F0.0
tp3658
sg9
(F0.0
F0.0
tp3659
sg11
(F-1.029e-05
F1.045e-05
tp3660
ssg13
I4993
sg14
F0.4638085
sg15
I8
sg16
(lp3661
g57
ag18
asg19
(dp3662
g21
(F0.0221
Finf
tp3663
sg23
(F-44.6357
F16.9767
tp3664
sg25
(F3.8877
F3.7552
tp3665
sg27
(F2.2376
F4.7153
tp3666
sg29
(F89.8247
F0.4347
tp3667
sg31
(F71.4254
F0.7121
tp3668
sg33
(F2.3206
F0.6521
tp3669
sssS'2MASXJ03540948+0249307'
p3670
(dp3671
g3
I2
sg4
F74325.6532590159
sg5
(dp3672
g7
(F0.0
F0.0
tp3673
sg9
(F0.0
F0.0
tp3674
sg11
(F0.0002068
F3.29e-05
tp3675
ssg13
I4981
sg14
F14.92183
sg15
I8
sg16
(lp3676
g57
ag18
asg19
(dp3677
g21
(F0.0411
Finf
tp3678
sg23
(F73.537
F6.3223
tp3679
sg25
(F8.5301
F23.2486
tp3680
sg27
(F6.761
F22.0299
tp3681
sg29
(F93.3726
F2.6261
tp3682
sg31
(F66.4051
F0.4684
tp3683
sg33
(F1.0287
F0.9453
tp3684
sssS'IC1816'
p3685
(dp3686
g3
I2
sg4
F6977.47441333469
sg5
(dp3687
g7
(F0.0
F0.0
tp3688
sg9
(F0.0
F0.0
tp3689
sg11
(F0.0001748
F1.813e-05
tp3690
ssg13
I4998
sg14
F1.396053
sg15
I8
sg16
(lp3691
sg19
(dp3692
g21
(F0.7925
F0.0157
tp3693
sg23
(F46.1516
F3.2859
tp3694
sg25
(F0.8896
F0.075
tp3695
sg27
(F2.2517
F0.0399
tp3696
sg29
(F92.5874
F0.0176
tp3697
sg31
(F70.1524
F0.0199
tp3698
sg33
(F-0.9321
F0.007
tp3699
sssS'NGC7213'
p3700
(dp3701
g3
I2
sg4
F37987.6383193078
sg5
(dp3702
g7
(F0.0
F0.0
tp3703
sg9
(F0.0
F0.0
tp3704
sg11
(F0.001225
F4.373e-05
tp3705
ssg13
I4965
sg14
F7.651085
sg15
I8
sg16
(lp3706
sg19
(dp3707
g21
(F0.9277
F0.0123
tp3708
sg23
(F-30.6898
F7.3061
tp3709
sg25
(F0.2711
F0.0169
tp3710
sg27
(F8.0422
F0.1027
tp3711
sg29
(F94.0191
F0.0893
tp3712
sg31
(F68.2676
F0.0933
tp3713
sg33
(F-2.0948
F0.0118
tp3714
sssS'Mrk595'
p3715
(dp3716
g3
I2
sg4
F30604.809138532
sg5
(dp3717
g7
(F0.0
F0.0
tp3718
sg9
(F0.0
F0.0
tp3719
sg11
(F0.002298
F1.611e-05
tp3720
ssg13
I4931
sg14
F6.206613
sg15
I8
sg16
(lp3721
sg19
(dp3722
g21
(F0.2748
F0.2332
tp3723
sg23
(F-20.1879
F13.1645
tp3724
sg25
(F0.051
F1.19
tp3725
sg27
(F2.4751
F13.7235
tp3726
sg29
(F90.5072
F0.1209
tp3727
sg31
(F70.5284
F0.157
tp3728
sg33
(F0.867
F0.0825
tp3729
sssS'NGC3081'
p3730
(dp3731
g3
I2
sg4
F24750.193639487
sg5
(dp3732
g7
(F0.0
F0.0
tp3733
sg9
(F0.0
F0.0
tp3734
sg11
(F-0.0001885
F3.157e-05
tp3735
ssg13
I5539
sg14
F4.46835
sg15
I8
sg16
(lp3736
g18
asg19
(dp3737
g21
(F0.5128
F0.0088
tp3738
sg23
(F-20.6721
F0.7148
tp3739
sg25
(F19.9863
Finf
tp3740
sg27
(F640.2225
F841.3767
tp3741
sg29
(F110.4557
F0.0209
tp3742
sg31
(F84.8449
F0.0255
tp3743
sg33
(F-3.602
F0.489
tp3744
sssS'NGC6240'
p3745
(dp3746
g3
I2
sg4
F9078.37869002304
sg5
(dp3747
g7
(F0.0
F0.0
tp3748
sg9
(F0.0
F0.0
tp3749
sg11
(F-5.253e-05
F1.972e-05
tp3750
ssg13
I5768
sg14
F1.573921
sg15
I8
sg16
(lp3751
sg19
(dp3752
g21
(F0.7942
F0.0128
tp3753
sg23
(F50.6068
F2.0783
tp3754
sg25
(F1.045
F0.0456
tp3755
sg27
(F3.4897
F0.0596
tp3756
sg29
(F113.4047
F0.034
tp3757
sg31
(F128.6396
F0.0313
tp3758
sg33
(F-2.4417
F0.0091
tp3759
sssS'Mrk79'
p3760
(dp3761
g3
I2
sg4
F3573.270769218
sg5
(dp3762
g7
(F0.0
F0.0
tp3763
sg9
(F0.0
F0.0
tp3764
sg11
(F-6.272e-05
F1.344e-05
tp3765
ssg13
I4994
sg14
F0.7155128
sg15
I8
sg16
(lp3766
sg19
(dp3767
g21
(F0.4069
F0.0074
tp3768
sg23
(F-29.6281
F0.5727
tp3769
sg25
(F1.2168
F0.0385
tp3770
sg27
(F5.3404
F0.0803
tp3771
sg29
(F92.4414
F0.02
tp3772
sg31
(F70.4451
F0.0316
tp3773
sg33
(F-0.8791
F0.0103
tp3774
sssS'MCG-02-02-095'
p3775
(dp3776
g3
I2
sg4
F2493.9150118669
sg5
(dp3777
g7
(F0.0
F0.0
tp3778
sg9
(F0.0
F0.0
tp3779
sg11
(F7.551e-05
F1.105e-05
tp3780
ssg13
I5016
sg14
F0.497192
sg15
I8
sg16
(lp3781
g57
asg19
(dp3782
g21
(F0.2267
F0.0429
tp3783
sg23
(F47.6992
F2.4833
tp3784
sg25
(F0.4836
F0.2169
tp3785
sg27
(F5.4355
F0.4016
tp3786
sg29
(F93.7992
F0.2149
tp3787
sg31
(F70.1981
F0.2071
tp3788
sg33
(F1.9556
F0.0473
tp3789
sssS'1RXSJ044154.5-082639'
p3790
(dp3791
g3
I2
sg4
F2814.56176907498
sg5
(dp3792
g7
(F0.0
F0.0
tp3793
sg9
(F0.0
F0.0
tp3794
sg11
(F1.74e-05
F1.164e-05
tp3795
ssg13
I5020
sg14
F0.5606697
sg15
I8
sg16
(lp3796
g18
asg19
(dp3797
g21
(F0.3923
F19693.5273
tp3798
sg23
(F57.1849
F598666.625
tp3799
sg25
(F0.0551
F985.1805
tp3800
sg27
(F0.4815
Finf
tp3801
sg29
(F92.1074
F1521.5732
tp3802
sg31
(F72.5681
F942847.625
tp3803
sg33
(F2.3276
F60.937
tp3804
sssS'6dFJ0626586-370559'
p3805
(dp3806
g3
I2
sg4
F2829.21533511832
sg5
(dp3807
g7
(F0.0
F0.0
tp3808
sg9
(F0.0
F0.0
tp3809
sg11
(F5.276e-06
F1.175e-05
tp3810
ssg13
I5011
sg14
F0.5646009
sg15
I8
sg16
(lp3811
sg19
(dp3812
g21
(F0.1005
F67.7439
tp3813
sg23
(F-33.5742
F224.9973
tp3814
sg25
(F0.3897
F8.6344
tp3815
sg27
(F1.161
F6.3187
tp3816
sg29
(F92.9579
F0.029
tp3817
sg31
(F69.947
F0.0286
tp3818
sg33
(F1.0837
F31.4036
tp3819
sssS'MCG-05-23-016'
p3820
(dp3821
g16
(lp3822
g789
assS'2MASXJ12475784-5829599'
p3823
(dp3824
g3
I2
sg4
F7068.72371900424
sg5
(dp3825
g7
(F0.0
F0.0
tp3826
sg9
(F0.0
F0.0
tp3827
sg11
(F0.0002684
F1.898e-05
tp3828
ssg13
I4904
sg14
F1.44142
sg15
I8
sg16
(lp3829
g18
asg19
(dp3830
g21
(F0.2624
F327.8188
tp3831
sg23
(F-12.7341
F21847.4824
tp3832
sg25
(F3.7043
F1423.2347
tp3833
sg27
(F0.0112
Finf
tp3834
sg29
(F87.5805
F44.0801
tp3835
sg31
(F67.8008
F6.4561
tp3836
sg33
(F1.9977
F574.9899
tp3837
sssS'2MASXJ13411287-1438407'
p3838
(dp3839
g3
I2
sg4
F2331.73760515672
sg5
(dp3840
g7
(F0.0
F0.0
tp3841
sg9
(F0.0
F0.0
tp3842
sg11
(F-5.93e-05
F1.045e-05
tp3843
ssg13
I5010
sg14
F0.4654167
sg15
I8
sg16
(lp3844
sg19
(dp3845
g21
(F0.4832
F0.031
tp3846
sg23
(F14.6448
F2.9021
tp3847
sg25
(F0.6923
F0.1281
tp3848
sg27
(F3.8255
F0.1714
tp3849
sg29
(F93.207
F0.0684
tp3850
sg31
(F70.0215
F0.1111
tp3851
sg33
(F1.4015
F0.0298
tp3852
sssS'2MASXJ13512953-1813468'
p3853
(dp3854
g3
I2
sg4
F2211.6238763157
sg5
(dp3855
g7
(F0.0
F0.0
tp3856
sg9
(F0.0
F0.0
tp3857
sg11
(F-0.0006898
F6.352e-05
tp3858
ssg13
I5019
sg14
F0.4406503
sg15
I8
sg16
(lp3859
g57
ag18
asg19
(dp3860
g21
(F0.2689
F0.0306
tp3861
sg23
(F-74.9822
F0.7956
tp3862
sg25
(F0.0484
Finf
tp3863
sg27
(F75.697
F2315.8909
tp3864
sg29
(F98.9354
F6.4705
tp3865
sg31
(F72.4693
F1.6413
tp3866
sg33
(F-2.1878
F66.4388
tp3867
sssS'CenA'
p3868
(dp3869
g3
I2
sg4
F1552612.51787637
sg5
(dp3870
g7
(F0.0
F0.0
tp3871
sg9
(F0.0
F0.0
tp3872
sg11
(F0.0002344
F1.495e-05
tp3873
ssg13
I95782
sg14
F16.20986
sg15
I8
sg16
(lp3874
sg19
(dp3875
g21
(F0.3305
F0.0006
tp3876
sg23
(F-29.47
F0.045
tp3877
sg25
(F1.1152
F0.006
tp3878
sg27
(F39.4767
F0.0856
tp3879
sg29
(F469.5
F0.0289
tp3880
sg31
(F468.338
F0.0504
tp3881
sg33
(F-6.9548
F0.0018
tp3882
sssS'2E1739.1-1210'
p3883
(dp3884
g3
I2
sg4
F3001.4817806149
sg5
(dp3885
g7
(F0.0
F0.0
tp3886
sg9
(F0.0
F0.0
tp3887
sg11
(F-0.0001573
F1.676e-05
tp3888
ssg13
I5009
sg14
F0.5992178
sg15
I8
sg16
(lp3889
g18
asg19
(dp3890
g21
(F0.5345
F0.0329
tp3891
sg23
(F66.0281
F2.5086
tp3892
sg25
(F10.1975
Finf
tp3893
sg27
(F10.4712
F6.5826
tp3894
sg29
(F92.7457
F0.0345
tp3895
sg31
(F70.6149
F0.0407
tp3896
sg33
(F-0.5067
F0.2457
tp3897
sssS'CGCG493-002'
p3898
(dp3899
g3
I2
sg4
F2398.57666123323
sg5
(dp3900
g7
(F0.0
F0.0
tp3901
sg9
(F0.0
F0.0
tp3902
sg11
(F4.847e-05
F1.096e-05
tp3903
ssg13
I4956
sg14
F0.4839743
sg15
I8
sg16
(lp3904
sg19
(dp3905
g21
(F0.1498
F0.2386
tp3906
sg23
(F-57.3141
F4.5549
tp3907
sg25
(F0.207
F0.6629
tp3908
sg27
(F1.6032
F0.2882
tp3909
sg29
(F92.433
F0.0371
tp3910
sg31
(F70.5051
F0.0319
tp3911
sg33
(F1.0777
F0.0219
tp3912
sssS'CGCG535-012'
p3913
(dp3914
g3
I2
sg4
F2881.52657629544
sg5
(dp3915
g7
(F0.0
F0.0
tp3916
sg9
(F0.0
F0.0
tp3917
sg11
(F-2.446e-05
F1.171e-05
tp3918
ssg13
I5009
sg14
F0.5752698
sg15
I8
sg16
(lp3919
g18
asg19
(dp3920
g21
(F0.0412
Finf
tp3921
sg23
(F-70.9074
F33.484
tp3922
sg25
(F1.4793
F2.3663
tp3923
sg27
(F1.0149
F0.6544
tp3924
sg29
(F92.8109
F0.4704
tp3925
sg31
(F70.34
F0.324
tp3926
sg33
(F2.1509
F0.734
tp3927
sssS'ESO511-G030'
p3928
(dp3929
g3
I2
sg4
F3202.10145476765
sg5
(dp3930
g7
(F0.0
F0.0
tp3931
sg9
(F0.0
F0.0
tp3932
sg11
(F2.812e-05
F1.262e-05
tp3933
ssg13
I5001
sg14
F0.6402922
sg15
I8
sg16
(lp3934
sg19
(dp3935
g21
(F0.7555
F0.0076
tp3936
sg23
(F54.3542
F1.7111
tp3937
sg25
(F0.6653
F0.0205
tp3938
sg27
(F7.5147
F0.1135
tp3939
sg29
(F93.6637
F0.0471
tp3940
sg31
(F69.7273
F0.0417
tp3941
sg33
(F-0.8806
F0.0122
tp3942
sssS'2MASXJ04440903+2813003'
p3943
(dp3944
g3
I2
sg4
F9177.91370703497
sg5
(dp3945
g7
(F0.0
F0.0
tp3946
sg9
(F0.0
F0.0
tp3947
sg11
(F-0.0001691
F2.144e-05
tp3948
ssg13
I4959
sg14
F1.850759
sg15
I8
sg16
(lp3949
sg19
(dp3950
g21
(F0.4951
F0.0209
tp3951
sg23
(F-6.1955
F1.6249
tp3952
sg25
(F2.707
F0.2711
tp3953
sg27
(F2.4852
F0.0762
tp3954
sg29
(F92.4854
F0.0298
tp3955
sg31
(F70.206
F0.0334
tp3956
sg33
(F-1.0123
F0.0158
tp3957
sssS'AXJ1737.4-2907'
p3958
(dp3959
g3
I2
sg4
F38556.6346525339
sg5
(dp3960
g7
(F0.0
F0.0
tp3961
sg9
(F0.0
F0.0
tp3962
sg11
(F0.0002036
F4.407e-05
tp3963
ssg13
I4981
sg14
F7.740742
sg15
I8
sg16
(lp3964
g57
ag18
asg19
(dp3965
g21
(F0.0366
Finf
tp3966
sg23
(F-33.2512
F32.118
tp3967
sg25
(F3.7909
F14.6099
tp3968
sg27
(F1.5001
F1.615
tp3969
sg29
(F94.134
F0.5984
tp3970
sg31
(F71.2708
F1.6922
tp3971
sg33
(F1.9886
F0.8289
tp3972
sssS'Mrk926'
p3973
(dp3974
g3
I2
sg4
F9283.81553527931
sg5
(dp3975
g7
(F0.0
F0.0
tp3976
sg9
(F0.0
F0.0
tp3977
sg11
(F0.001157
F1.189e-05
tp3978
ssg13
I4970
sg14
F1.867971
sg15
I8
sg16
(lp3979
g18
asg19
(dp3980
g21
(F0.1744
F0.5563
tp3981
sg23
(F-4.6354
F18.6402
tp3982
sg25
(F0.0277
Finf
tp3983
sg27
(F3.0042
F21.1905
tp3984
sg29
(F92.3098
F0.0294
tp3985
sg31
(F71.1241
F0.1058
tp3986
sg33
(F0.7077
F0.9274
tp3987
sssS'ESO479-G031'
p3988
(dp3989
g3
I2
sg4
F4145.98621998751
sg5
(dp3990
g7
(F0.0
F0.0
tp3991
sg9
(F0.0
F0.0
tp3992
sg11
(F2.814e-05
F1.369e-05
tp3993
ssg13
I5008
sg14
F0.8278726
sg15
I8
sg16
(lp3994
g57
ag18
asg19
(dp3995
g21
(F0.092
Finf
tp3996
sg23
(F-31.6478
F45.2287
tp3997
sg25
(F0.767
F3.6037
tp3998
sg27
(F1.0235
F1.9501
tp3999
sg29
(F92.5153
F0.1634
tp4000
sg31
(F70.2561
F0.1516
tp4001
sg33
(F2.5963
F2.647
tp4002
sssS'MCG+12-10-067'
p4003
(dp4004
g3
I2
sg4
F6276.4180862383
sg5
(dp4005
g7
(F0.0
F0.0
tp4006
sg9
(F0.0
F0.0
tp4007
sg11
(F-4.315e-05
F1.811e-05
tp4008
ssg13
I4932
sg14
F1.272591
sg15
I8
sg16
(lp4009
sg19
(dp4010
g21
(F0.2907
F0.0138
tp4011
sg23
(F-81.0426
F0.7216
tp4012
sg25
(F1.4556
F0.0943
tp4013
sg27
(F3.3926
F0.0579
tp4014
sg29
(F93.2275
F0.031
tp4015
sg31
(F68.5356
F0.0237
tp4016
sg33
(F-0.8487
F0.0081
tp4017
sssS'MCG-02-08-014'
p4018
(dp4019
g3
I2
sg4
F17267.233159098
sg5
(dp4020
g7
(F0.0
F0.0
tp4021
sg9
(F0.0
F0.0
tp4022
sg11
(F0.0008161
F2.666e-05
tp4023
ssg13
I5000
sg14
F3.453447
sg15
I8
sg16
(lp4024
g18
asg19
(dp4025
g21
(F0.0683
Finf
tp4026
sg23
(F32.8094
F12.14
tp4027
sg25
(F0.6165
F0.7918
tp4028
sg27
(F1.7322
F0.7501
tp4029
sg29
(F92.6129
F0.0891
tp4030
sg31
(F69.3862
F0.0889
tp4031
sg33
(F0.8209
F0.0816
tp4032
sssS'ESO137-34'
p4033
(dp4034
g3
I2
sg4
F7615.30402434884
sg5
(dp4035
g7
(F0.0
F0.0
tp4036
sg9
(F0.0
F0.0
tp4037
sg11
(F-5.011e-05
F2.019e-05
tp4038
ssg13
I5004
sg14
F1.521843
sg15
I8
sg16
(lp4039
sg19
(dp4040
g21
(F0.8163
F0.0049
tp4041
sg23
(F-66.0803
F1.3639
tp4042
sg25
(F0.1993
F0.0073
tp4043
sg27
(F10.1675
F0.0566
tp4044
sg29
(F92.9112
F0.0517
tp4045
sg31
(F70.669
F0.0545
tp4046
sg33
(F-1.8633
F0.008
tp4047
sssS'Mrk590'
p4048
(dp4049
g3
I2
sg4
F67228.6891296902
sg5
(dp4050
g7
(F0.0
F0.0
tp4051
sg9
(F0.0
F0.0
tp4052
sg11
(F0.003636
F2.769e-05
tp4053
ssg13
I5014
sg14
F13.40819
sg15
I8
sg16
(lp4054
sg19
(dp4055
g21
(F0.6181
F0.0753
tp4056
sg23
(F-66.4406
F6.7407
tp4057
sg25
(F0.0541
F0.3124
tp4058
sg27
(F3.6003
F2.4148
tp4059
sg29
(F91.9113
F0.1621
tp4060
sg31
(F70.8027
F0.1351
tp4061
sg33
(F-0.0951
F0.0489
tp4062
sssS'2MASSJ07594181-3843560'
p4063
(dp4064
g3
I2
sg4
F10883.9967512811
sg5
(dp4065
g7
(F0.0
F0.0
tp4066
sg9
(F0.0
F0.0
tp4067
sg11
(F-0.0006102
F2.151e-05
tp4068
ssg13
I5016
sg14
F2.169856
sg15
I8
sg16
(lp4069
g57
ag18
asg19
(dp4070
g21
(F0.0398
Finf
tp4071
sg23
(F34.6906
F14.6733
tp4072
sg25
(F19.9877
Finf
tp4073
sg27
(F1.1108
F3.3286
tp4074
sg29
(F90.5552
F0.6625
tp4075
sg31
(F78.767
F0.3673
tp4076
sg33
(F1.9966
F2.2352
tp4077
sssS'IC2921'
p4078
(dp4079
g3
I2
sg4
F2432.8070904085
sg5
(dp4080
g7
(F0.0
F0.0
tp4081
sg9
(F0.0
F0.0
tp4082
sg11
(F-4.745e-05
F1.083e-05
tp4083
ssg13
I5011
sg14
F0.4854933
sg15
I8
sg16
(lp4084
g57
ag18
asg19
(dp4085
g21
(F0.041
Finf
tp4086
sg23
(F18.9108
F56.4234
tp4087
sg25
(F0.4855
F0.6198
tp4088
sg27
(F2.1586
F3.1087
tp4089
sg29
(F92.5961
F0.159
tp4090
sg31
(F70.3454
F0.1259
tp4091
sg33
(F2.2866
F2.8289
tp4092
sssS'NGC4941'
p4093
(dp4094
g3
I2
sg4
F8488.26548415808
sg5
(dp4095
g7
(F0.0
F0.0
tp4096
sg9
(F0.0
F0.0
tp4097
sg11
(F-0.0005636
F0.0001053
tp4098
ssg13
I5012
sg14
F1.693588
sg15
I8
sg16
(lp4099
g18
asg19
(dp4100
g21
(F0.3944
F0.0108
tp4101
sg23
(F-72.8755
F0.8283
tp4102
sg25
(F11.9782
Finf
tp4103
sg27
(F2504.5601
F7066.9141
tp4104
sg29
(F92.4684
F0.0683
tp4105
sg31
(F70.2753
F0.0477
tp4106
sg33
(F-4.7499
F1.67
tp4107
sssS'MCG-03-04-072'
p4108
(dp4109
g3
I2
sg4
F2710.57700377845
sg5
(dp4110
g7
(F0.0
F0.0
tp4111
sg9
(F0.0
F0.0
tp4112
sg11
(F6.485e-07
F1.134e-05
tp4113
ssg13
I5015
sg14
F0.5404939
sg15
I8
sg16
(lp4114
sg19
(dp4115
g21
(F0.9271
F0.0853
tp4116
sg23
(F-75.0175
F40.9549
tp4117
sg25
(F0.2247
F0.3417
tp4118
sg27
(F2.0612
F0.1457
tp4119
sg29
(F91.4787
F0.0738
tp4120
sg31
(F71.9719
F0.0819
tp4121
sg33
(F1.7088
F0.0262
tp4122
sssS'ESO197-G027'
p4123
(dp4124
g3
I2
sg4
F2360.40853775625
sg5
(dp4125
g7
(F0.0
F0.0
tp4126
sg9
(F0.0
F0.0
tp4127
sg11
(F2.151e-05
F1.093e-05
tp4128
ssg13
I5018
sg14
F0.4703883
sg15
I8
sg16
(lp4129
sg19
(dp4130
g21
(F0.2852
F0.0134
tp4131
sg23
(F-10.7734
F0.6314
tp4132
sg25
(F0.6283
F0.0533
tp4133
sg27
(F2.8315
F0.0295
tp4134
sg29
(F92.539
F0.0149
tp4135
sg31
(F70.9088
F0.0233
tp4136
sg33
(F-0.3281
F0.0056
tp4137
sssS'PKS2331-240'
p4138
(dp4139
g16
(lp4140
g789
assS'2MASXJ23272195+1524375'
p4141
(dp4142
g16
(lp4143
g789
assS'KAZ320'
p4144
(dp4145
g3
I2
sg4
F2313.22519430021
sg5
(dp4146
g7
(F0.0
F0.0
tp4147
sg9
(F0.0
F0.0
tp4148
sg11
(F-6.079e-05
F1.059e-05
tp4149
ssg13
I5006
sg14
F0.4620905
sg15
I8
sg16
(lp4150
g18
asg19
(dp4151
g21
(F0.9547
F0.6796
tp4152
sg23
(F-13.5655
F664.3279
tp4153
sg25
(F0.9849
F17.4088
tp4154
sg27
(F0.3829
Finf
tp4155
sg29
(F92.6319
F0.0655
tp4156
sg31
(F70.8077
F0.0706
tp4157
sg33
(F1.6028
F0.0222
tp4158
sssS'WKK1263'
p4159
(dp4160
g3
I2
sg4
F2920.91092396559
sg5
(dp4161
g7
(F0.0
F0.0
tp4162
sg9
(F0.0
F0.0
tp4163
sg11
(F-0.0001391
F1.21e-05
tp4164
ssg13
I5024
sg14
F0.5813915
sg15
I8
sg16
(lp4165
sg19
(dp4166
g21
(F0.5945
F0.0196
tp4167
sg23
(F-6.2947
F2.3063
tp4168
sg25
(F0.3642
F0.1224
tp4169
sg27
(F2.1954
F0.0573
tp4170
sg29
(F93.8162
F0.0252
tp4171
sg31
(F79.1183
F0.0322
tp4172
sg33
(F0.2793
F0.0088
tp4173
sssS'MCG+04-22-042'
p4174
(dp4175
g3
I2
sg4
F2660.31461922449
sg5
(dp4176
g7
(F0.0
F0.0
tp4177
sg9
(F0.0
F0.0
tp4178
sg11
(F-2.294e-05
F1.17e-05
tp4179
ssg13
I5011
sg14
F0.5308949
sg15
I8
sg16
(lp4180
sg19
(dp4181
g21
(F0.5804
F0.0202
tp4182
sg23
(F87.9267
F2.2781
tp4183
sg25
(F0.1434
F0.0605
tp4184
sg27
(F3.8876
F0.0959
tp4185
sg29
(F92.3581
F0.0788
tp4186
sg31
(F69.5197
F0.0572
tp4187
sg33
(F0.9012
F0.0147
tp4188
sssS'IRAS03219+4031'
p4189
(dp4190
g3
I2
sg4
F3882.62278802404
sg5
(dp4191
g7
(F0.0
F0.0
tp4192
sg9
(F0.0
F0.0
tp4193
sg11
(F-0.0001087
F1.373e-05
tp4194
ssg13
I4964
sg14
F0.7821561
sg15
I8
sg16
(lp4195
sg19
(dp4196
g21
(F0.438
F0.0435
tp4197
sg23
(F-86.112
F3.0815
tp4198
sg25
(F5.1456
F1.0795
tp4199
sg27
(F1.2304
F0.0815
tp4200
sg29
(F93.4489
F0.0395
tp4201
sg31
(F69.0805
F0.0482
tp4202
sg33
(F-0.0731
F0.0226
tp4203
sssS'UGC03142'
p4204
(dp4205
g3
I2
sg4
F5053.45881925444
sg5
(dp4206
g7
(F0.0
F0.0
tp4207
sg9
(F0.0
F0.0
tp4208
sg11
(F-0.0004396
F1.618e-05
tp4209
ssg13
I5006
sg14
F1.00948
sg15
I8
sg16
(lp4210
sg19
(dp4211
g21
(F0.8741
F0.0105
tp4212
sg23
(F-45.7347
F3.6189
tp4213
sg25
(F0.3115
F0.0209
tp4214
sg27
(F4.9672
F0.0544
tp4215
sg29
(F92.2835
F0.0322
tp4216
sg31
(F69.571
F0.0335
tp4217
sg33
(F-0.8526
F0.0067
tp4218
sssS'NGC5033'
p4219
(dp4220
g3
I2
sg4
F78269.4299723607
sg5
(dp4221
g7
(F0.0
F0.0
tp4222
sg9
(F0.0
F0.0
tp4223
sg11
(F0.001677
F5.114e-05
tp4224
ssg13
I5670
sg14
F13.80413
sg15
I8
sg16
(lp4225
sg19
(dp4226
g21
(F0.228
F0.0016
tp4227
sg23
(F53.6515
F0.1294
tp4228
sg25
(F1.9562
F0.0276
tp4229
sg27
(F15.5657
F0.1629
tp4230
sg29
(F91.9038
F0.0324
tp4231
sg31
(F71.1916
F0.0275
tp4232
sg33
(F-4.37
F0.0063
tp4233
sssS'ESO509-IG066NED01'
p4234
(dp4235
g3
I2
sg4
F3129.18566494951
sg5
(dp4236
g7
(F0.0
F0.0
tp4237
sg9
(F0.0
F0.0
tp4238
sg11
(F1.905e-05
F1.261e-05
tp4239
ssg13
I5005
sg14
F0.6252119
sg15
I8
sg16
(lp4240
sg19
(dp4241
g21
(F0.3996
F0.012
tp4242
sg23
(F-11.7415
F0.808
tp4243
sg25
(F0.8748
F0.0651
tp4244
sg27
(F3.0378
F0.0433
tp4245
sg29
(F92.1535
F0.0193
tp4246
sg31
(F69.8261
F0.0284
tp4247
sg33
(F-0.464
F0.006
tp4248
sssS'2MASXJ03534246+3714077'
p4249
(dp4250
g3
I2
sg4
F4007.76755580783
sg5
(dp4251
g7
(F0.0
F0.0
tp4252
sg9
(F0.0
F0.0
tp4253
sg11
(F1.926e-05
F1.422e-05
tp4254
ssg13
I4978
sg14
F0.8050959
sg15
I8
sg16
(lp4255
sg19
(dp4256
g21
(F0.7284
F0.0635
tp4257
sg23
(F-10.9086
F8.2619
tp4258
sg25
(F1.4161
F0.4682
tp4259
sg27
(F1.0104
F0.0801
tp4260
sg29
(F90.6821
F0.0295
tp4261
sg31
(F71.0172
F0.0307
tp4262
sg33
(F0.0724
F0.0104
tp4263
sssS'MCG+11-11-032'
p4264
(dp4265
g3
I2
sg4
F12892.1028043802
sg5
(dp4266
g7
(F0.0
F0.0
tp4267
sg9
(F0.0
F0.0
tp4268
sg11
(F-0.0001326
F2.43e-05
tp4269
ssg13
I5009
sg14
F2.573788
sg15
I8
sg16
(lp4270
sg19
(dp4271
g21
(F0.2599
F0.0815
tp4272
sg23
(F-12.0931
F3.4562
tp4273
sg25
(F0.5427
F0.289
tp4274
sg27
(F3.2614
F0.2065
tp4275
sg29
(F92.8938
F0.0964
tp4276
sg31
(F70.2457
F0.1634
tp4277
sg33
(F1.0222
F0.0341
tp4278
sssS'ESO383-18'
p4279
(dp4280
g3
I2
sg4
F3576.9296186752
sg5
(dp4281
g7
(F0.0
F0.0
tp4282
sg9
(F0.0
F0.0
tp4283
sg11
(F4.528e-05
F1.316e-05
tp4284
ssg13
I5009
sg14
F0.7141005
sg15
I8
sg16
(lp4285
sg19
(dp4286
g21
(F0.3878
F0.0422
tp4287
sg23
(F-0.0719
F2.8878
tp4288
sg25
(F0.9485
F0.2924
tp4289
sg27
(F1.7555
F0.0739
tp4290
sg29
(F92.3517
F0.0351
tp4291
sg31
(F71.0837
F0.0429
tp4292
sg33
(F0.5163
F0.0125
tp4293
sssS'IGRJ11366-6002'
p4294
(dp4295
g3
I2
sg4
F234132.062211096
sg5
(dp4296
g7
(F0.0
F0.0
tp4297
sg9
(F0.0
F0.0
tp4298
sg11
(F-0.003778
F9.093e-05
tp4299
ssg13
I5020
sg14
F46.63985
sg15
I8
sg16
(lp4300
g18
asg19
(dp4301
g21
(F0.9811
F2451.7705
tp4302
sg23
(F29.8777
F4331972.5
tp4303
sg25
(F3.4042
F994.8204
tp4304
sg27
(F0.0102
Finf
tp4305
sg29
(F93.1266
F21.8486
tp4306
sg31
(F70.2173
F8.0523
tp4307
sg33
(F-0.3913
F233.5269
tp4308
sssS'2MASXJ05020903+0331499'
p4309
(dp4310
g3
I2
sg4
F2781.05485141169
sg5
(dp4311
g7
(F0.0
F0.0
tp4312
sg9
(F0.0
F0.0
tp4313
sg11
(F-0.0001209
F1.867e-05
tp4314
ssg13
I5022
sg14
F0.5537744
sg15
I8
sg16
(lp4315
g57
asg19
(dp4316
g21
(F0.2873
F0.0457
tp4317
sg23
(F47.6119
F3.0686
tp4318
sg25
(F7.781
F6.5431
tp4319
sg27
(F105.8061
F312.2939
tp4320
sg29
(F91.9697
F0.1794
tp4321
sg31
(F71.4906
F0.185
tp4322
sg33
(F-0.2019
F1.6049
tp4323
sssS'NGC985'
p4324
(dp4325
g3
I2
sg4
F223021.404536217
sg5
(dp4326
g7
(F0.0
F0.0
tp4327
sg9
(F0.0
F0.0
tp4328
sg11
(F0.00586
F6.417e-05
tp4329
ssg13
I4948
sg14
F45.07304
sg15
I8
sg16
(lp4330
g18
asg19
(dp4331
g21
(F0.0868
Finf
tp4332
sg23
(F29.3519
F4.1273
tp4333
sg25
(F0.0398
Finf
tp4334
sg27
(F6.4816
F18.0355
tp4335
sg29
(F93.2513
F0.1353
tp4336
sg31
(F71.0355
F0.4813
tp4337
sg33
(F-0.8527
F0.3524
tp4338
sssS'2MASXJ09043699+5536025'
p4339
(dp4340
g3
I2
sg4
F2575.24847053267
sg5
(dp4341
g7
(F0.0
F0.0
tp4342
sg9
(F0.0
F0.0
tp4343
sg11
(F-9.47e-07
F1.104e-05
tp4344
ssg13
I4997
sg14
F0.5153589
sg15
I8
sg16
(lp4345
g57
ag18
asg19
(dp4346
g21
(F0.0601
Finf
tp4347
sg23
(F12.3061
F6.5881
tp4348
sg25
(F4.9482
F6.7336
tp4349
sg27
(F1.3415
F0.4148
tp4350
sg29
(F92.4199
F0.3021
tp4351
sg31
(F71.3203
F0.2968
tp4352
sg33
(F2.2961
F0.1137
tp4353
sssS'NGC526A'
p4354
(dp4355
g3
I2
sg4
F5068.75136895846
sg5
(dp4356
g7
(F0.0
F0.0
tp4357
sg9
(F0.0
F0.0
tp4358
sg11
(F9.502e-05
F1.617e-05
tp4359
ssg13
I4962
sg14
F1.021514
sg15
I8
sg16
(lp4360
sg19
(dp4361
g21
(F0.874
F0.0971
tp4362
sg23
(F1.6311
F27.9793
tp4363
sg25
(F0.1008
F0.6843
tp4364
sg27
(F2.0507
F0.3899
tp4365
sg29
(F92.0934
F0.0807
tp4366
sg31
(F71.6989
F0.092
tp4367
sg33
(F1.3706
F0.3983
tp4368
sssS'NGC3783'
p4369
(dp4370
g3
I2
sg4
F11736.8253631762
sg5
(dp4371
g7
(F0.0
F0.0
tp4372
sg9
(F0.0
F0.0
tp4373
sg11
(F0.000196
F8.921e-06
tp4374
ssg13
I5533
sg14
F2.121241
sg15
I8
sg16
(lp4375
sg19
(dp4376
g21
(F0.8164
F0.0029
tp4377
sg23
(F81.7385
F0.7295
tp4378
sg25
(F0.4266
F0.0062
tp4379
sg27
(F7.0568
F0.0268
tp4380
sg29
(F109.7684
F0.0206
tp4381
sg31
(F83.4376
F0.0167
tp4382
sg33
(F-1.772
F0.0024
tp4383
sssS'1RXSJ045205.0+493248'
p4384
(dp4385
g3
I2
sg4
F2297.21375247826
sg5
(dp4386
g7
(F0.0
F0.0
tp4387
sg9
(F0.0
F0.0
tp4388
sg11
(F3.31e-05
F1.076e-05
tp4389
ssg13
I5020
sg14
F0.4576123
sg15
I8
sg16
(lp4390
sg19
(dp4391
g21
(F0.5997
F0.0202
tp4392
sg23
(F-25.192
F2.2087
tp4393
sg25
(F0.4794
F0.0852
tp4394
sg27
(F2.7432
F0.0537
tp4395
sg29
(F91.5198
F0.0322
tp4396
sg31
(F72.2693
F0.0413
tp4397
sg33
(F0.4337
F0.0099
tp4398
sssS'NGC4939'
p4399
(dp4400
g3
I2
sg4
F7854.75714628072
sg5
(dp4401
g7
(F0.0
F0.0
tp4402
sg9
(F0.0
F0.0
tp4403
sg11
(F0.0001481
F2.033e-05
tp4404
ssg13
I4991
sg14
F1.573784
sg15
I8
sg16
(lp4405
sg19
(dp4406
g21
(F0.5385
F0.0034
tp4407
sg23
(F86.6496
F0.4625
tp4408
sg25
(F0.3605
F0.0089
tp4409
sg27
(F12.595
F0.0967
tp4410
sg29
(F91.3559
F0.0726
tp4411
sg31
(F70.8091
F0.0432
tp4412
sg33
(F-2.0781
F0.0074
tp4413
sssS'Mrk359'
p4414
(dp4415
g3
I2
sg4
F2703.26019686085
sg5
(dp4416
g7
(F0.0
F0.0
tp4417
sg9
(F0.0
F0.0
tp4418
sg11
(F-5.493e-05
F1.149e-05
tp4419
ssg13
I4993
sg14
F0.54141
sg15
I8
sg16
(lp4420
g18
asg19
(dp4421
g21
(F0.638
F0.0528
tp4422
sg23
(F57.8651
F7.0418
tp4423
sg25
(F0.0312
Finf
tp4424
sg27
(F1.6086
F25.6716
tp4425
sg29
(F90.373
F0.0167
tp4426
sg31
(F70.9024
F0.021
tp4427
sg33
(F-0.2291
F0.0082
tp4428
sssS'2MASXJ01073963-1139117'
p4429
(dp4430
g3
I2
sg4
F2146.77568411713
sg5
(dp4431
g7
(F0.0
F0.0
tp4432
sg9
(F0.0
F0.0
tp4433
sg11
(F-7.925e-05
F1.029e-05
tp4434
ssg13
I5015
sg14
F0.4280709
sg15
I8
sg16
(lp4435
sg19
(dp4436
g21
(F0.2218
F0.0661
tp4437
sg23
(F-28.9991
F1.6565
tp4438
sg25
(F0.2805
F0.1705
tp4439
sg27
(F2.1374
F0.0926
tp4440
sg29
(F92.3067
F0.0246
tp4441
sg31
(F71.6751
F0.0322
tp4442
sg33
(F0.5295
F0.0103
tp4443
sssS'NGC5548'
p4444
(dp4445
g3
I2
sg4
F2592.63620048091
sg5
(dp4446
g7
(F0.0
F0.0
tp4447
sg9
(F0.0
F0.0
tp4448
sg11
(F-6.389e-05
F1.133e-05
tp4449
ssg13
I5001
sg14
F0.5184236
sg15
I8
sg16
(lp4450
sg19
(dp4451
g21
(F0.8677
F0.0237
tp4452
sg23
(F-62.8138
F6.9641
tp4453
sg25
(F2.8055
F0.2556
tp4454
sg27
(F1.6457
F0.0452
tp4455
sg29
(F92.3923
F0.0196
tp4456
sg31
(F69.7068
F0.0207
tp4457
sg33
(F-0.4347
F0.0138
tp4458
sssS'MCG-07-03-007'
p4459
(dp4460
g3
I2
sg4
F2421.07074867345
sg5
(dp4461
g7
(F0.0
F0.0
tp4462
sg9
(F0.0
F0.0
tp4463
sg11
(F4.441e-05
F1.078e-05
tp4464
ssg13
I4998
sg14
F0.4844079
sg15
I8
sg16
(lp4465
g18
asg19
(dp4466
g21
(F0.0528
Finf
tp4467
sg23
(F38.038
F660.0211
tp4468
sg25
(F0.067
F128.9834
tp4469
sg27
(F1.9956
F313.9871
tp4470
sg29
(F91.5354
F0.0382
tp4471
sg31
(F70.912
F0.0361
tp4472
sg33
(F0.9607
F110.9728
tp4473
sssS'2MASXJ16481523-3035037'
p4474
(dp4475
g3
I2
sg4
F2972.53039070152
sg5
(dp4476
g7
(F0.0
F0.0
tp4477
sg9
(F0.0
F0.0
tp4478
sg11
(F-0.0002547
F1.339e-05
tp4479
ssg13
I4970
sg14
F0.5980946
sg15
I8
sg16
(lp4480
sg19
(dp4481
g21
(F0.1742
F0.022
tp4482
sg23
(F-13.2695
F0.94
tp4483
sg25
(F0.5634
F0.0685
tp4484
sg27
(F43.3173
F7.6678
tp4485
sg29
(F92.9309
F0.4088
tp4486
sg31
(F68.5065
F1.9034
tp4487
sg33
(F-0.7165
F0.1926
tp4488
sssS'Mrk352'
p4489
(dp4490
g3
I2
sg4
F2708.7687197262
sg5
(dp4491
g7
(F0.0
F0.0
tp4492
sg9
(F0.0
F0.0
tp4493
sg11
(F-0.0001481
F6.053e-05
tp4494
ssg13
I4985
sg14
F0.5433839
sg15
I8
sg16
(lp4495
g57
asg19
(dp4496
g21
(F0.4509
F0.0495
tp4497
sg23
(F-65.8976
F3.9106
tp4498
sg25
(F4.6273
F3.6874
tp4499
sg27
(F88.5868
F236.3284
tp4500
sg29
(F90.4895
F0.2527
tp4501
sg31
(F69.3063
F0.1745
tp4502
sg33
(F-0.7135
F2.0693
tp4503
sssS'ESO578-G009'
p4504
(dp4505
g3
I2
sg4
F2517.65934130771
sg5
(dp4506
g7
(F0.0
F0.0
tp4507
sg9
(F0.0
F0.0
tp4508
sg11
(F2.293e-05
F1.125e-05
tp4509
ssg13
I4989
sg14
F0.5046421
sg15
I8
sg16
(lp4510
g18
asg19
(dp4511
g21
(F0.0463
Finf
tp4512
sg23
(F-62.5195
F3.3317
tp4513
sg25
(F0.3018
F0.2966
tp4514
sg27
(F3.4049
F0.6686
tp4515
sg29
(F89.7159
F0.0931
tp4516
sg31
(F70.2852
F0.0187
tp4517
sg33
(F0.1963
F0.3989
tp4518
sss.