(dp0
S'MCG-01-40-001'
p1
(dp2
S'nfix'
p3
I2
sS'chi2'
p4
F3076.50573696956
sS'psf'
p5
(dp6
S'center_x'
p7
(F171.2274
F0.0628
tp8
sS'center_y'
p9
(F124.9385
F0.081
tp10
sS'mag'
p11
(F0.2873
F0.1551
tp12
ssS'sky'
p13
(dp14
S'sky_dx'
p15
(F0.0
F0.0
tp16
sS'sky_dy'
p17
(F0.0
F0.0
tp18
sS'sky_center'
p19
(F3.417e-05
F4.338e-06
tp20
ssS'ndof'
p21
I5765
sS'chi2nu'
p22
F0.5336524
sS'nfree'
p23
I11
sS'fit_notes'
p24
(lp25
S'At least one problematic parameter.'
p26
asS'sersic'
p27
(dp28
S'axis_ratio'
p29
(F0.733
F116.4947
tp30
sS'pa'
p31
(F-22.2327
F12545.8242
tp32
sS'n'
p33
(F4.9344
F673.0189
tp34
sS're'
p35
(F0.0105
Finf
tp36
sg7
(F169.8109
F33.453
tp37
sg9
(F125.7277
F13.309
tp38
sg11
(F-0.2175
F130.8199
tp39
sssS'IRAS05078+1626'
p40
(dp41
g3
I2
sg4
F1346.56793869285
sg5
(dp42
g7
(F171.4114
F0.0152
tp43
sg9
(F127.5
F0.0236
tp44
sg11
(F0.2073
F0.0957
tp45
ssg13
(dp46
g15
(F0.0
F0.0
tp47
sg17
(F0.0
F0.0
tp48
sg19
(F-2.555e-05
F2.892e-06
tp49
ssg21
I5765
sg22
F0.2335764
sg23
I11
sg24
(lp50
sg27
(dp51
g29
(F0.464
F0.0307
tp52
sg31
(F-74.233
F2.725
tp53
sg33
(F0.521
F0.5157
tp54
sg35
(F2.5065
F0.7521
tp55
sg7
(F171.463
F0.0887
tp56
sg9
(F127.2465
F0.0898
tp57
sg11
(F1.4316
F0.3018
tp58
sssS'NGC6221'
p59
(dp60
g3
I2
sg4
F712204.624145897
sg5
(dp61
g7
(F166.8891
F0.038
tp62
sg9
(F121.462
F0.0326
tp63
sg11
(F-3.6445
F0.0164
tp64
ssg13
(dp65
g15
(F0.0
F0.0
tp66
sg17
(F0.0
F0.0
tp67
sg19
(F-0.009953
F0.002646
tp68
ssg21
I22232
sg22
F32.03511
sg23
I11
sg24
(lp69
sg27
(dp70
g29
(F0.6585
F0.0051
tp71
sg31
(F1.065
F0.5929
tp72
sg33
(F1.1714
F0.1363
tp73
sg35
(F359.3586
F178.4285
tp74
sg7
(F160.6046
F0.1818
tp75
sg9
(F110.0936
F0.3192
tp76
sg11
(F-8.5962
F1.018
tp77
sssS'NGC4235'
p78
(dp79
g3
I2
sg4
F1363.31860708638
sg5
(dp80
g7
(F165.6073
F0.0567
tp81
sg9
(F122.3393
F0.0589
tp82
sg11
(F2.2691
F0.0686
tp83
ssg13
(dp84
g15
(F0.0
F0.0
tp85
sg17
(F0.0
F0.0
tp86
sg19
(F-2.891e-05
F2.753e-06
tp87
ssg21
I5765
sg22
F0.236482
sg23
I11
sg24
(lp88
sg27
(dp89
g29
(F0.1693
F0.018
tp90
sg31
(F-43.4672
F1.2411
tp91
sg33
(F3.7799
F0.6462
tp92
sg35
(F3.2748
F0.2719
tp93
sg7
(F167.258
F0.0653
tp94
sg9
(F122.4365
F0.073
tp95
sg11
(F1.2652
F0.0393
tp96
sssS'MCG+05-03-013'
p97
(dp98
g3
I2
sg4
F1512.78953196138
sg5
(dp99
g7
(F170.6328
F0.0169
tp100
sg9
(F122.7996
F0.0184
tp101
sg11
(F0.6883
F0.0434
tp102
ssg13
(dp103
g15
(F0.0
F0.0
tp104
sg17
(F0.0
F0.0
tp105
sg19
(F-2.202e-05
F1.688e-05
tp106
ssg21
I5765
sg22
F0.2624093
sg23
I11
sg24
(lp107
sg27
(dp108
g29
(F0.8145
F0.0404
tp109
sg31
(F25.8083
F7.4768
tp110
sg33
(F6.008
F5.623
tp111
sg35
(F45.0734
F93.3147
tp112
sg7
(F170.9434
F0.1547
tp113
sg9
(F122.6487
F0.1731
tp114
sg11
(F-0.1899
F1.2284
tp115
sssS'UGC12741'
p116
(dp117
g3
I2
sg4
F1290.95277042193
sg5
(dp118
g7
(F169.6939
F0.0213
tp119
sg9
(F125.7518
F0.0315
tp120
sg11
(F1.865
F0.0578
tp121
ssg13
(dp122
g15
(F0.0
F0.0
tp123
sg17
(F0.0
F0.0
tp124
sg19
(F-1.264e-05
F2.714e-06
tp125
ssg21
I5765
sg22
F0.2239294
sg23
I11
sg24
(lp126
sg27
(dp127
g29
(F0.5025
F0.0164
tp128
sg31
(F76.9623
F1.4358
tp129
sg33
(F0.3518
F0.0942
tp130
sg35
(F4.2638
F0.192
tp131
sg7
(F169.6728
F0.074
tp132
sg9
(F125.8754
F0.0588
tp133
sg11
(F1.4093
F0.0411
tp134
sssS'UGC05881'
p135
(dp136
g3
I2
sg4
F1508.92139725862
sg5
(dp137
g7
(F166.3862
F0.0932
tp138
sg9
(F122.4541
F0.1337
tp139
sg11
(F0.7123
F0.5653
tp140
ssg13
(dp141
g15
(F0.0
F0.0
tp142
sg17
(F0.0
F0.0
tp143
sg19
(F1.324e-05
F2.973e-06
tp144
ssg21
I5765
sg22
F0.2617383
sg23
I11
sg24
(lp145
g26
asg27
(dp146
g29
(F0.5105
F0.0506
tp147
sg31
(F-49.2662
F3.7335
tp148
sg33
(F8.9725
F2.9247
tp149
sg35
(F0.2056
Finf
tp150
sg7
(F166.5127
F0.1205
tp151
sg9
(F122.1087
F0.0916
tp152
sg11
(F-0.3068
F0.2578
tp153
sssS'NGC235A'
p154
(dp155
g3
I2
sg4
F1764.6432085837
sg5
(dp156
g7
(F170.4436
F0.048
tp157
sg9
(F125.3375
F0.0443
tp158
sg11
(F0.172
F0.0658
tp159
ssg13
(dp160
g15
(F0.0
F0.0
tp161
sg17
(F0.0
F0.0
tp162
sg19
(F-2.697e-05
F3.231e-06
tp163
ssg21
I5765
sg22
F0.306096
sg23
I11
sg24
(lp164
sg27
(dp165
g29
(F0.7633
F0.0151
tp166
sg31
(F43.5149
F3.547
tp167
sg33
(F2.7261
F0.3134
tp168
sg35
(F1.2742
F0.1015
tp169
sg7
(F170.3935
F0.043
tp170
sg9
(F124.412
F0.0375
tp171
sg11
(F-0.333
F0.0466
tp172
sssS'2MASXJ03502377-5018354'
p173
(dp174
g3
I2
sg4
F2468.13592293294
sg5
(dp175
g7
(F170.314
F0.1008
tp176
sg9
(F124.8105
F0.1144
tp177
sg11
(F2.0022
F0.096
tp178
ssg13
(dp179
g15
(F0.0
F0.0
tp180
sg17
(F0.0
F0.0
tp181
sg19
(F3.026e-05
F3.88e-06
tp182
ssg21
I5765
sg22
F0.4281242
sg23
I11
sg24
(lp183
g26
asg27
(dp184
g29
(F0.5387
F0.1201
tp185
sg31
(F-2.8262
F10.984
tp186
sg33
(F0.036
Finf
tp187
sg35
(F2.5369
F50.2548
tp188
sg7
(F169.5109
F0.1244
tp189
sg9
(F126.4647
F0.1962
tp190
sg11
(F1.6566
F0.0726
tp191
sssS'Mrk10'
p192
(dp193
g3
I2
sg4
F1591.19315221517
sg5
(dp194
g7
(F170.5946
F0.0293
tp195
sg9
(F123.977
F0.0306
tp196
sg11
(F1.7574
F0.0129
tp197
ssg13
(dp198
g15
(F0.0
F0.0
tp199
sg17
(F0.0
F0.0
tp200
sg19
(F7.288e-06
F3.015e-06
tp201
ssg21
I5765
sg22
F0.2760092
sg23
I11
sg24
(lp202
sg27
(dp203
g29
(F0.4204
F0.0045
tp204
sg31
(F51.8675
F0.5265
tp205
sg33
(F0.1071
F0.0157
tp206
sg35
(F13.3368
F0.133
tp207
sg7
(F171.2846
F0.1049
tp208
sg9
(F124.2719
F0.076
tp209
sg11
(F0.5438
F0.0183
tp210
sssS'Fairall49'
p211
(dp212
g3
I2
sg4
F1359.90045992776
sg5
(dp213
g7
(F167.1867
F0.0209
tp214
sg9
(F123.9586
F0.0234
tp215
sg11
(F-0.6838
F0.0464
tp216
ssg13
(dp217
g15
(F0.0
F0.0
tp218
sg17
(F0.0
F0.0
tp219
sg19
(F-4.191e-05
F2.908e-06
tp220
ssg21
I5765
sg22
F0.2358891
sg23
I11
sg24
(lp221
sg27
(dp222
g29
(F0.2621
F0.0285
tp223
sg31
(F-47.7293
F1.4669
tp224
sg33
(F7.0197
F1.112
tp225
sg35
(F0.5533
F0.0809
tp226
sg7
(F167.0229
F0.0734
tp227
sg9
(F124.925
F0.072
tp228
sg11
(F-0.233
F0.0693
tp229
sssS'NGC4138'
p230
(dp231
g3
I2
sg4
F3171.83188165302
sg5
(dp232
g7
(F171.6553
F0.0707
tp233
sg9
(F121.3294
F0.0675
tp234
sg11
(F2.7219
F0.0362
tp235
ssg13
(dp236
g15
(F0.0
F0.0
tp237
sg17
(F0.0
F0.0
tp238
sg19
(F4.506e-05
F3.102e-06
tp239
ssg21
I8638
sg22
F0.3671952
sg23
I11
sg24
(lp240
sg27
(dp241
g29
(F0.5503
F0.0027
tp242
sg31
(F61.8828
F0.3263
tp243
sg33
(F0.0795
F0.0057
tp244
sg35
(F14.9883
F0.0629
tp245
sg7
(F170.157
F0.0592
tp246
sg9
(F121.3095
F0.0367
tp247
sg11
(F-0.7815
F0.0048
tp248
sssS'UGC07064'
p249
(dp250
g3
I2
sg4
F2315.50958800166
sg5
(dp251
g7
(F173.4917
F0.0137
tp252
sg9
(F122.85
F0.0145
tp253
sg11
(F0.2678
F0.0085
tp254
ssg13
(dp255
g15
(F0.0
F0.0
tp256
sg17
(F0.0
F0.0
tp257
sg19
(F-1.545e-05
F3.841e-06
tp258
ssg21
I5765
sg22
F0.4016495
sg23
I11
sg24
(lp259
g26
asg27
(dp260
g29
(F0.6381
F0.0089
tp261
sg31
(F73.6511
F0.8339
tp262
sg33
(F0.025
Finf
tp263
sg35
(F7.5793
F3.2801
tp264
sg7
(F173.1519
F0.0457
tp265
sg9
(F121.8277
F0.0351
tp266
sg11
(F0.2085
F0.009
tp267
sssS'Mrk18'
p268
(dp269
g3
I2
sg4
F1435.09178685142
sg5
(dp270
g7
(F166.8155
F0.0634
tp271
sg9
(F128.6251
F0.0665
tp272
sg11
(F1.1348
F0.0945
tp273
ssg13
(dp274
g15
(F0.0
F0.0
tp275
sg17
(F0.0
F0.0
tp276
sg19
(F-1.593e-05
F2.902e-06
tp277
ssg21
I5765
sg22
F0.2489318
sg23
I11
sg24
(lp278
sg27
(dp279
g29
(F0.499
F0.0084
tp280
sg31
(F-16.8327
F1.2312
tp281
sg33
(F1.6121
F0.1028
tp282
sg35
(F1.5232
F0.0398
tp283
sg7
(F166.3
F0.0126
tp284
sg9
(F126.7739
F0.0374
tp285
sg11
(F-0.7823
F0.0151
tp286
sssS'UGC03601'
p287
(dp288
g3
I2
sg4
F1371.16863255272
sg5
(dp289
g7
(F167.7176
F0.0448
tp290
sg9
(F124.2753
F0.0317
tp291
sg11
(F1.7739
F0.0957
tp292
ssg13
(dp293
g15
(F0.0
F0.0
tp294
sg17
(F0.0
F0.0
tp295
sg19
(F-4.557e-06
F2.742e-06
tp296
ssg21
I5765
sg22
F0.2378436
sg23
I11
sg24
(lp297
sg27
(dp298
g29
(F0.7042
F0.0273
tp299
sg31
(F-54.8185
F4.7191
tp300
sg33
(F1.5444
F0.4306
tp301
sg35
(F3.674
F0.315
tp302
sg7
(F167.1792
F0.1016
tp303
sg9
(F123.8738
F0.0793
tp304
sg11
(F1.4742
F0.0935
tp305
sssS'UGC11185NED02'
p306
(dp307
g3
I2
sg4
F1976.22389059418
sg5
(dp308
g7
(F168.2417
F0.0466
tp309
sg9
(F125.0899
F0.0402
tp310
sg11
(F1.2725
F0.2046
tp311
ssg13
(dp312
g15
(F0.0
F0.0
tp313
sg17
(F0.0
F0.0
tp314
sg19
(F-1.938e-05
F3.499e-06
tp315
ssg21
I5765
sg22
F0.3427969
sg23
I11
sg24
(lp316
sg27
(dp317
g29
(F0.4889
F0.0554
tp318
sg31
(F-49.1871
F5.1712
tp319
sg33
(F0.0998
F1.3599
tp320
sg35
(F2.7913
F1.9763
tp321
sg7
(F168.4856
F0.148
tp322
sg9
(F125.0551
F0.1648
tp323
sg11
(F2.274
F0.5244
tp324
sssS'UGC03995A'
p325
(dp326
g3
I2
sg4
F46001.7270454567
sg5
(dp327
g7
(F163.0237
F0.1766
tp328
sg9
(F146.9387
F0.169
tp329
sg11
(F1.9965
F0.0917
tp330
ssg13
(dp331
g15
(F0.0
F0.0
tp332
sg17
(F0.0
F0.0
tp333
sg19
(F-0.002929
F3.614e-05
tp334
ssg21
I5596
sg22
F8.220466
sg23
I11
sg24
(lp335
g26
asg27
(dp336
g29
(F0.5152
F0.0169
tp337
sg31
(F-24.1199
F1.0041
tp338
sg33
(F0.0458
Finf
tp339
sg35
(F62.1061
F0.0022
tp340
sg7
(F170.4133
F0.2137
tp341
sg9
(F143.2269
F0.4847
tp342
sg11
(F-3.8487
F0.0636
tp343
sssS'MCG+06-24-008'
p344
(dp345
g3
I2
sg4
F1365.2259294063
sg5
(dp346
g7
(F171.1782
F0.0717
tp347
sg9
(F123.2669
F0.0884
tp348
sg11
(F2.1525
F0.0528
tp349
ssg13
(dp350
g15
(F0.0
F0.0
tp351
sg17
(F0.0
F0.0
tp352
sg19
(F4.819e-07
F2.791e-06
tp353
ssg21
I5765
sg22
F0.2368128
sg23
I11
sg24
(lp354
g26
asg27
(dp355
g29
(F0.0648
Finf
tp356
sg31
(F-18.5604
F1.5083
tp357
sg33
(F0.0442
Finf
tp358
sg35
(F5.2402
F6.3638
tp359
sg7
(F170.6091
F0.0181
tp360
sg9
(F123.7815
F0.0286
tp361
sg11
(F0.5796
F0.1149
tp362
sssS'ESO209-G012'
p363
(dp364
g3
I2
sg4
F1433.63577370601
sg5
(dp365
g7
(F171.6824
F0.0163
tp366
sg9
(F123.5919
F0.0187
tp367
sg11
(F1.1489
F0.0295
tp368
ssg13
(dp369
g15
(F0.0
F0.0
tp370
sg17
(F0.0
F0.0
tp371
sg19
(F-3.638e-05
F2.807e-06
tp372
ssg21
I5765
sg22
F0.2486792
sg23
I11
sg24
(lp373
sg27
(dp374
g29
(F0.7008
F0.0077
tp375
sg31
(F-78.7218
F1.1657
tp376
sg33
(F0.6136
F0.0367
tp377
sg35
(F4.3998
F0.0702
tp378
sg7
(F171.36
F0.0321
tp379
sg9
(F122.9336
F0.0248
tp380
sg11
(F0.1931
F0.0135
tp381
sssS'UGC01479'
p382
(dp383
g3
I2
sg4
F1692.87189920321
sg5
(dp384
g7
(F169.666
F0.0417
tp385
sg9
(F123.1622
F0.059
tp386
sg11
(F0.5106
F0.1565
tp387
ssg13
(dp388
g15
(F0.0
F0.0
tp389
sg17
(F0.0
F0.0
tp390
sg19
(F-2.373e-05
F3.278e-06
tp391
ssg21
I5765
sg22
F0.2936465
sg23
I11
sg24
(lp392
g26
asg27
(dp393
g29
(F0.0288
Finf
tp394
sg31
(F-59.5494
F0.3935
tp395
sg33
(F11.9429
Finf
tp396
sg35
(F0.6444
F0.1528
tp397
sg7
(F169.353
F0.1618
tp398
sg9
(F123.5565
F0.044
tp399
sg11
(F-0.555
F0.0801
tp400
sssS'Mrk618'
p401
(dp402
g3
I2
sg4
F2067.93521908819
sg5
(dp403
g7
(F171.2323
F0.0092
tp404
sg9
(F124.1872
F0.0082
tp405
sg11
(F-0.7595
F0.0057
tp406
ssg13
(dp407
g15
(F0.0
F0.0
tp408
sg17
(F0.0
F0.0
tp409
sg19
(F6.905e-06
F3.496e-06
tp410
ssg21
I5765
sg22
F0.3587052
sg23
I11
sg24
(lp411
sg27
(dp412
g29
(F0.1177
F0.0074
tp413
sg31
(F-74.1263
F0.2279
tp414
sg33
(F0.1468
F0.032
tp415
sg35
(F6.913
F0.1008
tp416
sg7
(F170.3952
F0.04
tp417
sg9
(F124.0057
F0.0241
tp418
sg11
(F0.1614
F0.0127
tp419
sssS'Mrk348'
p420
(dp421
g3
I2
sg4
F1939.03068108185
sg5
(dp422
g7
(F208.2406
F0.0085
tp423
sg9
(F152.3598
F0.0094
tp424
sg11
(F0.7953
F0.0137
tp425
ssg13
(dp426
g15
(F0.0
F0.0
tp427
sg17
(F0.0
F0.0
tp428
sg19
(F1.187e-05
F1.218e-06
tp429
ssg21
I5765
sg22
F0.3363453
sg23
I11
sg24
(lp430
sg27
(dp431
g29
(F0.7526
F0.0146
tp432
sg31
(F-83.9959
F2.0485
tp433
sg33
(F1.5644
F0.1293
tp434
sg35
(F4.1
F0.0862
tp435
sg7
(F208.0204
F0.0449
tp436
sg9
(F151.3496
F0.0391
tp437
sg11
(F1.1725
F0.0269
tp438
sssS'MCG+02-57-002'
p439
(dp440
g3
I2
sg4
F1316.26080554821
sg5
(dp441
g7
(F170.4075
F0.0156
tp442
sg9
(F144.7549
F0.0152
tp443
sg11
(F0.9738
F0.0157
tp444
ssg13
(dp445
g15
(F0.0
F0.0
tp446
sg17
(F0.0
F0.0
tp447
sg19
(F-7.661e-05
F2.676e-06
tp448
ssg21
I5765
sg22
F0.2283193
sg23
I11
sg24
(lp449
sg27
(dp450
g29
(F0.2359
F0.0261
tp451
sg31
(F83.758
F1.3595
tp452
sg33
(F0.294
F0.1109
tp453
sg35
(F5.5939
F0.3412
tp454
sg7
(F170.1852
F0.162
tp455
sg9
(F144.3815
F0.1061
tp456
sg11
(F2.1029
F0.0436
tp457
sssS'NGC5548'
p458
(dp459
g3
I2
sg4
F1396.98459115571
sg5
(dp460
g7
(F170.4006
F0.013
tp461
sg9
(F122.9201
F0.0142
tp462
sg11
(F0.3802
F0.0339
tp463
ssg13
(dp464
g15
(F0.0
F0.0
tp465
sg17
(F0.0
F0.0
tp466
sg19
(F-3.835e-05
F2.832e-06
tp467
ssg21
I5765
sg22
F0.2423217
sg23
I11
sg24
(lp468
sg27
(dp469
g29
(F0.8728
F0.0209
tp470
sg31
(F-80.4429
F7.2055
tp471
sg33
(F0.6553
F0.1585
tp472
sg35
(F3.0736
F0.2232
tp473
sg7
(F169.9327
F0.0709
tp474
sg9
(F122.5023
F0.0595
tp475
sg11
(F1.0369
F0.0686
tp476
sssS'4U1344-60'
p477
(dp478
g3
I2
sg4
F2614.02219084243
sg5
(dp479
g7
(F169.726
F0.0157
tp480
sg9
(F125.7902
F0.0156
tp481
sg11
(F-0.3499
F0.0441
tp482
ssg13
(dp483
g15
(F0.0
F0.0
tp484
sg17
(F0.0
F0.0
tp485
sg19
(F-1.854e-06
F3.985e-06
tp486
ssg21
I5765
sg22
F0.4534297
sg23
I11
sg24
(lp487
sg27
(dp488
g29
(F0.7562
F0.0248
tp489
sg31
(F-57.8684
F4.4491
tp490
sg33
(F0.6241
F0.2433
tp491
sg35
(F2.9517
F0.3871
tp492
sg7
(F169.6559
F0.0744
tp493
sg9
(F125.469
F0.0804
tp494
sg11
(F0.7811
F0.1339
tp495
sssS'ESO323-077'
p496
(dp497
g3
I2
sg4
F1409.01284445875
sg5
(dp498
g7
(F168.9483
F0.1256
tp499
sg9
(F126.3087
F0.0767
tp500
sg11
(F0.6623
F0.1189
tp501
ssg13
(dp502
g15
(F0.0
F0.0
tp503
sg17
(F0.0
F0.0
tp504
sg19
(F-3.127e-05
F2.921e-06
tp505
ssg21
I5765
sg22
F0.2444081
sg23
I11
sg24
(lp506
sg27
(dp507
g29
(F0.7473
F0.0117
tp508
sg31
(F67.4804
F1.9218
tp509
sg33
(F1.0824
F0.0492
tp510
sg35
(F1.3409
F0.0369
tp511
sg7
(F170.4267
F0.0264
tp512
sg9
(F125.244
F0.0131
tp513
sg11
(F-1.9404
F0.0111
tp514
sssS'NGC3281'
p515
(dp516
g3
I2
sg4
F3264.32194132714
sg5
(dp517
g7
(F269.1255
F0.0193
tp518
sg9
(F268.4071
F0.0141
tp519
sg11
(F-1.476
F0.027
tp520
ssg13
(dp521
g15
(F0.0
F0.0
tp522
sg17
(F0.0
F0.0
tp523
sg19
(F1.552e-05
F1.868e-06
tp524
ssg21
I5765
sg22
F0.566231
sg23
I11
sg24
(lp525
sg27
(dp526
g29
(F0.7129
F0.0156
tp527
sg31
(F-85.3903
F2.0663
tp528
sg33
(F8.2582
F0.8536
tp529
sg35
(F0.6099
F0.0515
tp530
sg7
(F267.9178
F0.0475
tp531
sg9
(F267.8712
F0.0389
tp532
sg11
(F-1.2067
F0.0321
tp533
sssS'ESO103-035'
p534
(dp535
g3
I2
sg4
F1381.70753628774
sg5
(dp536
g7
(F171.7793
F0.0157
tp537
sg9
(F124.0327
F0.1163
tp538
sg11
(F0.0516
F0.1198
tp539
ssg13
(dp540
g15
(F0.0
F0.0
tp541
sg17
(F0.0
F0.0
tp542
sg19
(F-5.386e-05
F2.881e-06
tp543
ssg21
I5765
sg22
F0.2396717
sg23
I11
sg24
(lp544
g26
asg27
(dp545
g29
(F0.0619
Finf
tp546
sg31
(F2.224
F20.747
tp547
sg33
(F3.2094
F4.2162
tp548
sg35
(F0.4233
Finf
tp549
sg7
(F171.8943
F1.1995
tp550
sg9
(F124.8802
F0.4519
tp551
sg11
(F0.4775
F0.2004
tp552
sssS'2MASXJ07595347+2323241'
p553
(dp554
g3
I2
sg4
F1487.09782431906
sg5
(dp555
g7
(F168.4377
F0.0723
tp556
sg9
(F126.3851
F0.0649
tp557
sg11
(F1.8077
F0.1046
tp558
ssg13
(dp559
g15
(F0.0
F0.0
tp560
sg17
(F0.0
F0.0
tp561
sg19
(F-3.15e-05
F3.031e-06
tp562
ssg21
I5765
sg22
F0.2579528
sg23
I11
sg24
(lp563
sg27
(dp564
g29
(F0.4824
F0.0042
tp565
sg31
(F-76.9984
F0.3722
tp566
sg33
(F0.8208
F0.032
tp567
sg35
(F3.5144
F0.0439
tp568
sg7
(F169.2926
F0.0131
tp569
sg9
(F125.7624
F0.0104
tp570
sg11
(F-0.7123
F0.0112
tp571
sssS'MCG+12-10-067'
p572
(dp573
g3
I2
sg4
F1397.24427999727
sg5
(dp574
g7
(F171.7752
F0.0187
tp575
sg9
(F120.697
F0.0207
tp576
sg11
(F1.1237
F0.0211
tp577
ssg13
(dp578
g15
(F0.0
F0.0
tp579
sg17
(F0.0
F0.0
tp580
sg19
(F4.12e-06
F2.834e-06
tp581
ssg21
I5765
sg22
F0.2423667
sg23
I11
sg24
(lp582
sg27
(dp583
g29
(F0.3062
F0.0075
tp584
sg31
(F84.7253
F0.5118
tp585
sg33
(F0.6792
F0.0492
tp586
sg35
(F6.1058
F0.1266
tp587
sg7
(F172.1531
F0.0635
tp588
sg9
(F120.8615
F0.0387
tp589
sg11
(F0.6538
F0.0137
tp590
sssS'Mrk6'
p591
(dp592
g3
I2
sg4
F1784.15927846103
sg5
(dp593
g7
(F169.7867
F0.0413
tp594
sg9
(F124.293
F0.0451
tp595
sg11
(F0.8063
F0.0686
tp596
ssg13
(dp597
g15
(F0.0
F0.0
tp598
sg17
(F0.0
F0.0
tp599
sg19
(F-3.376e-05
F3.265e-06
tp600
ssg21
I5765
sg22
F0.3094812
sg23
I11
sg24
(lp601
g26
asg27
(dp602
g29
(F0.4173
F0.078
tp603
sg31
(F-79.5704
F6.1664
tp604
sg33
(F17.0455
Finf
tp605
sg35
(F0.1372
Finf
tp606
sg7
(F171.0211
F0.142
tp607
sg9
(F123.3728
F0.1489
tp608
sg11
(F0.4443
F0.338
tp609
sssS'NGC3393'
p610
(dp611
g3
I2
sg4
F2045.04379698654
sg5
(dp612
g7
(F169.4277
F0.0316
tp613
sg9
(F122.3589
F0.0318
tp614
sg11
(F1.1364
F0.0399
tp615
ssg13
(dp616
g15
(F0.0
F0.0
tp617
sg17
(F0.0
F0.0
tp618
sg19
(F6.201e-06
F4.026e-06
tp619
ssg21
I5765
sg22
F0.3547344
sg23
I11
sg24
(lp620
sg27
(dp621
g29
(F0.65
F0.0138
tp622
sg31
(F-89.4644
F1.7206
tp623
sg33
(F6.8177
F0.6289
tp624
sg35
(F2.7562
F0.1354
tp625
sg7
(F171.6917
F0.032
tp626
sg9
(F123.5329
F0.016
tp627
sg11
(F-0.6825
F0.0251
tp628
sssS'Fairall1146'
p629
(dp630
g3
I2
sg4
F1365.10702789737
sg5
(dp631
g7
(F170.642
F0.0112
tp632
sg9
(F125.5488
F0.0107
tp633
sg11
(F0.1737
F0.005
tp634
ssg13
(dp635
g15
(F0.0
F0.0
tp636
sg17
(F0.0
F0.0
tp637
sg19
(F-6.741e-05
F2.812e-06
tp638
ssg21
I5765
sg22
F0.2367922
sg23
I11
sg24
(lp639
sg27
(dp640
g29
(F0.7214
F0.016
tp641
sg31
(F66.0204
F2.9525
tp642
sg33
(F0.1501
F0.044
tp643
sg35
(F5.9918
F0.1619
tp644
sg7
(F171.4049
F0.1094
tp645
sg9
(F124.2363
F0.0901
tp646
sg11
(F1.4018
F0.0205
tp647
sssS'MCG+06-16-028'
p648
(dp649
g3
I2
sg4
F1420.07464204814
sg5
(dp650
g7
(F171.2717
F0.0403
tp651
sg9
(F123.7501
F0.0476
tp652
sg11
(F0.5984
F0.0582
tp653
ssg13
(dp654
g15
(F0.0
F0.0
tp655
sg17
(F0.0
F0.0
tp656
sg19
(F-6.178e-05
F2.916e-06
tp657
ssg21
I5765
sg22
F0.2463269
sg23
I11
sg24
(lp658
sg27
(dp659
g29
(F0.8957
F0.0297
tp660
sg31
(F-79.2453
F12.1757
tp661
sg33
(F1.5852
F0.1336
tp662
sg35
(F0.9991
F0.0309
tp663
sg7
(F169.8627
F0.0328
tp664
sg9
(F125.03
F0.023
tp665
sg11
(F-0.6199
F0.0188
tp666
sssS'MCG+00-09-042'
p667
(dp668
g3
I2
sg4
F1521.11303139005
sg5
(dp669
g7
(F171.7355
F0.0525
tp670
sg9
(F120.9995
F0.1088
tp671
sg11
(F-0.2592
F0.6284
tp672
ssg13
(dp673
g15
(F0.0
F0.0
tp674
sg17
(F0.0
F0.0
tp675
sg19
(F-7.404e-05
F3.069e-06
tp676
ssg21
I5765
sg22
F0.2638531
sg23
I11
sg24
(lp677
sg27
(dp678
g29
(F0.3265
F0.0437
tp679
sg31
(F-52.4834
F1.3279
tp680
sg33
(F1.9202
F0.547
tp681
sg35
(F0.8506
F0.3001
tp682
sg7
(F171.652
F0.0367
tp683
sg9
(F121.1986
F0.046
tp684
sg11
(F-0.8655
F0.3612
tp685
sssS'ARK347'
p686
(dp687
g3
I2
sg4
F1387.1389346014
sg5
(dp688
g7
(F170.1493
F0.0219
tp689
sg9
(F122.1685
F0.0224
tp690
sg11
(F1.4358
F0.0108
tp691
ssg13
(dp692
g15
(F0.0
F0.0
tp693
sg17
(F0.0
F0.0
tp694
sg19
(F-4.836e-05
F2.792e-06
tp695
ssg21
I5765
sg22
F0.2406139
sg23
I11
sg24
(lp696
g26
asg27
(dp697
g29
(F0.452
F0.0392
tp698
sg31
(F11.5176
F3.8263
tp699
sg33
(F0.0404
Finf
tp700
sg35
(F4.6001
F19.3539
tp701
sg7
(F170.7912
F0.1337
tp702
sg9
(F120.5074
F0.1879
tp703
sg11
(F2.4709
F0.0446
tp704
sssS'IC2461'
p705
(dp706
g3
I2
sg4
F1321.03998771128
sg5
(dp707
g7
(F170.0501
F0.036
tp708
sg9
(F122.6005
F0.026
tp709
sg11
(F1.9486
F0.0214
tp710
ssg13
(dp711
g15
(F0.0
F0.0
tp712
sg17
(F0.0
F0.0
tp713
sg19
(F-4.696e-06
F2.83e-06
tp714
ssg21
I5765
sg22
F0.2291483
sg23
I11
sg24
(lp715
g26
asg27
(dp716
g29
(F0.0837
Finf
tp717
sg31
(F45.0589
F0.0931
tp718
sg33
(F0.5379
F0.0115
tp719
sg35
(F9.8808
F0.0548
tp720
sg7
(F169.4527
F0.0216
tp721
sg9
(F122.6786
F0.0233
tp722
sg11
(F-0.4016
F0.0049
tp723
sssS'ESO362-18'
p724
(dp725
g3
I2
sg4
F1564.91745400875
sg5
(dp726
g7
(F171.2628
F0.0408
tp727
sg9
(F121.5788
F0.0314
tp728
sg11
(F0.8276
F0.0551
tp729
ssg13
(dp730
g15
(F0.0
F0.0
tp731
sg17
(F0.0
F0.0
tp732
sg19
(F-2.052e-05
F3.143e-06
tp733
ssg21
I5765
sg22
F0.2714514
sg23
I11
sg24
(lp734
sg27
(dp735
g29
(F0.49
F0.0089
tp736
sg31
(F33.9527
F0.7259
tp737
sg33
(F1.5399
F0.1122
tp738
sg35
(F3.4412
F0.0968
tp739
sg7
(F171.0596
F0.0285
tp740
sg9
(F122.4634
F0.0279
tp741
sg11
(F-0.1584
F0.0259
tp742
sssS'NGC1052'
p743
(dp744
g3
I2
sg4
F1352.66795713515
sg5
(dp745
g7
(F167.6456
F0.0165
tp746
sg9
(F122.9278
F0.0132
tp747
sg11
(F0.9421
F0.0339
tp748
ssg13
(dp749
g15
(F0.0
F0.0
tp750
sg17
(F0.0
F0.0
tp751
sg19
(F-7.509e-05
F2.818e-06
tp752
ssg21
I5765
sg22
F0.2346345
sg23
I11
sg24
(lp753
sg27
(dp754
g29
(F0.4667
F0.01
tp755
sg31
(F-25.855
F1.164
tp756
sg33
(F0.6557
F0.1091
tp757
sg35
(F4.1851
F0.1862
tp758
sg7
(F167.1801
F0.0468
tp759
sg9
(F123.2869
F0.0585
tp760
sg11
(F1.0582
F0.0411
tp761
sssS'NGC513'
p762
(dp763
g3
I2
sg4
F1599.93749907116
sg5
(dp764
g7
(F167.232
F0.0273
tp765
sg9
(F123.8142
F0.027
tp766
sg11
(F1.4201
F0.0232
tp767
ssg13
(dp768
g15
(F0.0
F0.0
tp769
sg17
(F0.0
F0.0
tp770
sg19
(F-1.78e-05
F3.178e-06
tp771
ssg21
I5765
sg22
F0.277526
sg23
I11
sg24
(lp772
sg27
(dp773
g29
(F0.5129
F0.0017
tp774
sg31
(F17.007
F0.2154
tp775
sg33
(F0.2245
F0.0063
tp776
sg35
(F5.8539
F0.0193
tp777
sg7
(F167.1756
F0.0097
tp778
sg9
(F123.9247
F0.013
tp779
sg11
(F-0.9393
F0.0027
tp780
sssS'NGC2992'
p781
(dp782
g3
I2
sg4
F4567.60660136711
sg5
(dp783
g7
(F304.8192
F0.0336
tp784
sg9
(F318.296
F0.0384
tp785
sg11
(F0.4942
F0.0427
tp786
ssg13
(dp787
g15
(F0.0
F0.0
tp788
sg17
(F0.0
F0.0
tp789
sg19
(F2.139e-05
F2.267e-06
tp790
ssg21
I5765
sg22
F0.7922995
sg23
I11
sg24
(lp791
sg27
(dp792
g29
(F0.4247
F0.0032
tp793
sg31
(F-35.3682
F0.2158
tp794
sg33
(F1.7538
F0.0168
tp795
sg35
(F2.6045
F0.0127
tp796
sg7
(F306.8
F0.0062
tp797
sg9
(F321.7998
F0.0087
tp798
sg11
(F-2.2571
F0.003
tp799
sssS'MCG+08-11-011'
p800
(dp801
g3
I2
sg4
F4219.42285393084
sg5
(dp802
g7
(F171.0438
F0.0408
tp803
sg9
(F123.4476
F0.1279
tp804
sg11
(F0.0534
F0.3427
tp805
ssg13
(dp806
g15
(F0.0
F0.0
tp807
sg17
(F0.0
F0.0
tp808
sg19
(F0.0001093
F5.203e-06
tp809
ssg21
I5765
sg22
F0.7319034
sg23
I11
sg24
(lp810
g26
asg27
(dp811
g29
(F0.2383
F0.0333
tp812
sg31
(F-69.8551
F2.1929
tp813
sg33
(F19.9972
Finf
tp814
sg35
(F0.3106
Finf
tp815
sg7
(F170.8495
F0.1063
tp816
sg9
(F123.9053
F0.1323
tp817
sg11
(F-0.3186
F0.5825
tp818
sssS'Mrk279'
p819
(dp820
g3
I2
sg4
F10921.4996903456
sg5
(dp821
g7
(F167.0828
F0.3063
tp822
sg9
(F124.5404
F0.1772
tp823
sg11
(F1.0512
F0.9557
tp824
ssg13
(dp825
g15
(F0.0
F0.0
tp826
sg17
(F0.0
F0.0
tp827
sg19
(F9.365e-05
F8.276e-06
tp828
ssg21
I5765
sg22
F1.894449
sg23
I11
sg24
(lp829
sg27
(dp830
g29
(F0.7042
F0.2198
tp831
sg31
(F-87.2346
F46.3765
tp832
sg33
(F3.1611
F4.4239
tp833
sg35
(F0.6626
F0.9958
tp834
sg7
(F167.3581
F0.2442
tp835
sg9
(F124.4599
F0.3731
tp836
sg11
(F1.0747
F1.0187
tp837
sssS'NGC7679'
p838
(dp839
g3
I2
sg4
F1802.80948802719
sg5
(dp840
g7
(F173.2208
F0.0488
tp841
sg9
(F124.2494
F0.0484
tp842
sg11
(F0.3012
F0.0371
tp843
ssg13
(dp844
g15
(F0.0
F0.0
tp845
sg17
(F0.0
F0.0
tp846
sg19
(F-7.554e-05
F3.374e-06
tp847
ssg21
I5765
sg22
F0.3127163
sg23
I11
sg24
(lp848
sg27
(dp849
g29
(F0.9528
F0.0036
tp850
sg31
(F-10.7209
F3.3457
tp851
sg33
(F0.8822
F0.0125
tp852
sg35
(F2.4028
F0.0073
tp853
sg7
(F170.6913
F0.0104
tp854
sg9
(F124.28
F0.0049
tp855
sg11
(F-2.1768
F0.0034
tp856
sssS'ESO399-20'
p857
(dp858
g3
I2
sg4
F1610.49331283299
sg5
(dp859
g7
(F169.745
F0.0201
tp860
sg9
(F121.3137
F0.0181
tp861
sg11
(F1.3772
F0.0082
tp862
ssg13
(dp863
g15
(F0.0
F0.0
tp864
sg17
(F0.0
F0.0
tp865
sg19
(F-1.109e-05
F3.081e-06
tp866
ssg21
I5765
sg22
F0.279357
sg23
I11
sg24
(lp867
sg27
(dp868
g29
(F0.4364
F0.0064
tp869
sg31
(F20.66
F0.7319
tp870
sg33
(F0.1176
F0.025
tp871
sg35
(F8.2804
F0.1174
tp872
sg7
(F168.9275
F0.0543
tp873
sg9
(F124.0649
F0.097
tp874
sg11
(F0.9126
F0.0122
tp875
sssS'2MASXJ04234080+0408017'
p876
(dp877
g3
I2
sg4
F1407.74275867552
sg5
(dp878
g7
(F171.4705
F0.2013
tp879
sg9
(F122.7439
F0.1623
tp880
sg11
(F2.5666
F0.5433
tp881
ssg13
(dp882
g15
(F0.0
F0.0
tp883
sg17
(F0.0
F0.0
tp884
sg19
(F-2.027e-05
F2.909e-06
tp885
ssg21
I5765
sg22
F0.2441878
sg23
I11
sg24
(lp886
sg27
(dp887
g29
(F0.3082
F0.0178
tp888
sg31
(F-51.3192
F1.1844
tp889
sg33
(F2.8239
F0.7287
tp890
sg35
(F2.3964
F0.3808
tp891
sg7
(F171.0399
F0.0484
tp892
sg9
(F123.1247
F0.0453
tp893
sg11
(F0.7903
F0.1183
tp894
sssS'NGC1125'
p895
(dp896
g3
I2
sg4
F4800.57889017092
sg5
(dp897
g7
(F166.7202
F0.0158
tp898
sg9
(F125.6537
F0.0126
tp899
sg11
(F-0.9166
F0.0134
tp900
ssg13
(dp901
g15
(F0.0
F0.0
tp902
sg17
(F0.0
F0.0
tp903
sg19
(F-3.084e-05
F5.343e-06
tp904
ssg21
I5765
sg22
F0.832711
sg23
I11
sg24
(lp905
sg27
(dp906
g29
(F0.2575
F0.0158
tp907
sg31
(F9.9921
F0.8235
tp908
sg33
(F0.3946
F0.0829
tp909
sg35
(F5.3264
F0.2432
tp910
sg7
(F166.664
F0.0685
tp911
sg9
(F126.1951
F0.092
tp912
sg11
(F0.4059
F0.0446
tp913
sssS'2MASXiJ1802473-145454'
p914
(dp915
g3
I2
sg4
F1516.94082159247
sg5
(dp916
g7
(F170.7115
F0.0754
tp917
sg9
(F121.7108
F0.0666
tp918
sg11
(F1.4744
F0.143
tp919
ssg13
(dp920
g15
(F0.0
F0.0
tp921
sg17
(F0.0
F0.0
tp922
sg19
(F3.517e-05
F3.055e-06
tp923
ssg21
I5765
sg22
F0.2631294
sg23
I11
sg24
(lp924
sg27
(dp925
g29
(F0.2034
F0.0751
tp926
sg31
(F-48.5718
F2.5183
tp927
sg33
(F1.845
F0.2911
tp928
sg35
(F0.9216
F0.0584
tp929
sg7
(F172.2587
F0.052
tp930
sg9
(F120.8519
F0.035
tp931
sg11
(F0.1646
F0.0439
tp932
sssS'NGC5674'
p933
(dp934
g3
I2
sg4
F2982.28364267647
sg5
(dp935
g7
(F170.5784
F0.015
tp936
sg9
(F125.225
F0.0199
tp937
sg11
(F0.6472
F0.0089
tp938
ssg13
(dp939
g15
(F0.0
F0.0
tp940
sg17
(F0.0
F0.0
tp941
sg19
(F-4.716e-05
F4.174e-06
tp942
ssg21
I5765
sg22
F0.5173085
sg23
I11
sg24
(lp943
sg27
(dp944
g29
(F0.597
F0.0056
tp945
sg31
(F-76.4843
F0.8159
tp946
sg33
(F0.2994
F0.0095
tp947
sg35
(F14.7241
F0.1539
tp948
sg7
(F170.1412
F0.1316
tp949
sg9
(F126.3048
F0.0837
tp950
sg11
(F-0.3916
F0.0082
tp951
sssS'IC0486'
p952
(dp953
g3
I2
sg4
F1460.21051401097
sg5
(dp954
g7
(F170.4215
F0.0142
tp955
sg9
(F122.5112
F0.0112
tp956
sg11
(F0.6888
F0.0156
tp957
ssg13
(dp958
g15
(F0.0
F0.0
tp959
sg17
(F0.0
F0.0
tp960
sg19
(F8.203e-07
F3.001e-06
tp961
ssg21
I5765
sg22
F0.2532889
sg23
I11
sg24
(lp962
sg27
(dp963
g29
(F0.3516
F0.0144
tp964
sg31
(F33.4335
F0.8808
tp965
sg33
(F0.1222
F0.0747
tp966
sg35
(F4.5584
F0.1593
tp967
sg7
(F170.0359
F0.0416
tp968
sg9
(F123.5029
F0.0535
tp969
sg11
(F1.0616
F0.0243
tp970
sssS'IIZw083'
p971
(dp972
g3
I2
sg4
F1467.24979960502
sg5
(dp973
g7
(F170.5679
F0.0396
tp974
sg9
(F124.4957
F0.0544
tp975
sg11
(F0.9593
F0.132
tp976
ssg13
(dp977
g15
(F0.0
F0.0
tp978
sg17
(F0.0
F0.0
tp979
sg19
(F-3.214e-05
F2.925e-06
tp980
ssg21
I5765
sg22
F0.2545099
sg23
I11
sg24
(lp981
sg27
(dp982
g29
(F0.8235
F0.0172
tp983
sg31
(F-81.8735
F4.7873
tp984
sg33
(F1.2607
F0.2423
tp985
sg35
(F2.0087
F0.1986
tp986
sg7
(F170.5706
F0.0428
tp987
sg9
(F123.9128
F0.0348
tp988
sg11
(F0.4453
F0.087
tp989
sssS'Mrk509'
p990
(dp991
g3
I2
sg4
F1284.18540690184
sg5
(dp992
g7
(F170.8026
F0.0745
tp993
sg9
(F123.5129
F0.1067
tp994
sg11
(F0.7181
F0.3372
tp995
ssg13
(dp996
g15
(F0.0
F0.0
tp997
sg17
(F0.0
F0.0
tp998
sg19
(F-2.051e-05
F2.713e-06
tp999
ssg21
I5765
sg22
F0.2227555
sg23
I11
sg24
(lp1000
sg27
(dp1001
g29
(F0.7637
F0.1438
tp1002
sg31
(F20.4372
F18.6811
tp1003
sg33
(F0.0865
F0.9433
tp1004
sg35
(F1.413
F0.534
tp1005
sg7
(F170.798
F0.0479
tp1006
sg9
(F123.8649
F0.0354
tp1007
sg11
(F0.1521
F0.2004
tp1008
sssS'NGC4051'
p1009
(dp1010
g24
(lp1011
S'Fit failed'
p1012
assS'MCG-01-33-063'
p1013
(dp1014
g3
I2
sg4
F1441.23582296528
sg5
(dp1015
g7
(F171.1897
F0.2665
tp1016
sg9
(F124.9508
F0.2687
tp1017
sg11
(F4.2208
F0.1542
tp1018
ssg13
(dp1019
g15
(F0.0
F0.0
tp1020
sg17
(F0.0
F0.0
tp1021
sg19
(F1.728e-05
F2.95e-06
tp1022
ssg21
I5765
sg22
F0.2499975
sg23
I11
sg24
(lp1023
sg27
(dp1024
g29
(F0.1752
F0.0056
tp1025
sg31
(F77.3822
F0.3468
tp1026
sg33
(F0.5169
F0.038
tp1027
sg35
(F9.0955
F0.1104
tp1028
sg7
(F172.4634
F0.0964
tp1029
sg9
(F123.7659
F0.0328
tp1030
sg11
(F0.9027
F0.0124
tp1031
sssS'NGC4748'
p1032
(dp1033
g3
I2
sg4
F1355.44094177416
sg5
(dp1034
g7
(F166.2636
F0.0744
tp1035
sg9
(F124.1362
F0.0452
tp1036
sg11
(F0.6327
F0.5408
tp1037
ssg13
(dp1038
g15
(F0.0
F0.0
tp1039
sg17
(F0.0
F0.0
tp1040
sg19
(F-3.178e-05
F6.835e-06
tp1041
ssg21
I5765
sg22
F0.2351155
sg23
I11
sg24
(lp1042
g26
asg27
(dp1043
g29
(F0.5875
F0.0209
tp1044
sg31
(F-38.369
F1.8242
tp1045
sg33
(F19.9993
Finf
tp1046
sg35
(F5.5136
F2.4656
tp1047
sg7
(F166.0996
F0.0698
tp1048
sg9
(F124.1319
F0.0773
tp1049
sg11
(F-0.3847
F0.7529
tp1050
sssS'NGC4507'
p1051
(dp1052
g3
I2
sg4
F2236.4232145556
sg5
(dp1053
g7
(F170.8742
F0.0083
tp1054
sg9
(F122.8636
F0.0082
tp1055
sg11
(F-1.2596
F0.0049
tp1056
ssg13
(dp1057
g15
(F0.0
F0.0
tp1058
sg17
(F0.0
F0.0
tp1059
sg19
(F-2.361e-05
F3.642e-06
tp1060
ssg21
I5765
sg22
F0.3879312
sg23
I11
sg24
(lp1061
sg27
(dp1062
g29
(F0.7848
F0.0075
tp1063
sg31
(F-53.9918
F1.1734
tp1064
sg33
(F0.0518
F0.0103
tp1065
sg35
(F14.5326
F0.5905
tp1066
sg7
(F170.5905
F0.0817
tp1067
sg9
(F122.4818
F0.0721
tp1068
sg11
(F-0.368
F0.0099
tp1069
sssS'VIIZw073'
p1070
(dp1071
g3
I2
sg4
F1349.25351901535
sg5
(dp1072
g7
(F168.017
F0.0236
tp1073
sg9
(F124.7317
F0.0477
tp1074
sg11
(F0.1719
F0.0498
tp1075
ssg13
(dp1076
g15
(F0.0
F0.0
tp1077
sg17
(F0.0
F0.0
tp1078
sg19
(F7.09e-06
F2.871e-06
tp1079
ssg21
I5765
sg22
F0.2340422
sg23
I11
sg24
(lp1080
g26
asg27
(dp1081
g29
(F0.203
F0.0992
tp1082
sg31
(F-80.2673
F3.6899
tp1083
sg33
(F4.1712
F0.9049
tp1084
sg35
(F0.3766
Finf
tp1085
sg7
(F167.7516
F0.0393
tp1086
sg9
(F123.4916
F0.1509
tp1087
sg11
(F-0.083
F0.0439
tp1088
sssS'NGC5106'
p1089
(dp1090
g3
I2
sg4
F2630.49438780574
sg5
(dp1091
g7
(F169.8828
F0.1169
tp1092
sg9
(F125.0681
F0.2489
tp1093
sg11
(F2.0185
F0.2571
tp1094
ssg13
(dp1095
g15
(F0.0
F0.0
tp1096
sg17
(F0.0
F0.0
tp1097
sg19
(F1.681e-05
F3.956e-06
tp1098
ssg21
I5765
sg22
F0.456287
sg23
I11
sg24
(lp1099
sg27
(dp1100
g29
(F0.4153
F0.0052
tp1101
sg31
(F-69.9484
F0.2896
tp1102
sg33
(F0.4406
F0.0349
tp1103
sg35
(F3.1479
F0.0597
tp1104
sg7
(F169.7701
F0.0106
tp1105
sg9
(F124.3395
F0.013
tp1106
sg11
(F-0.9928
F0.0165
tp1107
sssS'WKK4374'
p1108
(dp1109
g3
I2
sg4
F1593.44115101112
sg5
(dp1110
g7
(F172.603
F0.0762
tp1111
sg9
(F148.0961
F0.0769
tp1112
sg11
(F2.0465
F0.2753
tp1113
ssg13
(dp1114
g15
(F0.0
F0.0
tp1115
sg17
(F0.0
F0.0
tp1116
sg19
(F-3.693e-05
F2.98e-06
tp1117
ssg21
I5765
sg22
F0.2763992
sg23
I11
sg24
(lp1118
sg27
(dp1119
g29
(F0.5089
F0.0511
tp1120
sg31
(F-86.1519
F3.9276
tp1121
sg33
(F0.0574
F1.5577
tp1122
sg35
(F2.8434
F3.9336
tp1123
sg7
(F172.9205
F0.1204
tp1124
sg9
(F147.816
F0.1072
tp1125
sg11
(F2.2833
F0.3482
tp1126
sssS'NGC3035'
p1127
(dp1128
g3
I2
sg4
F1448.47934086817
sg5
(dp1129
g7
(F167.6874
F0.0204
tp1130
sg9
(F145.3407
F0.0193
tp1131
sg11
(F1.3977
F0.0097
tp1132
ssg13
(dp1133
g15
(F0.0
F0.0
tp1134
sg17
(F0.0
F0.0
tp1135
sg19
(F4.997e-05
F2.97e-06
tp1136
ssg21
I5765
sg22
F0.251254
sg23
I11
sg24
(lp1137
g26
asg27
(dp1138
g29
(F0.6847
F0.0119
tp1139
sg31
(F22.958
F1.3721
tp1140
sg33
(F0.0223
Finf
tp1141
sg35
(F15.2109
F0.0003
tp1142
sg7
(F167.3612
F0.0076
tp1143
sg9
(F143.5001
F0.0078
tp1144
sg11
(F0.6607
F0.0019
tp1145
sssS'NGC5252'
p1146
(dp1147
g3
I2
sg4
F1298.82696234571
sg5
(dp1148
g7
(F170.6062
F0.0264
tp1149
sg9
(F125.216
F0.0296
tp1150
sg11
(F1.9164
F0.0147
tp1151
ssg13
(dp1152
g15
(F0.0
F0.0
tp1153
sg17
(F0.0
F0.0
tp1154
sg19
(F-7.127e-05
F8.248e-06
tp1155
ssg21
I5765
sg22
F0.2252952
sg23
I11
sg24
(lp1156
sg27
(dp1157
g29
(F0.3332
F0.0197
tp1158
sg31
(F72.0021
F1.5631
tp1159
sg33
(F7.4877
F3.4072
tp1160
sg35
(F218.2796
F392.7619
tp1161
sg7
(F173.0685
F0.1999
tp1162
sg9
(F123.0731
F0.1007
tp1163
sg11
(F-0.6493
F1.078
tp1164
sssS'IC1657'
p1165
(dp1166
g3
I2
sg4
F6444.84140361431
sg5
(dp1167
g7
(F169.9093
F1.0171
tp1168
sg9
(F126.7815
F1.1875
tp1169
sg11
(F4.5099
F0.6031
tp1170
ssg13
(dp1171
g15
(F0.0
F0.0
tp1172
sg17
(F0.0
F0.0
tp1173
sg19
(F2.484e-05
F6.231e-06
tp1174
ssg21
I5765
sg22
F1.117926
sg23
I11
sg24
(lp1175
sg27
(dp1176
g29
(F0.1394
F0.0024
tp1177
sg31
(F-66.8405
F0.1211
tp1178
sg33
(F0.2613
F0.0104
tp1179
sg35
(F9.7338
F0.0412
tp1180
sg7
(F173.1047
F0.0368
tp1181
sg9
(F128.3716
F0.0153
tp1182
sg11
(F-1.1784
F0.0045
tp1183
sssS'ESO297-018'
p1184
(dp1185
g3
I2
sg4
F1865.90721671873
sg5
(dp1186
g7
(F169.5271
F0.0373
tp1187
sg9
(F126.2714
F0.0438
tp1188
sg11
(F2.0226
F0.0187
tp1189
ssg13
(dp1190
g15
(F0.0
F0.0
tp1191
sg17
(F0.0
F0.0
tp1192
sg19
(F-1.209e-05
F3.245e-06
tp1193
ssg21
I5765
sg22
F0.3236613
sg23
I11
sg24
(lp1194
sg27
(dp1195
g29
(F0.2186
F0.0046
tp1196
sg31
(F80.016
F0.3171
tp1197
sg33
(F0.1877
F0.0195
tp1198
sg35
(F9.0696
F0.1087
tp1199
sg7
(F170.1434
F0.0862
tp1200
sg9
(F126.2683
F0.0253
tp1201
sg11
(F0.5917
F0.0114
tp1202
sssS'NGC7465'
p1203
(dp1204
g3
I2
sg4
F1544.69684162391
sg5
(dp1205
g7
(F167.7685
F0.0314
tp1206
sg9
(F120.9332
F0.0415
tp1207
sg11
(F1.2633
F0.0317
tp1208
ssg13
(dp1209
g15
(F0.0
F0.0
tp1210
sg17
(F0.0
F0.0
tp1211
sg19
(F-2.325e-05
F3.144e-06
tp1212
ssg21
I5765
sg22
F0.2679439
sg23
I11
sg24
(lp1213
sg27
(dp1214
g29
(F0.7708
F0.0052
tp1215
sg31
(F46.7179
F0.9801
tp1216
sg33
(F1.9448
F0.0382
tp1217
sg35
(F2.1097
F0.0135
tp1218
sg7
(F170.2455
F0.006
tp1219
sg9
(F123.8631
F0.0059
tp1220
sg11
(F-1.4587
F0.0025
tp1221
sssS'Mrk975'
p1222
(dp1223
g3
I2
sg4
F1342.40878794342
sg5
(dp1224
g7
(F170.1383
F0.0187
tp1225
sg9
(F125.7054
F0.0243
tp1226
sg11
(F0.932
F0.0227
tp1227
ssg13
(dp1228
g15
(F0.0
F0.0
tp1229
sg17
(F0.0
F0.0
tp1230
sg19
(F1.935e-05
F2.807e-06
tp1231
ssg21
I5765
sg22
F0.2328549
sg23
I11
sg24
(lp1232
sg27
(dp1233
g29
(F0.3879
F0.0188
tp1234
sg31
(F48.6926
F1.3792
tp1235
sg33
(F0.0586
F0.1848
tp1236
sg35
(F3.7008
F0.4067
tp1237
sg7
(F170.3634
F0.047
tp1238
sg9
(F126.7885
F0.0442
tp1239
sg11
(F1.2662
F0.0351
tp1240
sssS'IC5063'
p1241
(dp1242
g3
I2
sg4
F5496.87596758482
sg5
(dp1243
g7
(F208.3081
F0.0541
tp1244
sg9
(F150.9316
F0.0518
tp1245
sg11
(F0.4021
F0.0837
tp1246
ssg13
(dp1247
g15
(F0.0
F0.0
tp1248
sg17
(F0.0
F0.0
tp1249
sg19
(F-2.658e-05
F2.138e-06
tp1250
ssg21
I5765
sg22
F0.953491
sg23
I11
sg24
(lp1251
sg27
(dp1252
g29
(F0.5955
F0.0069
tp1253
sg31
(F48.8092
F0.6788
tp1254
sg33
(F3.0979
F0.1024
tp1255
sg35
(F1.3987
F0.0404
tp1256
sg7
(F208.9962
F0.0124
tp1257
sg9
(F150.0145
F0.0123
tp1258
sg11
(F-1.4335
F0.0166
tp1259
sssS'ESO511-G030'
p1260
(dp1261
g3
I2
sg4
F1491.88585938136
sg5
(dp1262
g7
(F171.6454
F0.0609
tp1263
sg9
(F124.3425
F0.0625
tp1264
sg11
(F3.1891
F0.0651
tp1265
ssg13
(dp1266
g15
(F0.0
F0.0
tp1267
sg17
(F0.0
F0.0
tp1268
sg19
(F-5.047e-05
F2.47e-05
tp1269
ssg21
I5765
sg22
F0.2587833
sg23
I11
sg24
(lp1270
sg27
(dp1271
g29
(F0.5074
F0.0204
tp1272
sg31
(F35.4992
F2.1343
tp1273
sg33
(F2.443
F1.023
tp1274
sg35
(F73.1768
F68.3505
tp1275
sg7
(F171.4922
F0.2209
tp1276
sg9
(F124.8651
F0.3078
tp1277
sg11
(F-0.7422
F0.9505
tp1278
sssS'IC4329A'
p1279
(dp1280
g3
I2
sg4
F1520.7330768518
sg5
(dp1281
g7
(F170.5523
F0.0441
tp1282
sg9
(F125.6776
F0.1626
tp1283
sg11
(F0.5519
F0.3949
tp1284
ssg13
(dp1285
g15
(F0.0
F0.0
tp1286
sg17
(F0.0
F0.0
tp1287
sg19
(F-2.431e-05
F2.973e-06
tp1288
ssg21
I5765
sg22
F0.2637872
sg23
I11
sg24
(lp1289
sg27
(dp1290
g29
(F0.1819
F0.0302
tp1291
sg31
(F-44.8282
F1.0253
tp1292
sg33
(F5.9889
F1.6466
tp1293
sg35
(F0.6457
F0.2743
tp1294
sg7
(F170.65
F0.055
tp1295
sg9
(F125.2617
F0.0618
tp1296
sg11
(F-0.0838
F0.2099
tp1297
sssS'NGC4941'
p1298
(dp1299
g3
I2
sg4
F1580.19287081791
sg5
(dp1300
g7
(F171.0203
F0.019
tp1301
sg9
(F124.3645
F0.0135
tp1302
sg11
(F0.4552
F0.0214
tp1303
ssg13
(dp1304
g15
(F0.0
F0.0
tp1305
sg17
(F0.0
F0.0
tp1306
sg19
(F4.813e-05
F2.98e-06
tp1307
ssg21
I5765
sg22
F0.2741011
sg23
I11
sg24
(lp1308
sg27
(dp1309
g29
(F0.7472
F0.0247
tp1310
sg31
(F-40.9795
F4.8587
tp1311
sg33
(F0.224
F0.1676
tp1312
sg35
(F3.6126
F0.307
tp1313
sg7
(F170.2438
F0.0838
tp1314
sg9
(F123.7558
F0.0725
tp1315
sg11
(F1.6034
F0.0687
tp1316
sssS'NGC985'
p1317
(dp1318
g24
(lp1319
g1012
assS'Mrk739E'
p1320
(dp1321
g3
I2
sg4
F1933.57436800954
sg5
(dp1322
g7
(F171.1978
F0.0813
tp1323
sg9
(F119.6688
F0.0895
tp1324
sg11
(F1.8098
F0.0475
tp1325
ssg13
(dp1326
g15
(F0.0
F0.0
tp1327
sg17
(F0.0
F0.0
tp1328
sg19
(F-3.276e-06
F3.38e-06
tp1329
ssg21
I5765
sg22
F0.3353989
sg23
I11
sg24
(lp1330
sg27
(dp1331
g29
(F0.4753
F0.0053
tp1332
sg31
(F-4.1712
F0.5148
tp1333
sg33
(F0.4935
F0.0255
tp1334
sg35
(F3.798
F0.038
tp1335
sg7
(F170.9266
F0.0148
tp1336
sg9
(F121.3261
F0.0223
tp1337
sg11
(F-0.3198
F0.0061
tp1338
sssS'Mrk766'
p1339
(dp1340
g3
I2
sg4
F1472.90944944711
sg5
(dp1341
g7
(F171.6858
F0.0148
tp1342
sg9
(F123.2665
F0.0126
tp1343
sg11
(F-1.1809
F0.0469
tp1344
ssg13
(dp1345
g15
(F0.0
F0.0
tp1346
sg17
(F0.0
F0.0
tp1347
sg19
(F-2.197e-05
F3.155e-06
tp1348
ssg21
I5765
sg22
F0.2554917
sg23
I11
sg24
(lp1349
sg27
(dp1350
g29
(F0.4433
F0.0217
tp1351
sg31
(F-6.0745
F1.3091
tp1352
sg33
(F1.4983
F0.3374
tp1353
sg35
(F2.1702
F0.3528
tp1354
sg7
(F171.6533
F0.0531
tp1355
sg9
(F122.8722
F0.0485
tp1356
sg11
(F0.008449
F0.146
tp1357
sssS'MCG-01-30-041'
p1358
(dp1359
g3
I2
sg4
F1484.53182227444
sg5
(dp1360
g7
(F170.4564
F0.0373
tp1361
sg9
(F124.0982
F0.0563
tp1362
sg11
(F0.843
F0.0976
tp1363
ssg13
(dp1364
g15
(F0.0
F0.0
tp1365
sg17
(F0.0
F0.0
tp1366
sg19
(F-6.828e-05
F2.984e-06
tp1367
ssg21
I5765
sg22
F0.2575077
sg23
I11
sg24
(lp1368
sg27
(dp1369
g29
(F0.3003
F0.0226
tp1370
sg31
(F-76.2748
F1.0419
tp1371
sg33
(F8.3796
F1.1434
tp1372
sg35
(F0.703
F0.0655
tp1373
sg7
(F170.2711
F0.041
tp1374
sg9
(F123.1217
F0.0566
tp1375
sg11
(F0.0135
F0.0442
tp1376
sssS'Mrk477'
p1377
(dp1378
g3
I2
sg4
F3377.57384412635
sg5
(dp1379
g7
(F172.442
F0.9424
tp1380
sg9
(F124.0395
F0.3554
tp1381
sg11
(F0.5919
F1.6364
tp1382
ssg13
(dp1383
g15
(F0.0
F0.0
tp1384
sg17
(F0.0
F0.0
tp1385
sg19
(F-1.122e-05
F4.634e-06
tp1386
ssg21
I5765
sg22
F0.5858757
sg23
I11
sg24
(lp1387
sg27
(dp1388
g29
(F0.861
F0.6778
tp1389
sg31
(F10.6699
F137.9512
tp1390
sg33
(F1.0763
F3.0926
tp1391
sg35
(F0.5424
F1.053
tp1392
sg7
(F171.8867
F0.2279
tp1393
sg9
(F124.1772
F0.3172
tp1394
sg11
(F0.5488
F1.5732
tp1395
sssS'NGC5899'
p1396
(dp1397
g24
(lp1398
g1012
assS'NGC4619'
p1399
(dp1400
g3
I2
sg4
F2564.9571833404
sg5
(dp1401
g7
(F169.9803
F0.1465
tp1402
sg9
(F124.3792
F0.1362
tp1403
sg11
(F3.2278
F0.0596
tp1404
ssg13
(dp1405
g15
(F0.0
F0.0
tp1406
sg17
(F0.0
F0.0
tp1407
sg19
(F1.737e-05
F3.94e-06
tp1408
ssg21
I5765
sg22
F0.4449188
sg23
I11
sg24
(lp1409
sg27
(dp1410
g29
(F0.6007
F0.004
tp1411
sg31
(F79.8538
F0.688
tp1412
sg33
(F0.2441
F0.0113
tp1413
sg35
(F10.4628
F0.0755
tp1414
sg7
(F170.4499
F0.0796
tp1415
sg9
(F124.8816
F0.0502
tp1416
sg11
(F-0.312
F0.0065
tp1417
sssS'ARP151'
p1418
(dp1419
g3
I2
sg4
F1547.17823636059
sg5
(dp1420
g7
(F167.9783
F0.3157
tp1421
sg9
(F114.7159
F0.8052
tp1422
sg11
(F4.214
F1.364
tp1423
ssg13
(dp1424
g15
(F0.0
F0.0
tp1425
sg17
(F0.0
F0.0
tp1426
sg19
(F-9.976e-07
F3.027e-06
tp1427
ssg21
I5765
sg22
F0.2683744
sg23
I11
sg24
(lp1428
sg27
(dp1429
g29
(F0.1585
F29247.668
tp1430
sg31
(F-21.3715
F1705902.25
tp1431
sg33
(F0.2263
F15280.8574
tp1432
sg35
(F0.5076
F8383.2217
tp1433
sg7
(F168.1621
F7420.938
tp1434
sg9
(F115.1512
F1.3423
tp1435
sg11
(F4.233
F10.4042
tp1436
sssS'NGC2655'
p1437
(dp1438
g3
I2
sg4
F1557.21268882125
sg5
(dp1439
g7
(F165.2396
F0.1247
tp1440
sg9
(F122.7563
F0.0998
tp1441
sg11
(F3.0461
F0.0446
tp1442
ssg13
(dp1443
g15
(F0.0
F0.0
tp1444
sg17
(F0.0
F0.0
tp1445
sg19
(F-7.095e-06
F3.396e-06
tp1446
ssg21
I5765
sg22
F0.270115
sg23
I11
sg24
(lp1447
sg27
(dp1448
g29
(F0.6056
F0.0115
tp1449
sg31
(F-84.522
F1.1534
tp1450
sg33
(F8.8292
F0.789
tp1451
sg35
(F2.2547
F0.0849
tp1452
sg7
(F170.421
F0.0138
tp1453
sg9
(F123.1475
F0.0149
tp1454
sg11
(F-0.8139
F0.0261
tp1455
sssS'MCG-06-30-015'
p1456
(dp1457
g3
I2
sg4
F1372.65389840408
sg5
(dp1458
g7
(F170.4722
F0.0113
tp1459
sg9
(F124.267
F0.0108
tp1460
sg11
(F0.0483
F0.0189
tp1461
ssg13
(dp1462
g15
(F0.0
F0.0
tp1463
sg17
(F0.0
F0.0
tp1464
sg19
(F-4.878e-05
F2.844e-06
tp1465
ssg21
I5765
sg22
F0.2381013
sg23
I11
sg24
(lp1466
sg27
(dp1467
g29
(F0.4433
F0.0402
tp1468
sg31
(F28.064
F2.8543
tp1469
sg33
(F0.7008
F0.2984
tp1470
sg35
(F3.7258
F0.4755
tp1471
sg7
(F170.4447
F0.1229
tp1472
sg9
(F123.5873
F0.127
tp1473
sg11
(F1.9441
F0.1177
tp1474
sssS'IISZ010'
p1475
(dp1476
g3
I2
sg4
F1372.06697655752
sg5
(dp1477
g7
(F207.7398
F0.1026
tp1478
sg9
(F148.3371
F0.0383
tp1479
sg11
(F3.5352
F0.1763
tp1480
ssg13
(dp1481
g15
(F0.0
F0.0
tp1482
sg17
(F0.0
F0.0
tp1483
sg19
(F1.217e-05
F1.01e-06
tp1484
ssg21
I5765
sg22
F0.2379995
sg23
I11
sg24
(lp1485
sg27
(dp1486
g29
(F0.3612
F0.0285
tp1487
sg31
(F-23.5308
F2.0474
tp1488
sg33
(F0.8316
F0.4035
tp1489
sg35
(F3.4842
F0.4952
tp1490
sg7
(F207.1587
F0.0752
tp1491
sg9
(F148.2236
F0.0987
tp1492
sg11
(F3.1515
F0.1346
tp1493
sssS'NGC4102'
p1494
(dp1495
g3
I2
sg4
F33423.3245470621
sg5
(dp1496
g7
(F167.6746
F0.0387
tp1497
sg9
(F123.254
F0.0452
tp1498
sg11
(F-3.3835
F0.0567
tp1499
ssg13
(dp1500
g15
(F0.0
F0.0
tp1501
sg17
(F0.0
F0.0
tp1502
sg19
(F6.261e-05
F2.775e-05
tp1503
ssg21
I5765
sg22
F5.797628
sg23
I11
sg24
(lp1504
g26
asg27
(dp1505
g29
(F0.8849
F0.0198
tp1506
sg31
(F-30.0821
F6.0827
tp1507
sg33
(F19.9999
Finf
tp1508
sg35
(F0.4797
Finf
tp1509
sg7
(F167.1111
F0.0749
tp1510
sg9
(F125.1452
F0.105
tp1511
sg11
(F-3.7958
F0.0435
tp1512
sssS'ESO565-G019'
p1513
(dp1514
g3
I2
sg4
F11160.1279426509
sg5
(dp1515
g7
(F168.5885
F0.2647
tp1516
sg9
(F118.1045
F0.361
tp1517
sg11
(F2.201
F0.3336
tp1518
ssg13
(dp1519
g15
(F0.0
F0.0
tp1520
sg17
(F0.0
F0.0
tp1521
sg19
(F2.584e-05
F8.384e-06
tp1522
ssg21
I5765
sg22
F1.935842
sg23
I11
sg24
(lp1523
sg27
(dp1524
g29
(F0.5117
F0.0152
tp1525
sg31
(F79.4369
F1.9764
tp1526
sg33
(F0.8062
F0.077
tp1527
sg35
(F2.2206
F0.0501
tp1528
sg7
(F171.5891
F0.0472
tp1529
sg9
(F116.2559
F0.0251
tp1530
sg11
(F-1.0745
F0.0156
tp1531
sssS'LCRSB232242.2-384320'
p1532
(dp1533
g3
I2
sg4
F1458.69201541515
sg5
(dp1534
g7
(F168.8531
F0.05
tp1535
sg9
(F121.9782
F0.0632
tp1536
sg11
(F2.0708
F0.2054
tp1537
ssg13
(dp1538
g15
(F0.0
F0.0
tp1539
sg17
(F0.0
F0.0
tp1540
sg19
(F3.524e-05
F2.88e-06
tp1541
ssg21
I5765
sg22
F0.2530255
sg23
I11
sg24
(lp1542
g26
asg27
(dp1543
g29
(F0.9644
F0.0203
tp1544
sg31
(F-0.076
F18.6857
tp1545
sg33
(F0.0454
Finf
tp1546
sg35
(F2.8067
F7.3213
tp1547
sg7
(F168.6123
F0.0242
tp1548
sg9
(F122.31
F0.0234
tp1549
sg11
(F0.8177
F0.0661
tp1550
sssS'NGC3431'
p1551
(dp1552
g3
I2
sg4
F1373.18879757326
sg5
(dp1553
g7
(F170.5117
F0.0206
tp1554
sg9
(F124.8453
F0.0219
tp1555
sg11
(F1.4774
F0.0078
tp1556
ssg13
(dp1557
g15
(F0.0
F0.0
tp1558
sg17
(F0.0
F0.0
tp1559
sg19
(F-2.015e-05
F2.853e-06
tp1560
ssg21
I5765
sg22
F0.2381941
sg23
I11
sg24
(lp1561
sg27
(dp1562
g29
(F0.2184
F0.0043
tp1563
sg31
(F35.0234
F0.3273
tp1564
sg33
(F0.2276
F0.0258
tp1565
sg35
(F10.7846
F0.1354
tp1566
sg7
(F171.0518
F0.0653
tp1567
sg9
(F124.4002
F0.0938
tp1568
sg11
(F0.7699
F0.0118
tp1569
sssS'NGC5728'
p1570
(dp1571
g3
I2
sg4
F39149.7292308893
sg5
(dp1572
g7
(F208.9006
F0.0679
tp1573
sg9
(F156.8023
F0.0697
tp1574
sg11
(F-0.8106
F0.172
tp1575
ssg13
(dp1576
g15
(F0.0
F0.0
tp1577
sg17
(F0.0
F0.0
tp1578
sg19
(F0.0002308
F5.738e-06
tp1579
ssg21
I5765
sg22
F6.790933
sg23
I11
sg24
(lp1580
sg27
(dp1581
g29
(F0.9219
F0.0091
tp1582
sg31
(F84.335
F4.921
tp1583
sg33
(F0.7477
F0.0824
tp1584
sg35
(F2.2549
F0.1241
tp1585
sg7
(F208.8363
F0.0191
tp1586
sg9
(F156.5867
F0.0201
tp1587
sg11
(F-2.0275
F0.0576
tp1588
sssS'2MASXJ12313717-4758019'
p1589
(dp1590
g3
I2
sg4
F1535.67864903827
sg5
(dp1591
g7
(F171.8674
F0.025
tp1592
sg9
(F125.1658
F0.0239
tp1593
sg11
(F0.9106
F0.0389
tp1594
ssg13
(dp1595
g15
(F0.0
F0.0
tp1596
sg17
(F0.0
F0.0
tp1597
sg19
(F-5.217e-05
F3e-06
tp1598
ssg21
I5765
sg22
F0.2663797
sg23
I11
sg24
(lp1599
sg27
(dp1600
g29
(F0.4075
F0.007
tp1601
sg31
(F50.7012
F0.4317
tp1602
sg33
(F0.0925
F0.0524
tp1603
sg35
(F4.0847
F0.0973
tp1604
sg7
(F171.9659
F0.0148
tp1605
sg9
(F125.0753
F0.0143
tp1606
sg11
(F0.0567
F0.0189
tp1607
sssS'3C120'
p1608
(dp1609
g3
I2
sg4
F1345.16289514573
sg5
(dp1610
g7
(F170.7887
F0.0738
tp1611
sg9
(F120.6965
F0.1391
tp1612
sg11
(F1.3827
F0.2208
tp1613
ssg13
(dp1614
g15
(F0.0
F0.0
tp1615
sg17
(F0.0
F0.0
tp1616
sg19
(F-5.065e-05
F2.832e-06
tp1617
ssg21
I5765
sg22
F0.2333327
sg23
I11
sg24
(lp1618
sg27
(dp1619
g29
(F0.6516
F0.0154
tp1620
sg31
(F-85.8098
F1.7613
tp1621
sg33
(F1.2659
F0.1821
tp1622
sg35
(F1.6464
F0.1303
tp1623
sg7
(F170.9364
F0.0285
tp1624
sg9
(F121.459
F0.0357
tp1625
sg11
(F0.004694
F0.06435
tp1626
sssS'NGC6552'
p1627
(dp1628
g3
I2
sg4
F1546.72293613717
sg5
(dp1629
g7
(F170.1462
F0.0221
tp1630
sg9
(F122.3748
F0.0857
tp1631
sg11
(F-0.3346
F0.2066
tp1632
ssg13
(dp1633
g15
(F0.0
F0.0
tp1634
sg17
(F0.0
F0.0
tp1635
sg19
(F-3.093e-05
F3.073e-06
tp1636
ssg21
I5765
sg22
F0.2682954
sg23
I11
sg24
(lp1637
sg27
(dp1638
g29
(F0.2325
F0.0166
tp1639
sg31
(F-77.1602
F0.99
tp1640
sg33
(F9.7362
F3.7113
tp1641
sg35
(F0.854
F0.5612
tp1642
sg7
(F169.9704
F0.0595
tp1643
sg9
(F122.8509
F0.0676
tp1644
sg11
(F-0.1842
F0.3003
tp1645
sssS'CGCG319-007'
p1646
(dp1647
g3
I2
sg4
F1296.23506690277
sg5
(dp1648
g7
(F170.2698
F0.083
tp1649
sg9
(F124.6394
F0.1033
tp1650
sg11
(F2.6722
F0.2688
tp1651
ssg13
(dp1652
g15
(F0.0
F0.0
tp1653
sg17
(F0.0
F0.0
tp1654
sg19
(F-1.202e-05
F2.659e-06
tp1655
ssg21
I5765
sg22
F0.2248456
sg23
I11
sg24
(lp1656
g26
asg27
(dp1657
g29
(F0.3131
F0.0386
tp1658
sg31
(F-64.0646
F2.3715
tp1659
sg33
(F0.0314
Finf
tp1660
sg35
(F3.3238
F11.3849
tp1661
sg7
(F169.9454
F0.0502
tp1662
sg9
(F124.4099
F0.0505
tp1663
sg11
(F1.5372
F0.0665
tp1664
sssS'MCG+04-48-002'
p1665
(dp1666
g3
I2
sg4
F1863.04516275013
sg5
(dp1667
g7
(F171.0076
F0.0513
tp1668
sg9
(F126.6359
F0.0331
tp1669
sg11
(F-0.2427
F0.062
tp1670
ssg13
(dp1671
g15
(F0.0
F0.0
tp1672
sg17
(F0.0
F0.0
tp1673
sg19
(F-1.299e-05
F3.448e-06
tp1674
ssg21
I5765
sg22
F0.3231648
sg23
I11
sg24
(lp1675
sg27
(dp1676
g29
(F0.2875
F0.0032
tp1677
sg31
(F27.5902
F0.1335
tp1678
sg33
(F0.4204
F0.0124
tp1679
sg35
(F3.8423
F0.0332
tp1680
sg7
(F170.4032
F0.0054
tp1681
sg9
(F127.0432
F0.0072
tp1682
sg11
(F-2.4255
F0.0087
tp1683
sssS'LEDA170194'
p1684
(dp1685
g3
I2
sg4
F1301.93406920838
sg5
(dp1686
g7
(F166.9823
F0.0287
tp1687
sg9
(F125.0668
F0.0357
tp1688
sg11
(F1.843
F0.051
tp1689
ssg13
(dp1690
g15
(F0.0
F0.0
tp1691
sg17
(F0.0
F0.0
tp1692
sg19
(F7.31e-06
F2.689e-06
tp1693
ssg21
I5765
sg22
F0.2258342
sg23
I11
sg24
(lp1694
sg27
(dp1695
g29
(F0.6469
F0.0273
tp1696
sg31
(F-33.4532
F4.2325
tp1697
sg33
(F0.8295
F0.2076
tp1698
sg35
(F4.1174
F0.302
tp1699
sg7
(F166.7975
F0.1018
tp1700
sg9
(F124.1888
F0.1239
tp1701
sg11
(F1.8845
F0.0604
tp1702
sssS'NGC5290'
p1703
(dp1704
g3
I2
sg4
F2971.81547929963
sg5
(dp1705
g7
(F171.0836
F0.0364
tp1706
sg9
(F124.0534
F0.0295
tp1707
sg11
(F1.5392
F0.013
tp1708
ssg13
(dp1709
g15
(F0.0
F0.0
tp1710
sg17
(F0.0
F0.0
tp1711
sg19
(F-3.25e-05
F3.414e-06
tp1712
ssg21
I7385
sg22
F0.4024124
sg23
I11
sg24
(lp1713
sg27
(dp1714
g29
(F0.1634
F0.0018
tp1715
sg31
(F7.7584
F0.1555
tp1716
sg33
(F1.4244
F0.0455
tp1717
sg35
(F22.3911
F0.5317
tp1718
sg7
(F172.2436
F0.0179
tp1719
sg9
(F121.4907
F0.0997
tp1720
sg11
(F-0.8742
F0.018
tp1721
sssS'M106'
p1722
(dp1723
g3
I2
sg4
F144409.908253387
sg5
(dp1724
g7
(F142.4257
F0.0
tp1725
sg9
(F119.4715
F0.0
tp1726
sg11
(F81.2299
Finf
tp1727
ssg13
(dp1728
g15
(F0.0
F0.0
tp1729
sg17
(F0.0
F0.0
tp1730
sg19
(F-0.0008823
F9.159e-06
tp1731
ssg21
I24426
sg22
F5.912139
sg23
I11
sg24
(lp1732
g26
asg27
(dp1733
g29
(F0.4346
F0.0
tp1734
sg31
(F-84.6793
F0.0
tp1735
sg33
(F1.6818
F0.0
tp1736
sg35
(F57.5094
F0.0
tp1737
sg7
(F163.6182
F0.0
tp1738
sg9
(F123.3997
F0.0
tp1739
sg11
(F-3.8066
F0.0
tp1740
sssS'ESO005-G004'
p1741
(dp1742
g3
I2
sg4
F16083.0599954012
sg5
(dp1743
g7
(F170.6635
F0.0233
tp1744
sg9
(F117.1016
F0.0261
tp1745
sg11
(F-0.0388
F0.0151
tp1746
ssg13
(dp1747
g15
(F0.0
F0.0
tp1748
sg17
(F0.0
F0.0
tp1749
sg19
(F2.755e-05
F3.186e-06
tp1750
ssg21
I16714
sg22
F0.9622508
sg23
I11
sg24
(lp1751
g26
asg27
(dp1752
g29
(F0.0895
Finf
tp1753
sg31
(F-30.5411
F0.03
tp1754
sg33
(F0.3653
F0.0051
tp1755
sg35
(F20.6683
F0.0436
tp1756
sg7
(F170.026
F0.0178
tp1757
sg9
(F116.4772
F0.0304
tp1758
sg11
(F-2.3396
F0.0025
tp1759
sssS'NGC5231'
p1760
(dp1761
g3
I2
sg4
F1365.73834649518
sg5
(dp1762
g7
(F166.181
F0.0326
tp1763
sg9
(F124.5999
F0.0219
tp1764
sg11
(F1.7666
F0.0285
tp1765
ssg13
(dp1766
g15
(F0.0
F0.0
tp1767
sg17
(F0.0
F0.0
tp1768
sg19
(F2.61e-05
F2.817e-06
tp1769
ssg21
I5765
sg22
F0.2369017
sg23
I11
sg24
(lp1770
g26
asg27
(dp1771
g29
(F0.6177
F0.0121
tp1772
sg31
(F19.8736
F1.1698
tp1773
sg33
(F0.0166
Finf
tp1774
sg35
(F5.449
F0.0036
tp1775
sg7
(F166.0643
F0.0296
tp1776
sg9
(F124.7533
F0.0134
tp1777
sg11
(F0.8036
F0.009
tp1778
sssS'NGC4180'
p1779
(dp1780
g3
I2
sg4
F4350.08704883544
sg5
(dp1781
g7
(F171.0244
F0.0261
tp1782
sg9
(F123.5244
F0.0267
tp1783
sg11
(F0.2766
F0.0166
tp1784
ssg13
(dp1785
g15
(F0.0
F0.0
tp1786
sg17
(F0.0
F0.0
tp1787
sg19
(F-3.542e-05
F5.141e-06
tp1788
ssg21
I5765
sg22
F0.7545685
sg23
I11
sg24
(lp1789
sg27
(dp1790
g29
(F0.3031
F0.0016
tp1791
sg31
(F-59.4793
F0.1191
tp1792
sg33
(F0.3284
F0.0067
tp1793
sg35
(F7.581
F0.0248
tp1794
sg7
(F171.3673
F0.0157
tp1795
sg9
(F123.8869
F0.0099
tp1796
sg11
(F-1.6729
F0.0028
tp1797
sssS'Mrk885'
p1798
(dp1799
g3
I2
sg4
F1422.5020445587
sg5
(dp1800
g7
(F169.4317
F0.0227
tp1801
sg9
(F122.6267
F0.0194
tp1802
sg11
(F1.9642
F0.0302
tp1803
ssg13
(dp1804
g15
(F0.0
F0.0
tp1805
sg17
(F0.0
F0.0
tp1806
sg19
(F-8.752e-06
F2.889e-06
tp1807
ssg21
I5765
sg22
F0.246748
sg23
I11
sg24
(lp1808
sg27
(dp1809
g29
(F0.7647
F0.0196
tp1810
sg31
(F46.166
F4.243
tp1811
sg33
(F0.1203
F0.0857
tp1812
sg35
(F4.4885
F0.1898
tp1813
sg7
(F169.194
F0.0778
tp1814
sg9
(F121.7364
F0.0704
tp1815
sg11
(F1.6927
F0.0262
tp1816
sssS'2MASXJ03342453-1513402'
p1817
(dp1818
g3
I2
sg4
F4126.54815370717
sg5
(dp1819
g7
(F171.4511
F0.2213
tp1820
sg9
(F124.563
F0.3195
tp1821
sg11
(F2.7631
F1.9359
tp1822
ssg13
(dp1823
g15
(F0.0
F0.0
tp1824
sg17
(F0.0
F0.0
tp1825
sg19
(F1.265e-05
F4.687e-06
tp1826
ssg21
I5765
sg22
F0.7157933
sg23
I11
sg24
(lp1827
sg27
(dp1828
g29
(F0.5213
F0.0312
tp1829
sg31
(F74.6965
F3.1663
tp1830
sg33
(F0.9128
F0.6459
tp1831
sg35
(F1.9347
F0.6643
tp1832
sg7
(F171.5458
F0.0605
tp1833
sg9
(F124.5095
F0.0719
tp1834
sg11
(F0.7829
F0.3181
tp1835
sssS'ESO548-G081'
p1836
(dp1837
g3
I2
sg4
F1373.6164822779
sg5
(dp1838
g7
(F171.7944
F0.0224
tp1839
sg9
(F123.8102
F0.022
tp1840
sg11
(F1.4323
F0.012
tp1841
ssg13
(dp1842
g15
(F0.0
F0.0
tp1843
sg17
(F0.0
F0.0
tp1844
sg19
(F-2.036e-05
F2.729e-06
tp1845
ssg21
I5765
sg22
F0.2382683
sg23
I11
sg24
(lp1846
sg27
(dp1847
g29
(F0.8198
F0.0075
tp1848
sg31
(F62.5376
F2.1866
tp1849
sg33
(F0.3201
F0.0215
tp1850
sg35
(F6.3348
F0.0763
tp1851
sg7
(F171.7812
F0.0495
tp1852
sg9
(F123.8148
F0.0426
tp1853
sg11
(F0.4485
F0.0111
tp1854
sssS'IGRJ11366-6002'
p1855
(dp1856
g3
I2
sg4
F1343.29088819691
sg5
(dp1857
g7
(F170.8692
F0.1828
tp1858
sg9
(F124.2991
F0.0883
tp1859
sg11
(F0.9347
F0.4536
tp1860
ssg13
(dp1861
g15
(F0.0
F0.0
tp1862
sg17
(F0.0
F0.0
tp1863
sg19
(F-3.787e-05
F2.903e-06
tp1864
ssg21
I5765
sg22
F0.233008
sg23
I11
sg24
(lp1865
g26
asg27
(dp1866
g29
(F0.5904
F0.0402
tp1867
sg31
(F-33.6105
F3.4927
tp1868
sg33
(F17.9209
Finf
tp1869
sg35
(F0.5827
F0.6859
tp1870
sg7
(F170.4784
F0.1148
tp1871
sg9
(F124.1129
F0.0989
tp1872
sg11
(F0.1765
F0.4891
tp1873
sssS'2MASXJ21355399+4728217'
p1874
(dp1875
g3
I2
sg4
F1590.5922792911
sg5
(dp1876
g7
(F169.9868
F0.0212
tp1877
sg9
(F125.2066
F0.0209
tp1878
sg11
(F1.1682
F0.0321
tp1879
ssg13
(dp1880
g15
(F0.0
F0.0
tp1881
sg17
(F0.0
F0.0
tp1882
sg19
(F-1.164e-05
F3.091e-06
tp1883
ssg21
I5765
sg22
F0.275905
sg23
I11
sg24
(lp1884
sg27
(dp1885
g29
(F0.1723
F0.077
tp1886
sg31
(F60.7159
F1.9347
tp1887
sg33
(F0.2635
F0.2083
tp1888
sg35
(F4.5683
F0.4745
tp1889
sg7
(F169.9635
F0.1595
tp1890
sg9
(F125.2359
F0.1276
tp1891
sg11
(F2.2499
F0.0948
tp1892
sssS'2MFGC02280'
p1893
(dp1894
g3
I2
sg4
F1626.34586103354
sg5
(dp1895
g7
(F168.8163
F0.0438
tp1896
sg9
(F122.962
F0.0327
tp1897
sg11
(F1.5262
F0.0209
tp1898
ssg13
(dp1899
g15
(F0.0
F0.0
tp1900
sg17
(F0.0
F0.0
tp1901
sg19
(F-1.463e-05
F3.1e-06
tp1902
ssg21
I5765
sg22
F0.2821068
sg23
I11
sg24
(lp1903
g26
asg27
(dp1904
g29
(F0.003154
Finf
tp1905
sg31
(F-15.9847
F25.4973
tp1906
sg33
(F1.5206
F5.2
tp1907
sg35
(F0.9274
F35.1552
tp1908
sg7
(F171.7015
F2.6046
tp1909
sg9
(F124.0566
F8.6184
tp1910
sg11
(F-0.9115
F24.8411
tp1911
sssS'NGC6300'
p1912
(dp1913
g24
(lp1914
g1012
assS'NGC3786'
p1915
(dp1916
g3
I2
sg4
F2573.47094844185
sg5
(dp1917
g7
(F167.8518
F0.0145
tp1918
sg9
(F123.3175
F0.013
tp1919
sg11
(F-0.3267
F0.0061
tp1920
ssg13
(dp1921
g15
(F0.0
F0.0
tp1922
sg17
(F0.0
F0.0
tp1923
sg19
(F-3.377e-05
F4e-06
tp1924
ssg21
I5765
sg22
F0.4463957
sg23
I11
sg24
(lp1925
g26
asg27
(dp1926
g29
(F0.3693
F0.005
tp1927
sg31
(F-27.4567
F0.3214
tp1928
sg33
(F0.0262
Finf
tp1929
sg35
(F16.0599
F0.0002
tp1930
sg7
(F166.5308
F0.0038
tp1931
sg9
(F126.0359
F0.0033
tp1932
sg11
(F-0.001196
F0.001577
tp1933
sssS'Mrk817'
p1934
(dp1935
g3
I2
sg4
F1360.7768319845
sg5
(dp1936
g7
(F171.083
F0.0076
tp1937
sg9
(F125.6609
F0.0074
tp1938
sg11
(F-0.5766
F0.0056
tp1939
ssg13
(dp1940
g15
(F0.0
F0.0
tp1941
sg17
(F0.0
F0.0
tp1942
sg19
(F-1.609e-05
F2.878e-06
tp1943
ssg21
I5765
sg22
F0.2360411
sg23
I11
sg24
(lp1944
g26
asg27
(dp1945
g29
(F0.7783
F0.0247
tp1946
sg31
(F-15.5721
F4.3298
tp1947
sg33
(F0.0214
Finf
tp1948
sg35
(F5.7787
F8.1246
tp1949
sg7
(F171.3845
F0.0682
tp1950
sg9
(F125.2539
F0.0707
tp1951
sg11
(F1.298
F0.0328
tp1952
sssS'IC4518A'
p1953
(dp1954
g3
I2
sg4
F32993.6036579558
sg5
(dp1955
g7
(F168.6806
F0.3399
tp1956
sg9
(F126.4795
F0.3673
tp1957
sg11
(F-0.0114
F0.6766
tp1958
ssg13
(dp1959
g15
(F0.0
F0.0
tp1960
sg17
(F0.0
F0.0
tp1961
sg19
(F0.000153
F1.433e-05
tp1962
ssg21
I5765
sg22
F5.723088
sg23
I11
sg24
(lp1963
S'Source not detected.'
p1964
ag26
asg27
(dp1965
g29
(F0.9143
F937.7994
tp1966
sg31
(F5.3894
F959574.125
tp1967
sg33
(F3.622
F415.017
tp1968
sg35
(F0.009985
Finf
tp1969
sg7
(F170.7267
F345.5105
tp1970
sg9
(F125.9536
F46.7225
tp1971
sg11
(F-1.7198
F101.8916
tp1972
sssS'MCG-03-34-064'
p1973
(dp1974
g3
I2
sg4
F1587.21550345041
sg5
(dp1975
g7
(F170.8005
F0.0105
tp1976
sg9
(F125.1743
F0.0087
tp1977
sg11
(F-1.4132
F0.0238
tp1978
ssg13
(dp1979
g15
(F0.0
F0.0
tp1980
sg17
(F0.0
F0.0
tp1981
sg19
(F-2.243e-05
F3.137e-06
tp1982
ssg21
I5765
sg22
F0.2753192
sg23
I11
sg24
(lp1983
sg27
(dp1984
g29
(F0.6656
F0.0154
tp1985
sg31
(F-18.519
F1.8709
tp1986
sg33
(F1.1639
F0.1911
tp1987
sg35
(F2.8421
F0.2576
tp1988
sg7
(F170.4543
F0.0459
tp1989
sg9
(F125.5341
F0.0393
tp1990
sg11
(F-0.0353
F0.0895
tp1991
sssS'NGC7172'
p1992
(dp1993
g3
I2
sg4
F2503.71085555726
sg5
(dp1994
g7
(F240.1159
F0.1859
tp1995
sg9
(F207.5134
F0.1403
tp1996
sg11
(F1.036
F0.334
tp1997
ssg13
(dp1998
g15
(F0.0
F0.0
tp1999
sg17
(F0.0
F0.0
tp2000
sg19
(F-1.326e-05
F4.278e-06
tp2001
ssg21
I5765
sg22
F0.434295
sg23
I11
sg24
(lp2002
sg27
(dp2003
g29
(F0.1729
F0.0078
tp2004
sg31
(F46.549
F0.1585
tp2005
sg33
(F0.9136
F0.0355
tp2006
sg35
(F3.3109
F0.0681
tp2007
sg7
(F240.3669
F0.0107
tp2008
sg9
(F207.0498
F0.0097
tp2009
sg11
(F-2.0746
F0.0196
tp2010
sssS'ESO439-G009'
p2011
(dp2012
g3
I2
sg4
F1625.81370285705
sg5
(dp2013
g7
(F172.2026
F0.0349
tp2014
sg9
(F121.807
F0.0258
tp2015
sg11
(F1.4415
F0.0098
tp2016
ssg13
(dp2017
g15
(F0.0
F0.0
tp2018
sg17
(F0.0
F0.0
tp2019
sg19
(F-2.23e-06
F3.124e-06
tp2020
ssg21
I5765
sg22
F0.2820145
sg23
I11
sg24
(lp2021
g26
asg27
(dp2022
g29
(F0.1712
F0.0027
tp2023
sg31
(F-4.7443
F0.2401
tp2024
sg33
(F0.0215
Finf
tp2025
sg35
(F9.9157
F0.0014
tp2026
sg7
(F172.1521
F0.0094
tp2027
sg9
(F124.5884
F0.0061
tp2028
sg11
(F1.0183
F0.0064
tp2029
sssS'MCG-02-12-050'
p2030
(dp2031
g3
I2
sg4
F1953.0756049818
sg5
(dp2032
g7
(F169.9853
F0.0419
tp2033
sg9
(F127.0244
F0.0324
tp2034
sg11
(F2.0878
F0.0251
tp2035
ssg13
(dp2036
g15
(F0.0
F0.0
tp2037
sg17
(F0.0
F0.0
tp2038
sg19
(F1.102e-05
F3.42e-06
tp2039
ssg21
I5765
sg22
F0.3387815
sg23
I11
sg24
(lp2040
g26
asg27
(dp2041
g29
(F0.3152
F0.0081
tp2042
sg31
(F-57.5381
F0.5481
tp2043
sg33
(F0.0182
Finf
tp2044
sg35
(F11.0451
F832.8085
tp2045
sg7
(F169.3045
F0.0854
tp2046
sg9
(F126.3922
F0.0433
tp2047
sg11
(F0.8265
F163.7304
tp2048
sssS'IC4709'
p2049
(dp2050
g3
I2
sg4
F1606.09398216282
sg5
(dp2051
g7
(F167.4449
F0.0187
tp2052
sg9
(F124.2041
F0.0193
tp2053
sg11
(F1.1391
F0.0088
tp2054
ssg13
(dp2055
g15
(F0.0
F0.0
tp2056
sg17
(F0.0
F0.0
tp2057
sg19
(F-7.496e-06
F3.103e-06
tp2058
ssg21
I5765
sg22
F0.2785939
sg23
I11
sg24
(lp2059
g26
asg27
(dp2060
g29
(F0.2092
F0.0069
tp2061
sg31
(F-55.9171
F0.3601
tp2062
sg33
(F0.048
Finf
tp2063
sg35
(F12.8443
F3.4429
tp2064
sg7
(F166.9326
F0.1265
tp2065
sg9
(F124.0197
F0.091
tp2066
sg11
(F1.1038
F0.0179
tp2067
sssS'NGC7479'
p2068
(dp2069
g3
I2
sg4
F49611.1498784383
sg5
(dp2070
g7
(F170.6778
F0.0188
tp2071
sg9
(F123.9123
F0.0205
tp2072
sg11
(F-2.3311
F0.0079
tp2073
ssg13
(dp2074
g15
(F0.0
F0.0
tp2075
sg17
(F0.0
F0.0
tp2076
sg19
(F-0.000897
F3.782e-05
tp2077
ssg21
I23214
sg22
F2.137122
sg23
I11
sg24
(lp2078
g26
asg27
(dp2079
g29
(F0.062
Finf
tp2080
sg31
(F-27.4819
F0.0532
tp2081
sg33
(F3.0656
F0.2853
tp2082
sg35
(F2891.627
F1153.9949
tp2083
sg7
(F161.6056
F0.3447
tp2084
sg9
(F105.4481
F0.6457
tp2085
sg11
(F-6.85
F0.4449
tp2086
sssS'ESO244-IG030'
p2087
(dp2088
g24
(lp2089
g1012
assS'NGC5610'
p2090
(dp2091
g3
I2
sg4
F2845.02561682854
sg5
(dp2092
g7
(F170.3061
F0.0101
tp2093
sg9
(F125.2733
F0.0095
tp2094
sg11
(F-1.5484
F0.0048
tp2095
ssg13
(dp2096
g15
(F0.0
F0.0
tp2097
sg17
(F0.0
F0.0
tp2098
sg19
(F-7.743e-05
F4.123e-06
tp2099
ssg21
I5765
sg22
F0.4934997
sg23
I11
sg24
(lp2100
g26
asg27
(dp2101
g29
(F0.1783
F0.0025
tp2102
sg31
(F-17.1844
F0.1592
tp2103
sg33
(F0.0311
Finf
tp2104
sg35
(F16.3205
F1.7549
tp2105
sg7
(F169.8795
F0.0284
tp2106
sg9
(F125.459
F0.0784
tp2107
sg11
(F-0.3663
F0.0086
tp2108
sssS'CGCG468-002NED01'
p2109
(dp2110
g3
I2
sg4
F29804.1744334536
sg5
(dp2111
g7
(F168.0345
F0.1094
tp2112
sg9
(F120.9872
F0.1431
tp2113
sg11
(F0.2077
F0.1636
tp2114
ssg13
(dp2115
g15
(F0.0
F0.0
tp2116
sg17
(F0.0
F0.0
tp2117
sg19
(F0.0001416
F1.399e-05
tp2118
ssg21
I5765
sg22
F5.169848
sg23
I11
sg24
(lp2119
g1964
ag26
asg27
(dp2120
g29
(F0.1883
F0.0452
tp2121
sg31
(F-30.8821
F2.7543
tp2122
sg33
(F19.0924
Finf
tp2123
sg35
(F1.5803
F0.9338
tp2124
sg7
(F167.2434
F0.1533
tp2125
sg9
(F122.5215
F0.2442
tp2126
sg11
(F-0.5787
F0.1341
tp2127
sssS'NGC6814'
p2128
(dp2129
g3
I2
sg4
F35535.8181363383
sg5
(dp2130
g7
(F172.1954
F0.0354
tp2131
sg9
(F124.2385
F0.0342
tp2132
sg11
(F0.7853
F0.0183
tp2133
ssg13
(dp2134
g15
(F0.0
F0.0
tp2135
sg17
(F0.0
F0.0
tp2136
sg19
(F0.0002051
F2.246e-06
tp2137
ssg21
I21120
sg22
F1.682567
sg23
I11
sg24
(lp2138
g26
asg27
(dp2139
g29
(F0.4187
F0.0019
tp2140
sg31
(F40.1278
F0.2058
tp2141
sg33
(F0.048
Finf
tp2142
sg35
(F41.2644
F1.7276
tp2143
sg7
(F158.2749
F0.0764
tp2144
sg9
(F139.2538
F0.1514
tp2145
sg11
(F-2.3438
F0.0042
tp2146
sssS'NGC3227'
p2147
(dp2148
g3
I2
sg4
F10178.3015635811
sg5
(dp2149
g7
(F338.7293
F0.0238
tp2150
sg9
(F320.9485
F0.0293
tp2151
sg11
(F-1.5081
F0.048
tp2152
ssg13
(dp2153
g15
(F0.0
F0.0
tp2154
sg17
(F0.0
F0.0
tp2155
sg19
(F5.279e-05
F5.734e-06
tp2156
ssg21
I9593
sg22
F1.061013
sg23
I11
sg24
(lp2157
g26
asg27
(dp2158
g29
(F0.3034
F0.0042
tp2159
sg31
(F45.4699
F0.3467
tp2160
sg33
(F19.9999
Finf
tp2161
sg35
(F16.1984
F4.0528
tp2162
sg7
(F337.9685
F0.0342
tp2163
sg9
(F319.911
F0.0323
tp2164
sg11
(F-2.4564
F0.0968
tp2165
sssS'MCG+01-57-016'
p2166
(dp2167
g3
I2
sg4
F1357.46505055021
sg5
(dp2168
g7
(F166.7245
F0.0257
tp2169
sg9
(F121.9446
F0.0286
tp2170
sg11
(F0.725
F0.0535
tp2171
ssg13
(dp2172
g15
(F0.0
F0.0
tp2173
sg17
(F0.0
F0.0
tp2174
sg19
(F-4.641e-05
F2.851e-06
tp2175
ssg21
I5765
sg22
F0.2354666
sg23
I11
sg24
(lp2176
sg27
(dp2177
g29
(F0.4558
F0.0221
tp2178
sg31
(F25.4161
F1.7176
tp2179
sg33
(F0.7727
F0.2232
tp2180
sg35
(F2.5971
F0.2454
tp2181
sg7
(F166.2461
F0.0562
tp2182
sg9
(F122.472
F0.0587
tp2183
sg11
(F1.0346
F0.0756
tp2184
sssS'UGC12282'
p2185
(dp2186
g3
I2
sg4
F1845.5146035169
sg5
(dp2187
g7
(F168.4922
F0.0184
tp2188
sg9
(F121.8355
F0.0205
tp2189
sg11
(F0.9087
F0.0071
tp2190
ssg13
(dp2191
g15
(F0.0
F0.0
tp2192
sg17
(F0.0
F0.0
tp2193
sg19
(F-3.141e-05
F3.291e-06
tp2194
ssg21
I5765
sg22
F0.3201239
sg23
I11
sg24
(lp2195
sg27
(dp2196
g29
(F0.1553
F0.0029
tp2197
sg31
(F-19.4947
F0.1565
tp2198
sg33
(F0.0504
F0.0186
tp2199
sg35
(F17.464
F1.7155
tp2200
sg7
(F167.9325
F0.0395
tp2201
sg9
(F121.1649
F0.1177
tp2202
sg11
(F0.1905
F0.0093
tp2203
sssS'ESO499-G041'
p2204
(dp2205
g3
I2
sg4
F1423.36630896761
sg5
(dp2206
g7
(F169.1475
F0.0165
tp2207
sg9
(F121.6446
F0.0155
tp2208
sg11
(F1.0757
F0.0197
tp2209
ssg13
(dp2210
g15
(F0.0
F0.0
tp2211
sg17
(F0.0
F0.0
tp2212
sg19
(F-2.549e-05
F2.904e-06
tp2213
ssg21
I5765
sg22
F0.2468979
sg23
I11
sg24
(lp2214
g26
asg27
(dp2215
g29
(F0.8186
F0.0347
tp2216
sg31
(F-67.9022
F4.8492
tp2217
sg33
(F0.0491
Finf
tp2218
sg35
(F3.969
F5.3405
tp2219
sg7
(F169.4846
F0.0878
tp2220
sg9
(F122.2364
F0.0779
tp2221
sg11
(F1.7202
F0.0413
tp2222
sssS'WKK4438'
p2223
(dp2224
g3
I2
sg4
F1640.23866252449
sg5
(dp2225
g7
(F172.7728
F0.0248
tp2226
sg9
(F147.8221
F0.0199
tp2227
sg11
(F1.2711
F0.0306
tp2228
ssg13
(dp2229
g15
(F0.0
F0.0
tp2230
sg17
(F0.0
F0.0
tp2231
sg19
(F-3.792e-05
F3.011e-06
tp2232
ssg21
I5765
sg22
F0.2845167
sg23
I11
sg24
(lp2233
sg27
(dp2234
g29
(F0.5051
F0.0109
tp2235
sg31
(F-18.4166
F0.9747
tp2236
sg33
(F0.7291
F0.0583
tp2237
sg35
(F4.9437
F0.1275
tp2238
sg7
(F172.3892
F0.0443
tp2239
sg9
(F147.2233
F0.0528
tp2240
sg11
(F0.7059
F0.019
tp2241
sssS'Fairall272'
p2242
(dp2243
g3
I2
sg4
F2148.3957959751
sg5
(dp2244
g7
(F172.074
F0.0546
tp2245
sg9
(F124.8351
F0.0501
tp2246
sg11
(F1.7672
F0.1138
tp2247
ssg13
(dp2248
g15
(F0.0
F0.0
tp2249
sg17
(F0.0
F0.0
tp2250
sg19
(F1.745e-05
F3.494e-06
tp2251
ssg21
I5765
sg22
F0.3726619
sg23
I11
sg24
(lp2252
sg27
(dp2253
g29
(F0.1943
F0.0381
tp2254
sg31
(F-39.9831
F2.1189
tp2255
sg33
(F1.9552
F0.4615
tp2256
sg35
(F1.6369
F0.149
tp2257
sg7
(F169.8822
F0.0811
tp2258
sg9
(F123.0016
F0.0881
tp2259
sg11
(F0.6433
F0.0352
tp2260
sssS'NGC5273'
p2261
(dp2262
g3
I2
sg4
F1281.78733345871
sg5
(dp2263
g7
(F170.2003
F0.0792
tp2264
sg9
(F124.6389
F0.0333
tp2265
sg11
(F1.0457
F0.2559
tp2266
ssg13
(dp2267
g15
(F0.0
F0.0
tp2268
sg17
(F0.0
F0.0
tp2269
sg19
(F-2.697e-05
F3.063e-06
tp2270
ssg21
I5765
sg22
F0.2223395
sg23
I11
sg24
(lp2271
g26
asg27
(dp2272
g29
(F0.2762
F0.0289
tp2273
sg31
(F-41.8926
F1.8208
tp2274
sg33
(F16.8327
Finf
tp2275
sg35
(F3.2176
F1.9753
tp2276
sg7
(F169.8064
F0.1061
tp2277
sg9
(F124.5988
F0.1276
tp2278
sg11
(F0.8412
F0.5289
tp2279
sssS'ESO506-G027'
p2280
(dp2281
g3
I2
sg4
F1408.97048515523
sg5
(dp2282
g7
(F171.334
F0.061
tp2283
sg9
(F124.1218
F0.0455
tp2284
sg11
(F1.6027
F0.0934
tp2285
ssg13
(dp2286
g15
(F0.0
F0.0
tp2287
sg17
(F0.0
F0.0
tp2288
sg19
(F2.077e-05
F2.855e-06
tp2289
ssg21
I5765
sg22
F0.2444008
sg23
I11
sg24
(lp2290
sg27
(dp2291
g29
(F0.1153
F0.0139
tp2292
sg31
(F-33.2094
F0.7693
tp2293
sg33
(F6.6016
F2.0091
tp2294
sg35
(F6.3101
F1.1003
tp2295
sg7
(F170.5299
F0.0718
tp2296
sg9
(F123.6757
F0.1213
tp2297
sg11
(F1.0674
F0.1155
tp2298
sssS'CGCG341-006'
p2299
(dp2300
g3
I2
sg4
F1174.11066300851
sg5
(dp2301
g7
(F167.0934
F0.0472
tp2302
sg9
(F123.0916
F0.0455
tp2303
sg11
(F0.942
F0.0703
tp2304
ssg13
(dp2305
g15
(F0.0
F0.0
tp2306
sg17
(F0.0
F0.0
tp2307
sg19
(F-2.618e-05
F2.624e-06
tp2308
ssg21
I5765
sg22
F0.2036619
sg23
I11
sg24
(lp2309
g26
asg27
(dp2310
g29
(F0.1066
F0.3694
tp2311
sg31
(F-16.1916
F5.0843
tp2312
sg33
(F3.2334
F1.0173
tp2313
sg35
(F0.4304
Finf
tp2314
sg7
(F168.3047
F0.1506
tp2315
sg9
(F123.1731
F0.0565
tp2316
sg11
(F0.4864
F0.0451
tp2317
sssS'MCG-01-05-047'
p2318
(dp2319
g3
I2
sg4
F2210.54622487743
sg5
(dp2320
g7
(F170.8456
F0.0803
tp2321
sg9
(F123.1054
F0.0553
tp2322
sg11
(F1.7381
F0.1524
tp2323
ssg13
(dp2324
g15
(F0.0
F0.0
tp2325
sg17
(F0.0
F0.0
tp2326
sg19
(F-5.612e-05
F3.411e-06
tp2327
ssg21
I6230
sg22
F0.3548228
sg23
I11
sg24
(lp2328
g26
asg27
(dp2329
g29
(F0.0464
Finf
tp2330
sg31
(F-72.8899
F0.0751
tp2331
sg33
(F4.6207
F0.263
tp2332
sg35
(F12.6552
F0.361
tp2333
sg7
(F169.8163
F0.0387
tp2334
sg9
(F123.1414
F0.0086
tp2335
sg11
(F-1.1865
F0.023
tp2336
sssS'UGC03478'
p2337
(dp2338
g3
I2
sg4
F1944.80037633529
sg5
(dp2339
g7
(F171.6006
F0.014
tp2340
sg9
(F122.5641
F0.0131
tp2341
sg11
(F0.2927
F0.0056
tp2342
ssg13
(dp2343
g15
(F0.0
F0.0
tp2344
sg17
(F0.0
F0.0
tp2345
sg19
(F-1.751e-05
F3.404e-06
tp2346
ssg21
I5765
sg22
F0.3373461
sg23
I11
sg24
(lp2347
sg27
(dp2348
g29
(F0.6226
F0.0061
tp2349
sg31
(F-31.9373
F0.9792
tp2350
sg33
(F0.2285
F0.0169
tp2351
sg35
(F10.5661
F0.1067
tp2352
sg7
(F171.5932
F0.0623
tp2353
sg9
(F121.4781
F0.0707
tp2354
sg11
(F0.2022
F0.0127
tp2355
sssS'LEDA38038'
p2356
(dp2357
g3
I2
sg4
F1260.3042306837
sg5
(dp2358
g7
(F171.5484
F0.084
tp2359
sg9
(F125.3305
F0.0633
tp2360
sg11
(F-0.0113
F0.3379
tp2361
ssg13
(dp2362
g15
(F0.0
F0.0
tp2363
sg17
(F0.0
F0.0
tp2364
sg19
(F-5.065e-05
F2.782e-06
tp2365
ssg21
I5765
sg22
F0.218613
sg23
I11
sg24
(lp2366
sg27
(dp2367
g29
(F0.7914
F0.0541
tp2368
sg31
(F-85.9836
F12.6757
tp2369
sg33
(F3.7724
F1.6994
tp2370
sg35
(F0.5618
F0.3725
tp2371
sg7
(F171.3114
F0.1006
tp2372
sg9
(F125.0338
F0.0766
tp2373
sg11
(F0.2427
F0.4438
tp2374
sssS'ESO578-G009'
p2375
(dp2376
g3
I2
sg4
F1488.29573131536
sg5
(dp2377
g7
(F166.303
F0.0639
tp2378
sg9
(F124.2835
F0.109
tp2379
sg11
(F2.9059
F0.126
tp2380
ssg13
(dp2381
g15
(F0.0
F0.0
tp2382
sg17
(F0.0
F0.0
tp2383
sg19
(F-3.407e-05
F2.952e-06
tp2384
ssg21
I5765
sg22
F0.2581606
sg23
I11
sg24
(lp2385
sg27
(dp2386
g29
(F0.18
F0.0192
tp2387
sg31
(F-63.581
F0.764
tp2388
sg33
(F0.4479
F0.0887
tp2389
sg35
(F5.2085
F0.2071
tp2390
sg7
(F166.055
F0.077
tp2391
sg9
(F124.323
F0.047
tp2392
sg11
(F1.4039
F0.0319
tp2393
sssS'Mrk198'
p2394
(dp2395
g3
I2
sg4
F1378.4409679959
sg5
(dp2396
g7
(F172.3852
F0.1186
tp2397
sg9
(F124.1263
F0.1334
tp2398
sg11
(F2.2593
F0.2749
tp2399
ssg13
(dp2400
g15
(F0.0
F0.0
tp2401
sg17
(F0.0
F0.0
tp2402
sg19
(F-1.868e-05
F2.863e-06
tp2403
ssg21
I5765
sg22
F0.2391051
sg23
I11
sg24
(lp2404
sg27
(dp2405
g29
(F0.5924
F0.0329
tp2406
sg31
(F-49.0612
F3.876
tp2407
sg33
(F6.5166
F1.217
tp2408
sg35
(F0.7351
F0.0607
tp2409
sg7
(F171.4376
F0.0525
tp2410
sg9
(F124.7684
F0.0647
tp2411
sg11
(F0.3831
F0.0435
tp2412
sssS'ESO139-G012'
p2413
(dp2414
g3
I2
sg4
F1372.8923117651
sg5
(dp2415
g7
(F170.6425
F0.0295
tp2416
sg9
(F123.9668
F0.0309
tp2417
sg11
(F1.8682
F0.0123
tp2418
ssg13
(dp2419
g15
(F0.0
F0.0
tp2420
sg17
(F0.0
F0.0
tp2421
sg19
(F-5.287e-05
F2.821e-06
tp2422
ssg21
I5765
sg22
F0.2381426
sg23
I11
sg24
(lp2423
sg27
(dp2424
g29
(F0.6694
F0.0108
tp2425
sg31
(F-30.7952
F1.1385
tp2426
sg33
(F0.0526
F0.0181
tp2427
sg35
(F13.8262
F0.8167
tp2428
sg7
(F169.4727
F0.0884
tp2429
sg9
(F124.4935
F0.1154
tp2430
sg11
(F0.5624
F0.0156
tp2431
sssS'MCG+05-28-032'
p2432
(dp2433
g3
I2
sg4
F1496.37737453039
sg5
(dp2434
g7
(F169.4498
F0.0519
tp2435
sg9
(F122.6842
F0.0323
tp2436
sg11
(F1.5101
F0.0283
tp2437
ssg13
(dp2438
g15
(F0.0
F0.0
tp2439
sg17
(F0.0
F0.0
tp2440
sg19
(F-4.34e-05
F2.952e-06
tp2441
ssg21
I5765
sg22
F0.2595624
sg23
I11
sg24
(lp2442
g26
asg27
(dp2443
g29
(F0.4464
F0.0
tp2444
sg31
(F53.9781
F0.0
tp2445
sg33
(F2.1176
F0.0
tp2446
sg35
(F0.009017
Finf
tp2447
sg7
(F171.5116
F0.0
tp2448
sg9
(F122.8621
F0.0
tp2449
sg11
(F0.4688
F0.0
tp2450
sssS'NGC1365'
p2451
(dp2452
g3
I2
sg4
F926593.542558013
sg5
(dp2453
g7
(F336.8218
F0.0483
tp2454
sg9
(F336.5705
F0.0416
tp2455
sg11
(F-3.0068
F0.0183
tp2456
ssg13
(dp2457
g15
(F0.0
F0.0
tp2458
sg17
(F0.0
F0.0
tp2459
sg19
(F0.0004588
F3.899e-06
tp2460
ssg21
I46861
sg22
F19.77324
sg23
I11
sg24
(lp2461
sg27
(dp2462
g29
(F0.4749
F0.002
tp2463
sg31
(F-35.4694
F0.1653
tp2464
sg33
(F0.5536
F0.0052
tp2465
sg35
(F6.9282
F0.0167
tp2466
sg7
(F333.0816
F0.0116
tp2467
sg9
(F334.6508
F0.0136
tp2468
sg11
(F-4.7581
F0.0029
tp2469
sssS'Mrk1210'
p2470
(dp2471
g3
I2
sg4
F1456.22103695182
sg5
(dp2472
g7
(F167.4382
F0.009
tp2473
sg9
(F122.3553
F0.0092
tp2474
sg11
(F-0.1987
F0.0127
tp2475
ssg13
(dp2476
g15
(F0.0
F0.0
tp2477
sg17
(F0.0
F0.0
tp2478
sg19
(F-1.944e-05
F2.916e-06
tp2479
ssg21
I5765
sg22
F0.2525969
sg23
I11
sg24
(lp2480
sg27
(dp2481
g29
(F0.9253
F0.0317
tp2482
sg31
(F-10.9962
F21.6296
tp2483
sg33
(F0.1357
F0.2057
tp2484
sg35
(F3.756
F0.42
tp2485
sg7
(F167.9761
F0.122
tp2486
sg9
(F122.7106
F0.1246
tp2487
sg11
(F1.86
F0.0962
tp2488
sssS'NGC424'
p2489
(dp2490
g3
I2
sg4
F1268.44600491629
sg5
(dp2491
g7
(F169.3278
F0.0092
tp2492
sg9
(F125.8866
F0.0095
tp2493
sg11
(F-0.2836
F0.0046
tp2494
ssg13
(dp2495
g15
(F0.0
F0.0
tp2496
sg17
(F0.0
F0.0
tp2497
sg19
(F-7.828e-05
F2.605e-06
tp2498
ssg21
I5765
sg22
F0.2200253
sg23
I11
sg24
(lp2499
sg27
(dp2500
g29
(F0.8488
F0.0162
tp2501
sg31
(F-61.0219
F5.3302
tp2502
sg33
(F0.3198
F0.0426
tp2503
sg35
(F6.6485
F0.1561
tp2504
sg7
(F169.2914
F0.0856
tp2505
sg9
(F123.7451
F0.0946
tp2506
sg11
(F1.2415
F0.0217
tp2507
sssS'2MASXJ10402231-4625264'
p2508
(dp2509
g3
I2
sg4
F1466.21461470891
sg5
(dp2510
g7
(F171.4354
F0.0549
tp2511
sg9
(F126.6005
F0.0827
tp2512
sg11
(F1.4109
F0.1773
tp2513
ssg13
(dp2514
g15
(F0.0
F0.0
tp2515
sg17
(F0.0
F0.0
tp2516
sg19
(F1.323e-05
F2.969e-06
tp2517
ssg21
I5765
sg22
F0.2543304
sg23
I11
sg24
(lp2518
g26
asg27
(dp2519
g29
(F0.8068
F0.058
tp2520
sg31
(F-16.0723
F16.164
tp2521
sg33
(F8.1674
F3.1902
tp2522
sg35
(F0.2691
Finf
tp2523
sg7
(F170.8176
F0.053
tp2524
sg9
(F125.4243
F0.101
tp2525
sg11
(F0.1517
F0.0575
tp2526
sssS'NGC7582'
p2527
(dp2528
g3
I2
sg4
F62876.0041264743
sg5
(dp2529
g7
(F334.4314
F0.0143
tp2530
sg9
(F288.711
F0.0119
tp2531
sg11
(F-4.0921
F0.0073
tp2532
ssg13
(dp2533
g15
(F0.0
F0.0
tp2534
sg17
(F0.0
F0.0
tp2535
sg19
(F0.0002361
F6.423e-06
tp2536
ssg21
I17413
sg22
F3.610866
sg23
I11
sg24
(lp2537
g26
asg27
(dp2538
g29
(F0.1177
F0.0009
tp2539
sg31
(F-65.5827
F0.0522
tp2540
sg33
(F0.0308
Finf
tp2541
sg35
(F46.9024
F1948.9313
tp2542
sg7
(F336.3206
F0.1126
tp2543
sg9
(F290.1933
F0.051
tp2544
sg11
(F-2.6758
F90.2309
tp2545
sssS'NGC6860'
p2546
(dp2547
g3
I2
sg4
F3374.45360806756
sg5
(dp2548
g7
(F210.6539
F0.0107
tp2549
sg9
(F153.9821
F0.0139
tp2550
sg11
(F1.3893
F0.0074
tp2551
ssg13
(dp2552
g15
(F0.0
F0.0
tp2553
sg17
(F0.0
F0.0
tp2554
sg19
(F-9.456e-06
F1.617e-06
tp2555
ssg21
I5765
sg22
F0.5853345
sg23
I11
sg24
(lp2556
sg27
(dp2557
g29
(F0.5849
F0.0018
tp2558
sg31
(F-16.6506
F0.283
tp2559
sg33
(F0.1995
F0.0047
tp2560
sg35
(F7.6119
F0.0297
tp2561
sg7
(F210.0903
F0.0146
tp2562
sg9
(F153.9493
F0.0234
tp2563
sg11
(F-0.046
F0.0033
tp2564
sssS'ESO141-G055'
p2565
(dp2566
g3
I2
sg4
F1545.6473029652
sg5
(dp2567
g7
(F170.9889
F0.0447
tp2568
sg9
(F123.9494
F0.0414
tp2569
sg11
(F1.5259
F0.0917
tp2570
ssg13
(dp2571
g15
(F0.0
F0.0
tp2572
sg17
(F0.0
F0.0
tp2573
sg19
(F1.175e-05
F3.152e-06
tp2574
ssg21
I5765
sg22
F0.2681088
sg23
I11
sg24
(lp2575
sg27
(dp2576
g29
(F0.6264
F0.0219
tp2577
sg31
(F16.3832
F2.6719
tp2578
sg33
(F1.6214
F0.3644
tp2579
sg35
(F3.9485
F0.2651
tp2580
sg7
(F170.5216
F0.0863
tp2581
sg9
(F124.0107
F0.0917
tp2582
sg11
(F1.0497
F0.0768
tp2583
sssS'NGC931'
p2584
(dp2585
g3
I2
sg4
F5869.66544100829
sg5
(dp2586
g7
(F169.268
F0.0173
tp2587
sg9
(F122.9783
F0.0185
tp2588
sg11
(F-0.0627
F0.0109
tp2589
ssg13
(dp2590
g15
(F0.0
F0.0
tp2591
sg17
(F0.0
F0.0
tp2592
sg19
(F-6.638e-05
F1.016e-05
tp2593
ssg21
I5765
sg22
F1.018155
sg23
I11
sg24
(lp2594
sg27
(dp2595
g29
(F0.1614
F0.0054
tp2596
sg31
(F22.4899
F0.42
tp2597
sg33
(F2.8607
F0.5255
tp2598
sg35
(F55.045
F15.125
tp2599
sg7
(F170.0849
F0.1037
tp2600
sg9
(F121.377
F0.2506
tp2601
sg11
(F-1.1545
F0.2044
tp2602
sssS'UGC10593'
p2603
(dp2604
g3
I2
sg4
F1541.50210927262
sg5
(dp2605
g7
(F167.5682
F0.0303
tp2606
sg9
(F122.2164
F0.0648
tp2607
sg11
(F0.9849
F0.1175
tp2608
ssg13
(dp2609
g15
(F0.0
F0.0
tp2610
sg17
(F0.0
F0.0
tp2611
sg19
(F-4.633e-05
F3.01e-06
tp2612
ssg21
I5765
sg22
F0.2673898
sg23
I11
sg24
(lp2613
g26
asg27
(dp2614
g29
(F0.0135
Finf
tp2615
sg31
(F20.7536
F21.6169
tp2616
sg33
(F0.5155
F27.8863
tp2617
sg35
(F3.6991
F43.0024
tp2618
sg7
(F167.8305
F1.6911
tp2619
sg9
(F121.6962
F4.2444
tp2620
sg11
(F2.4703
F18.0924
tp2621
sssS'IC2637'
p2622
(dp2623
g3
I2
sg4
F1520.11033580501
sg5
(dp2624
g7
(F173.2238
F0.0579
tp2625
sg9
(F125.5984
F0.0525
tp2626
sg11
(F1.7528
F0.0743
tp2627
ssg13
(dp2628
g15
(F0.0
F0.0
tp2629
sg17
(F0.0
F0.0
tp2630
sg19
(F-1.576e-05
F3.03e-06
tp2631
ssg21
I5765
sg22
F0.2636791
sg23
I11
sg24
(lp2632
sg27
(dp2633
g29
(F0.423
F0.0039
tp2634
sg31
(F-45.4792
F0.4054
tp2635
sg33
(F0.4408
F0.0153
tp2636
sg35
(F3.4215
F0.0283
tp2637
sg7
(F171.1243
F0.0221
tp2638
sg9
(F123.0423
F0.0206
tp2639
sg11
(F-0.8438
F0.0064
tp2640
sssS'NGC4388'
p2641
(dp2642
g3
I2
sg4
F14517.4574389535
sg5
(dp2643
g7
(F340.9319
F0.0205
tp2644
sg9
(F329.4572
F0.0178
tp2645
sg11
(F-1.4368
F0.0094
tp2646
ssg13
(dp2647
g15
(F0.0
F0.0
tp2648
sg17
(F0.0
F0.0
tp2649
sg19
(F5.083e-05
F3.397e-06
tp2650
ssg21
I15614
sg22
F0.9297718
sg23
I11
sg24
(lp2651
g26
asg27
(dp2652
g29
(F0.1358
F0.0006
tp2653
sg31
(F-5.9995
F0.038
tp2654
sg33
(F0.0112
Finf
tp2655
sg35
(F30.6781
F1101.1632
tp2656
sg7
(F340.6125
F0.0112
tp2657
sg9
(F331.2866
F0.0357
tp2658
sg11
(F-2.1351
F77.9431
tp2659
sssS'2MASXJ12005792+0648226'
p2660
(dp2661
g3
I2
sg4
F1344.96583970671
sg5
(dp2662
g7
(F171.3818
F0.0271
tp2663
sg9
(F124.3016
F0.0441
tp2664
sg11
(F1.5328
F0.154
tp2665
ssg13
(dp2666
g15
(F0.0
F0.0
tp2667
sg17
(F0.0
F0.0
tp2668
sg19
(F3.565e-05
F2.827e-06
tp2669
ssg21
I5765
sg22
F0.2332985
sg23
I11
sg24
(lp2670
sg27
(dp2671
g29
(F0.3975
F0.023
tp2672
sg31
(F-58.6561
F1.2561
tp2673
sg33
(F0.0521
F0.6486
tp2674
sg35
(F3.2466
F7.8704
tp2675
sg7
(F171.1794
F0.0466
tp2676
sg9
(F123.9846
F0.045
tp2677
sg11
(F1.3402
F0.1429
tp2678
sssS'NGC1106'
p2679
(dp2680
g3
I2
sg4
F1378.23147847444
sg5
(dp2681
g7
(F171.2685
F0.0087
tp2682
sg9
(F123.9619
F0.0089
tp2683
sg11
(F0.1984
F0.0053
tp2684
ssg13
(dp2685
g15
(F0.0
F0.0
tp2686
sg17
(F0.0
F0.0
tp2687
sg19
(F-1.272e-05
F2.873e-06
tp2688
ssg21
I5765
sg22
F0.2390688
sg23
I11
sg24
(lp2689
sg27
(dp2690
g29
(F0.895
F0.0145
tp2691
sg31
(F2.9906
F6.7262
tp2692
sg33
(F0.1534
F0.0248
tp2693
sg35
(F8.7587
F0.1468
tp2694
sg7
(F170.881
F0.1268
tp2695
sg9
(F124.1737
F0.1178
tp2696
sg11
(F1.0233
F0.0201
tp2697
sssS'NGC4151'
p2698
(dp2699
g3
I2
sg4
F2031.89570701033
sg5
(dp2700
g7
(F333.6536
F0.0207
tp2701
sg9
(F327.2012
F0.0191
tp2702
sg11
(F-1.1553
F0.0142
tp2703
ssg13
(dp2704
g15
(F0.0
F0.0
tp2705
sg17
(F0.0
F0.0
tp2706
sg19
(F0.0002665
F4.208e-06
tp2707
ssg21
I5765
sg22
F0.3524537
sg23
I11
sg24
(lp2708
sg27
(dp2709
g29
(F0.676
F0.0093
tp2710
sg31
(F65.46
F1.0519
tp2711
sg33
(F1.233
F0.0607
tp2712
sg35
(F6.3558
F0.1422
tp2713
sg7
(F332.5161
F0.0499
tp2714
sg9
(F327.3806
F0.0452
tp2715
sg11
(F-0.8926
F0.0195
tp2716
sssS'2MASXJ19373299-0613046'
p2717
(dp2718
g3
I2
sg4
F1971.74129306164
sg5
(dp2719
g7
(F170.6636
F0.0207
tp2720
sg9
(F121.7949
F0.0155
tp2721
sg11
(F0.5919
F0.0128
tp2722
ssg13
(dp2723
g15
(F0.0
F0.0
tp2724
sg17
(F0.0
F0.0
tp2725
sg19
(F-6.369e-05
F3.501e-06
tp2726
ssg21
I5765
sg22
F0.3420193
sg23
I11
sg24
(lp2727
sg27
(dp2728
g29
(F0.7456
F0.0022
tp2729
sg31
(F23.2946
F0.4615
tp2730
sg33
(F0.2079
F0.0062
tp2731
sg35
(F5.3861
F0.0205
tp2732
sg7
(F170.9502
F0.0102
tp2733
sg9
(F121.0245
F0.0111
tp2734
sg11
(F-1.1018
F0.0027
tp2735
sssS'Mrk290'
p2736
(dp2737
g3
I2
sg4
F1565.13242791162
sg5
(dp2738
g7
(F206.3011
F0.0372
tp2739
sg9
(F152.9551
F0.0508
tp2740
sg11
(F2.5165
F0.0704
tp2741
ssg13
(dp2742
g15
(F0.0
F0.0
tp2743
sg17
(F0.0
F0.0
tp2744
sg19
(F-1.32e-05
F1.078e-06
tp2745
ssg21
I5765
sg22
F0.2714887
sg23
I11
sg24
(lp2746
g26
asg27
(dp2747
g29
(F0.0659
Finf
tp2748
sg31
(F-59.6924
F2.6023
tp2749
sg33
(F3.5709
F1.2814
tp2750
sg35
(F1.263
F0.2733
tp2751
sg7
(F206.0608
F0.1225
tp2752
sg9
(F151.9671
F0.0974
tp2753
sg11
(F2.8195
F0.0909
tp2754
sssS'ESO033-G002'
p2755
(dp2756
g3
I2
sg4
F1290.63568532753
sg5
(dp2757
g7
(F170.5277
F0.0757
tp2758
sg9
(F124.2442
F0.0881
tp2759
sg11
(F1.5238
F0.2864
tp2760
ssg13
(dp2761
g15
(F0.0
F0.0
tp2762
sg17
(F0.0
F0.0
tp2763
sg19
(F-3.156e-05
F2.757e-06
tp2764
ssg21
I5765
sg22
F0.2238744
sg23
I11
sg24
(lp2765
sg27
(dp2766
g29
(F0.5023
F0.0273
tp2767
sg31
(F-16.548
F4.0524
tp2768
sg33
(F2.1657
F0.5986
tp2769
sg35
(F1.3036
F0.2882
tp2770
sg7
(F170.3889
F0.077
tp2771
sg9
(F124.6068
F0.0505
tp2772
sg11
(F0.9567
F0.1761
tp2773
sssS'ESO195-IG021NED03'
p2774
(dp2775
g3
I2
sg4
F1342.77979022742
sg5
(dp2776
g7
(F166.7004
F0.0483
tp2777
sg9
(F125.3842
F0.047
tp2778
sg11
(F1.5522
F0.0716
tp2779
ssg13
(dp2780
g15
(F0.0
F0.0
tp2781
sg17
(F0.0
F0.0
tp2782
sg19
(F2.928e-05
F2.836e-06
tp2783
ssg21
I5765
sg22
F0.2329193
sg23
I11
sg24
(lp2784
sg27
(dp2785
g29
(F0.1014
F0.8318
tp2786
sg31
(F-55.2024
F7.1499
tp2787
sg33
(F1.9033
F1.1337
tp2788
sg35
(F1.0314
F0.1912
tp2789
sg7
(F166.8094
F0.1186
tp2790
sg9
(F123.9015
F0.1679
tp2791
sg11
(F2.0697
F0.2488
tp2792
sssS'2MASXJ20183871+4041003'
p2793
(dp2794
g24
(lp2795
g1012
assS'ESO509-G038'
p2796
(dp2797
g3
I2
sg4
F1339.46360121081
sg5
(dp2798
g7
(F166.0754
F0.0666
tp2799
sg9
(F126.6194
F0.0492
tp2800
sg11
(F1.4186
F0.1998
tp2801
ssg13
(dp2802
g15
(F0.0
F0.0
tp2803
sg17
(F0.0
F0.0
tp2804
sg19
(F-1.833e-05
F2.837e-06
tp2805
ssg21
I5765
sg22
F0.2323441
sg23
I11
sg24
(lp2806
sg27
(dp2807
g29
(F0.5047
F0.0408
tp2808
sg31
(F-63.252
F3.9629
tp2809
sg33
(F0.0916
F0.8421
tp2810
sg35
(F2.7083
F1.2911
tp2811
sg7
(F165.7346
F0.1004
tp2812
sg9
(F126.8944
F0.1017
tp2813
sg11
(F2.0581
F0.3573
tp2814
sssS'NGC7603'
p2815
(dp2816
g3
I2
sg4
F1512.34709937961
sg5
(dp2817
g7
(F167.1573
F0.1002
tp2818
sg9
(F125.4216
F0.0977
tp2819
sg11
(F1.2602
F0.6072
tp2820
ssg13
(dp2821
g15
(F0.0
F0.0
tp2822
sg17
(F0.0
F0.0
tp2823
sg19
(F-1.451e-05
F3.126e-06
tp2824
ssg21
I5765
sg22
F0.2623325
sg23
I11
sg24
(lp2825
sg27
(dp2826
g29
(F0.5925
F0.0225
tp2827
sg31
(F-64.6896
F2.7622
tp2828
sg33
(F2.6079
F0.6676
tp2829
sg35
(F1.1212
F0.2985
tp2830
sg7
(F166.8585
F0.042
tp2831
sg9
(F125.5742
F0.0535
tp2832
sg11
(F0.0794
F0.2098
tp2833
sssS'MCG+02-21-013'
p2834
(dp2835
g3
I2
sg4
F1425.75217468707
sg5
(dp2836
g7
(F170.2207
F0.0187
tp2837
sg9
(F124.9635
F0.0218
tp2838
sg11
(F1.1739
F0.0386
tp2839
ssg13
(dp2840
g15
(F0.0
F0.0
tp2841
sg17
(F0.0
F0.0
tp2842
sg19
(F-1.019e-05
F2.82e-06
tp2843
ssg21
I5765
sg22
F0.2473117
sg23
I11
sg24
(lp2844
sg27
(dp2845
g29
(F0.2905
F0.0151
tp2846
sg31
(F-60.0554
F0.871
tp2847
sg33
(F0.5432
F0.106
tp2848
sg35
(F4.3988
F0.2082
tp2849
sg7
(F170.4024
F0.0627
tp2850
sg9
(F125.4236
F0.0453
tp2851
sg11
(F1.2086
F0.0423
tp2852
sssS'Ark120'
p2853
(dp2854
g3
I2
sg4
F1333.05277352079
sg5
(dp2855
g7
(F166.8542
F0.0679
tp2856
sg9
(F123.7283
F0.0313
tp2857
sg11
(F1.2313
F0.0716
tp2858
ssg13
(dp2859
g15
(F0.0
F0.0
tp2860
sg17
(F0.0
F0.0
tp2861
sg19
(F-3.369e-06
F2.905e-06
tp2862
ssg21
I5765
sg22
F0.231232
sg23
I11
sg24
(lp2863
sg27
(dp2864
g29
(F0.8703
F0.0347
tp2865
sg31
(F88.8643
F12.1123
tp2866
sg33
(F2.4699
F0.6464
tp2867
sg35
(F2.5552
F0.2214
tp2868
sg7
(F165.9165
F0.0998
tp2869
sg9
(F124.0943
F0.0734
tp2870
sg11
(F1.0733
F0.0889
tp2871
sssS'NGC5995'
p2872
(dp2873
g3
I2
sg4
F2003.46606317388
sg5
(dp2874
g7
(F170.4229
F0.0291
tp2875
sg9
(F123.2783
F0.0562
tp2876
sg11
(F-0.3034
F0.1077
tp2877
ssg13
(dp2878
g15
(F0.0
F0.0
tp2879
sg17
(F0.0
F0.0
tp2880
sg19
(F-6.514e-05
F3.542e-06
tp2881
ssg21
I5765
sg22
F0.3475223
sg23
I11
sg24
(lp2882
sg27
(dp2883
g29
(F0.4577
F0.008
tp2884
sg31
(F24.4315
F0.5677
tp2885
sg33
(F2.4995
F0.204
tp2886
sg35
(F2.0519
F0.1361
tp2887
sg7
(F170.1638
F0.0136
tp2888
sg9
(F123.9574
F0.0157
tp2889
sg11
(F-1.2194
F0.0488
tp2890
sssS'IRAS04124-0803'
p2891
(dp2892
g3
I2
sg4
F1495.82806602701
sg5
(dp2893
g7
(F172.1759
F0.0192
tp2894
sg9
(F124.2467
F0.0198
tp2895
sg11
(F1.073
F0.0145
tp2896
ssg13
(dp2897
g15
(F0.0
F0.0
tp2898
sg17
(F0.0
F0.0
tp2899
sg19
(F-2.394e-05
F3.585e-06
tp2900
ssg21
I5765
sg22
F0.2594672
sg23
I11
sg24
(lp2901
g26
asg27
(dp2902
g29
(F0.2606
F0.0179
tp2903
sg31
(F-86.8276
F1.5154
tp2904
sg33
(F19.9725
Finf
tp2905
sg35
(F52.7663
F106.5692
tp2906
sg7
(F171.6711
F0.0853
tp2907
sg9
(F122.1696
F0.1036
tp2908
sg11
(F0.2937
F0.6162
tp2909
sssS'IC1816'
p2910
(dp2911
g3
I2
sg4
F1523.73211259691
sg5
(dp2912
g7
(F170.8247
F0.0142
tp2913
sg9
(F123.6654
F0.0129
tp2914
sg11
(F0.1453
F0.0064
tp2915
ssg13
(dp2916
g15
(F0.0
F0.0
tp2917
sg17
(F0.0
F0.0
tp2918
sg19
(F1.859e-06
F2.941e-06
tp2919
ssg21
I5765
sg22
F0.2643074
sg23
I11
sg24
(lp2920
sg27
(dp2921
g29
(F0.6083
F0.0083
tp2922
sg31
(F52.9552
F0.7547
tp2923
sg33
(F0.055
F0.0365
tp2924
sg35
(F6.4271
F0.3946
tp2925
sg7
(F170.5215
F0.038
tp2926
sg9
(F123.8875
F0.0302
tp2927
sg11
(F0.3139
F0.0128
tp2928
sssS'NGC7213'
p2929
(dp2930
g3
I2
sg4
F3927.20774906008
sg5
(dp2931
g7
(F171.5381
F0.0161
tp2932
sg9
(F120.238
F0.0175
tp2933
sg11
(F0.3969
F0.0141
tp2934
ssg13
(dp2935
g15
(F0.0
F0.0
tp2936
sg17
(F0.0
F0.0
tp2937
sg19
(F-0.000571
F9.582e-05
tp2938
ssg21
I5765
sg22
F0.6812156
sg23
I11
sg24
(lp2939
sg27
(dp2940
g29
(F0.9174
F0.0108
tp2941
sg31
(F-64.7058
F4.5486
tp2942
sg33
(F2.9032
F0.6373
tp2943
sg35
(F89.7917
F57.1252
tp2944
sg7
(F171.8383
F0.0719
tp2945
sg9
(F121.2639
F0.0638
tp2946
sg11
(F-3.2236
F0.6483
tp2947
sssS'NGC3081'
p2948
(dp2949
g3
I2
sg4
F7725.98668778641
sg5
(dp2950
g7
(F211.6631
F0.0606
tp2951
sg9
(F156.2091
F0.0628
tp2952
sg11
(F1.7196
F0.0853
tp2953
ssg13
(dp2954
g15
(F0.0
F0.0
tp2955
sg17
(F0.0
F0.0
tp2956
sg19
(F6.098e-05
F2.459e-06
tp2957
ssg21
I5765
sg22
F1.340154
sg23
I11
sg24
(lp2958
sg27
(dp2959
g29
(F0.859
F0.0112
tp2960
sg31
(F14.2912
F4.5005
tp2961
sg33
(F7.1547
F0.4739
tp2962
sg35
(F0.832
F0.0163
tp2963
sg7
(F209.9167
F0.0137
tp2964
sg9
(F157.8341
F0.0163
tp2965
sg11
(F-0.8898
F0.0076
tp2966
sssS'NGC6240'
p2967
(dp2968
g3
I2
sg4
F2058.23075516503
sg5
(dp2969
g7
(F211.1293
F0.0752
tp2970
sg9
(F248.1357
F0.0653
tp2971
sg11
(F-1.8347
F0.1048
tp2972
ssg13
(dp2973
g15
(F0.0
F0.0
tp2974
sg17
(F0.0
F0.0
tp2975
sg19
(F-0.0001205
F4.874e-06
tp2976
ssg21
I5765
sg22
F0.3570218
sg23
I11
sg24
(lp2977
sg27
(dp2978
g29
(F0.8203
F0.0113
tp2979
sg31
(F54.429
F2.0703
tp2980
sg33
(F5.1819
F0.29
tp2981
sg35
(F0.7186
F0.0511
tp2982
sg7
(F211.7343
F0.0291
tp2983
sg9
(F247.2329
F0.0272
tp2984
sg11
(F-3.1427
F0.0311
tp2985
sssS'Mrk79'
p2986
(dp2987
g3
I2
sg4
F1630.68977760353
sg5
(dp2988
g7
(F170.3456
F0.0109
tp2989
sg9
(F124.6854
F0.0103
tp2990
sg11
(F0.0989
F0.0057
tp2991
ssg13
(dp2992
g15
(F0.0
F0.0
tp2993
sg17
(F0.0
F0.0
tp2994
sg19
(F1.35e-05
F3.124e-06
tp2995
ssg21
I5765
sg22
F0.2828603
sg23
I11
sg24
(lp2996
g26
asg27
(dp2997
g29
(F0.2604
F0.0073
tp2998
sg31
(F-31.2599
F0.4125
tp2999
sg33
(F0.0231
Finf
tp3000
sg35
(F15.1019
F2432.7937
tp3001
sg7
(F170.2509
F0.0931
tp3002
sg9
(F123.4491
F0.135
tp3003
sg11
(F1.0018
F349.8055
tp3004
sssS'NGC3718'
p3005
(dp3006
g3
I2
sg4
F1316.5964129353
sg5
(dp3007
g7
(F171.425
F0.0171
tp3008
sg9
(F123.1178
F0.018
tp3009
sg11
(F1.2588
F0.0174
tp3010
ssg13
(dp3011
g15
(F0.0
F0.0
tp3012
sg17
(F0.0
F0.0
tp3013
sg19
(F-6.244e-05
F4.173e-06
tp3014
ssg21
I5765
sg22
F0.2283775
sg23
I11
sg24
(lp3015
sg27
(dp3016
g29
(F0.121
F0.005
tp3017
sg31
(F-10.0591
F0.3327
tp3018
sg33
(F6.4533
F1.8725
tp3019
sg35
(F96.2006
F64.9078
tp3020
sg7
(F171.872
F0.0583
tp3021
sg9
(F124.3447
F0.1525
tp3022
sg11
(F-0.4312
F0.3638
tp3023
sssS'6dFJ0626586-370559'
p3024
(dp3025
g3
I2
sg4
F1317.17484758856
sg5
(dp3026
g7
(F171.0592
F0.1922
tp3027
sg9
(F123.4674
F0.0891
tp3028
sg11
(F2.8824
F0.3233
tp3029
ssg13
(dp3030
g15
(F0.0
F0.0
tp3031
sg17
(F0.0
F0.0
tp3032
sg19
(F-2.395e-05
F2.782e-06
tp3033
ssg21
I5765
sg22
F0.2284779
sg23
I11
sg24
(lp3034
sg27
(dp3035
g29
(F0.1111
F0.0702
tp3036
sg31
(F-28.059
F3.5518
tp3037
sg33
(F0.0553
F1.0845
tp3038
sg35
(F2.7818
F4.7757
tp3039
sg7
(F171.5732
F0.1789
tp3040
sg9
(F123.1731
F0.0956
tp3041
sg11
(F2.1197
F0.1996
tp3042
sssS'ESO490-IG026'
p3043
(dp3044
g3
I2
sg4
F1298.51018854737
sg5
(dp3045
g7
(F171.0316
F0.0135
tp3046
sg9
(F122.863
F0.0092
tp3047
sg11
(F-0.4718
F0.0161
tp3048
ssg13
(dp3049
g15
(F0.0
F0.0
tp3050
sg17
(F0.0
F0.0
tp3051
sg19
(F-3.396e-05
F2.792e-06
tp3052
ssg21
I5765
sg22
F0.2252403
sg23
I11
sg24
(lp3053
sg27
(dp3054
g29
(F0.4496
F0.0487
tp3055
sg31
(F-69.5404
F4.5517
tp3056
sg33
(F3.546
F0.9677
tp3057
sg35
(F1.4975
F0.1546
tp3058
sg7
(F171.0888
F0.1089
tp3059
sg9
(F124.5257
F0.138
tp3060
sg11
(F1.2796
F0.0757
tp3061
sssS'CenA'
p3062
(dp3063
g3
I2
sg4
F1722782.35004205
sg5
(dp3064
g7
(F935.9522
F0.0688
tp3065
sg9
(F932.9495
F0.0505
tp3066
sg11
(F-2.819
F0.0271
tp3067
ssg13
(dp3068
g15
(F0.0
F0.0
tp3069
sg17
(F0.0
F0.0
tp3070
sg19
(F8.086e-05
F3.312e-06
tp3071
ssg21
I212049
sg22
F8.124454
sg23
I11
sg24
(lp3072
sg27
(dp3073
g29
(F0.2417
F0.0003
tp3074
sg31
(F-28.6413
F0.0255
tp3075
sg33
(F0.8749
F0.0033
tp3076
sg35
(F62.6383
F0.0883
tp3077
sg7
(F937.3815
F0.0287
tp3078
sg9
(F935.3889
F0.0532
tp3079
sg11
(F-6.3008
F0.0011
tp3080
sssS'NGC3516'
p3081
(dp3082
g3
I2
sg4
F1388.5949881852
sg5
(dp3083
g7
(F168.7158
F0.0246
tp3084
sg9
(F120.9277
F0.0327
tp3085
sg11
(F0.2975
F0.0877
tp3086
ssg13
(dp3087
g15
(F0.0
F0.0
tp3088
sg17
(F0.0
F0.0
tp3089
sg19
(F-5.19e-06
F3.06e-06
tp3090
ssg21
I5765
sg22
F0.2408664
sg23
I11
sg24
(lp3091
sg27
(dp3092
g29
(F0.5201
F0.0112
tp3093
sg31
(F-68.6018
F0.9154
tp3094
sg33
(F0.9174
F0.1548
tp3095
sg35
(F2.64
F0.1978
tp3096
sg7
(F168.6677
F0.0327
tp3097
sg9
(F120.9269
F0.0345
tp3098
sg11
(F0.0416
F0.0724
tp3099
sssS'CGCG493-002'
p3100
(dp3101
g3
I2
sg4
F1437.40378209812
sg5
(dp3102
g7
(F170.3996
F0.0323
tp3103
sg9
(F124.8271
F0.09
tp3104
sg11
(F1.7248
F0.0722
tp3105
ssg13
(dp3106
g15
(F0.0
F0.0
tp3107
sg17
(F0.0
F0.0
tp3108
sg19
(F-3.13e-05
F2.968e-06
tp3109
ssg21
I5765
sg22
F0.2493328
sg23
I11
sg24
(lp3110
g26
asg27
(dp3111
g29
(F0.4886
F0.037
tp3112
sg31
(F-67.1369
F3.5035
tp3113
sg33
(F0.0308
Finf
tp3114
sg35
(F3.5698
F19.7499
tp3115
sg7
(F169.9238
F0.075
tp3116
sg9
(F123.9893
F0.1035
tp3117
sg11
(F1.7547
F0.1134
tp3118
sssS'2MASXJ04440903+2813003'
p3119
(dp3120
g3
I2
sg4
F1467.15698998791
sg5
(dp3121
g7
(F170.646
F0.1048
tp3122
sg9
(F123.7318
F0.0915
tp3123
sg11
(F1.2418
F0.2745
tp3124
ssg13
(dp3125
g15
(F0.0
F0.0
tp3126
sg17
(F0.0
F0.0
tp3127
sg19
(F-2.637e-05
F3.493e-06
tp3128
ssg21
I5765
sg22
F0.2544938
sg23
I11
sg24
(lp3129
g26
asg27
(dp3130
g29
(F0.4682
F0.0172
tp3131
sg31
(F-10.4778
F1.4157
tp3132
sg33
(F19.9998
Finf
tp3133
sg35
(F2.3647
F0.7887
tp3134
sg7
(F171.1784
F0.0591
tp3135
sg9
(F123.4326
F0.0667
tp3136
sg11
(F-0.368
F0.2805
tp3137
sssS'AXJ1737.4-2907'
p3138
(dp3139
g3
I2
sg4
F1670.00754656886
sg5
(dp3140
g7
(F171.6369
F0.0174
tp3141
sg9
(F121.0605
F0.0186
tp3142
sg11
(F0.9976
F0.0078
tp3143
ssg13
(dp3144
g15
(F0.0
F0.0
tp3145
sg17
(F0.0
F0.0
tp3146
sg19
(F-0.0001723
F3.9e-06
tp3147
ssg21
I5765
sg22
F0.2896804
sg23
I11
sg24
(lp3148
sg27
(dp3149
g29
(F0.306
F0.0221
tp3150
sg31
(F44.6388
F0.8669
tp3151
sg33
(F0.4233
F0.0263
tp3152
sg35
(F43.3941
F3.4664
tp3153
sg7
(F176.2149
F1.3031
tp3154
sg9
(F143.8194
F1.4881
tp3155
sg11
(F-0.3546
F0.0881
tp3156
sssS'NGC2110'
p3157
(dp3158
g3
I2
sg4
F1437.79466907735
sg5
(dp3159
g7
(F171.1254
F0.096
tp3160
sg9
(F123.4864
F0.0928
tp3161
sg11
(F0.5964
F0.3236
tp3162
ssg13
(dp3163
g15
(F0.0
F0.0
tp3164
sg17
(F0.0
F0.0
tp3165
sg19
(F-5.761e-06
F2.998e-06
tp3166
ssg21
I5765
sg22
F0.2494006
sg23
I11
sg24
(lp3167
sg27
(dp3168
g29
(F0.6329
F0.006
tp3169
sg31
(F84.7155
F0.5865
tp3170
sg33
(F1.7038
F0.1032
tp3171
sg35
(F1.864
F0.0938
tp3172
sg7
(F170.9287
F0.0147
tp3173
sg9
(F123.3012
F0.014
tp3174
sg11
(F-1.5609
F0.0458
tp3175
sssS'MCG-02-08-014'
p3176
(dp3177
g3
I2
sg4
F1371.03403080454
sg5
(dp3178
g7
(F170.962
F0.0244
tp3179
sg9
(F122.258
F0.0202
tp3180
sg11
(F1.4307
F0.0208
tp3181
ssg13
(dp3182
g15
(F0.0
F0.0
tp3183
sg17
(F0.0
F0.0
tp3184
sg19
(F-4.432e-07
F2.767e-06
tp3185
ssg21
I5765
sg22
F0.2378203
sg23
I11
sg24
(lp3186
g26
asg27
(dp3187
g29
(F0.047
Finf
tp3188
sg31
(F38.3018
F2.2766
tp3189
sg33
(F2.6875
F1.5995
tp3190
sg35
(F5.058
F1.0454
tp3191
sg7
(F170.9677
F0.348
tp3192
sg9
(F120.5051
F0.3132
tp3193
sg11
(F2.5961
F0.0906
tp3194
sssS'ESO137-34'
p3195
(dp3196
g3
I2
sg4
F3686.00949042899
sg5
(dp3197
g7
(F169.6988
F0.0579
tp3198
sg9
(F124.8601
F0.072
tp3199
sg11
(F1.1574
F0.0888
tp3200
ssg13
(dp3201
g15
(F0.0
F0.0
tp3202
sg17
(F0.0
F0.0
tp3203
sg19
(F4.239e-05
F8.429e-06
tp3204
ssg21
I5765
sg22
F0.6393772
sg23
I11
sg24
(lp3205
g26
asg27
(dp3206
g29
(F0.4647
F0.0157
tp3207
sg31
(F81.554
F1.2254
tp3208
sg33
(F19.9887
Finf
tp3209
sg35
(F18.2532
F16.1248
tp3210
sg7
(F171.1739
F0.0433
tp3211
sg9
(F124.2221
F0.04
tp3212
sg11
(F-1.161
F0.2683
tp3213
sssS'Mrk590'
p3214
(dp3215
g3
I2
sg4
F1358.70021761319
sg5
(dp3216
g7
(F170.6715
F0.0226
tp3217
sg9
(F125.0895
F0.0219
tp3218
sg11
(F1.9139
F0.0221
tp3219
ssg13
(dp3220
g15
(F0.0
F0.0
tp3221
sg17
(F0.0
F0.0
tp3222
sg19
(F-2.275e-05
F2.815e-06
tp3223
ssg21
I5765
sg22
F0.2356809
sg23
I11
sg24
(lp3224
sg27
(dp3225
g29
(F0.8197
F0.0195
tp3226
sg31
(F-39.0756
F4.1084
tp3227
sg33
(F0.8215
F0.0723
tp3228
sg35
(F7.429
F0.1955
tp3229
sg7
(F171.2069
F0.0745
tp3230
sg9
(F126.1327
F0.0856
tp3231
sg11
(F0.821
F0.0225
tp3232
sssS'ESO549-G049'
p3233
(dp3234
g3
I2
sg4
F1906.22746537825
sg5
(dp3235
g7
(F171.1878
F0.0141
tp3236
sg9
(F125.2242
F0.0121
tp3237
sg11
(F-0.3589
F0.0187
tp3238
ssg13
(dp3239
g15
(F0.0
F0.0
tp3240
sg17
(F0.0
F0.0
tp3241
sg19
(F-3.947e-06
F3.233e-06
tp3242
ssg21
I5765
sg22
F0.3306552
sg23
I11
sg24
(lp3243
sg27
(dp3244
g29
(F0.7513
F0.0052
tp3245
sg31
(F-1.84
F0.8198
tp3246
sg33
(F0.595
F0.0286
tp3247
sg35
(F4.1634
F0.0609
tp3248
sg7
(F170.9573
F0.0147
tp3249
sg9
(F125.5642
F0.0166
tp3250
sg11
(F-0.7219
F0.0148
tp3251
sssS'UGC12237'
p3252
(dp3253
g3
I2
sg4
F1572.94916565267
sg5
(dp3254
g7
(F170.8398
F0.1229
tp3255
sg9
(F123.9326
F0.0605
tp3256
sg11
(F1.5124
F0.1423
tp3257
ssg13
(dp3258
g15
(F0.0
F0.0
tp3259
sg17
(F0.0
F0.0
tp3260
sg19
(F2.29e-05
F3.016e-06
tp3261
ssg21
I5765
sg22
F0.2728446
sg23
I11
sg24
(lp3262
g26
asg27
(dp3263
g29
(F0.1194
F0.0434
tp3264
sg31
(F46.0591
F2.7743
tp3265
sg33
(F19.9912
Finf
tp3266
sg35
(F0.4476
Finf
tp3267
sg7
(F170.0041
F0.2103
tp3268
sg9
(F124.1814
F0.1962
tp3269
sg11
(F1.1312
F0.5497
tp3270
sssS'2MASXJ07262635-3554214'
p3271
(dp3272
g3
I2
sg4
F1373.41263337703
sg5
(dp3273
g7
(F167.1337
F0.0872
tp3274
sg9
(F123.1773
F0.0837
tp3275
sg11
(F1.8072
F0.4698
tp3276
ssg13
(dp3277
g15
(F0.0
F0.0
tp3278
sg17
(F0.0
F0.0
tp3279
sg19
(F1.871e-05
F2.845e-06
tp3280
ssg21
I5765
sg22
F0.2382329
sg23
I11
sg24
(lp3281
sg27
(dp3282
g29
(F0.403
F0.0098
tp3283
sg31
(F-53.2463
F0.795
tp3284
sg33
(F1.8862
F0.3538
tp3285
sg35
(F2.1278
F0.2762
tp3286
sg7
(F167.074
F0.0281
tp3287
sg9
(F123.0987
F0.0258
tp3288
sg11
(F0.1649
F0.1082
tp3289
sssS'ESO197-G027'
p3290
(dp3291
g3
I2
sg4
F1490.24840575503
sg5
(dp3292
g7
(F170.6597
F0.018
tp3293
sg9
(F125.6312
F0.0179
tp3294
sg11
(F1.3169
F0.0168
tp3295
ssg13
(dp3296
g15
(F0.0
F0.0
tp3297
sg17
(F0.0
F0.0
tp3298
sg19
(F-2.452e-05
F2.911e-06
tp3299
ssg21
I5765
sg22
F0.2584993
sg23
I11
sg24
(lp3300
sg27
(dp3301
g29
(F0.3349
F0.0081
tp3302
sg31
(F-10.8897
F0.5932
tp3303
sg33
(F0.3267
F0.035
tp3304
sg35
(F6.4126
F0.1249
tp3305
sg7
(F170.7728
F0.0443
tp3306
sg9
(F125.4031
F0.0721
tp3307
sg11
(F0.9795
F0.013
tp3308
sssS'Fairall51'
p3309
(dp3310
g3
I2
sg4
F1360.18440377841
sg5
(dp3311
g7
(F170.5368
F0.0095
tp3312
sg9
(F123.5822
F0.0094
tp3313
sg11
(F-0.5399
F0.0046
tp3314
ssg13
(dp3315
g15
(F0.0
F0.0
tp3316
sg17
(F0.0
F0.0
tp3317
sg19
(F-1.932e-05
F2.841e-06
tp3318
ssg21
I5765
sg22
F0.2359383
sg23
I11
sg24
(lp3319
sg27
(dp3320
g29
(F0.3217
F0.0191
tp3321
sg31
(F-55.3015
F1.2327
tp3322
sg33
(F0.3619
F0.0736
tp3323
sg35
(F6.231
F0.2567
tp3324
sg7
(F169.4594
F0.1266
tp3325
sg9
(F122.788
F0.0907
tp3326
sg11
(F1.6149
F0.0309
tp3327
sssS'KAZ320'
p3328
(dp3329
g3
I2
sg4
F1395.07583332627
sg5
(dp3330
g7
(F170.5907
F0.394
tp3331
sg9
(F125.1047
F0.0913
tp3332
sg11
(F1.9295
F0.7988
tp3333
ssg13
(dp3334
g15
(F0.0
F0.0
tp3335
sg17
(F0.0
F0.0
tp3336
sg19
(F-2.896e-05
F2.923e-06
tp3337
ssg21
I5765
sg22
F0.2419906
sg23
I11
sg24
(lp3338
sg27
(dp3339
g29
(F0.1042
F0.4181
tp3340
sg31
(F-55.8205
F6.3472
tp3341
sg33
(F0.6324
F1.37
tp3342
sg35
(F1.7213
F1.4871
tp3343
sg7
(F170.132
F0.1079
tp3344
sg9
(F125.0885
F0.0975
tp3345
sg11
(F1.8556
F0.6778
tp3346
sssS'WKK1263'
p3347
(dp3348
g3
I2
sg4
F1602.83710753856
sg5
(dp3349
g7
(F171.6485
F0.1413
tp3350
sg9
(F144.6726
F0.123
tp3351
sg11
(F2.7824
F0.3909
tp3352
ssg13
(dp3353
g15
(F0.0
F0.0
tp3354
sg17
(F0.0
F0.0
tp3355
sg19
(F-6.012e-05
F3.013e-06
tp3356
ssg21
I5765
sg22
F0.278029
sg23
I11
sg24
(lp3357
sg27
(dp3358
g29
(F0.7139
F0.0137
tp3359
sg31
(F25.4845
F1.9834
tp3360
sg33
(F1.307
F0.1763
tp3361
sg35
(F3.0252
F0.1612
tp3362
sg7
(F171.6848
F0.0347
tp3363
sg9
(F144.3793
F0.0358
tp3364
sg11
(F0.4479
F0.0513
tp3365
sssS'NGC5506'
p3366
(dp3367
g3
I2
sg4
F4228.68751855565
sg5
(dp3368
g7
(F207.5838
F0.0121
tp3369
sg9
(F152.7597
F0.0143
tp3370
sg11
(F-1.3528
F0.0297
tp3371
ssg13
(dp3372
g15
(F0.0
F0.0
tp3373
sg17
(F0.0
F0.0
tp3374
sg19
(F-3.279e-05
F1.909e-06
tp3375
ssg21
I5765
sg22
F0.7335104
sg23
I11
sg24
(lp3376
g26
asg27
(dp3377
g29
(F0.392
F0.0078
tp3378
sg31
(F-52.1114
F0.4971
tp3379
sg33
(F19.9657
Finf
tp3380
sg35
(F0.1927
Finf
tp3381
sg7
(F207.4147
F0.0236
tp3382
sg9
(F151.6686
F0.0308
tp3383
sg11
(F-1.889
F0.041
tp3384
sssS'IRAS03219+4031'
p3385
(dp3386
g3
I2
sg4
F1839.15544209305
sg5
(dp3387
g7
(F171.7432
F0.0663
tp3388
sg9
(F121.4658
F0.0138
tp3389
sg11
(F0.0358
F0.0365
tp3390
ssg13
(dp3391
g15
(F0.0
F0.0
tp3392
sg17
(F0.0
F0.0
tp3393
sg19
(F-8.89e-07
F3.299e-06
tp3394
ssg21
I5765
sg22
F0.3190209
sg23
I11
sg24
(lp3395
g26
asg27
(dp3396
g29
(F0.0263
Finf
tp3397
sg31
(F-88.1145
F43.4479
tp3398
sg33
(F0.078
F5.4288
tp3399
sg35
(F5.3493
F13.271
tp3400
sg7
(F173.864
F1.3716
tp3401
sg9
(F121.0409
F0.2012
tp3402
sg11
(F1.2511
F2.5472
tp3403
sssS'NGC5033'
p3404
(dp3405
g3
I2
sg4
F28817.7307533908
sg5
(dp3406
g7
(F171.2851
F0.0283
tp3407
sg9
(F124.796
F0.0336
tp3408
sg11
(F-0.0846
F0.0194
tp3409
ssg13
(dp3410
g15
(F0.0
F0.0
tp3411
sg17
(F0.0
F0.0
tp3412
sg19
(F2.479e-05
F6.067e-06
tp3413
ssg21
I14559
sg22
F1.979376
sg23
I11
sg24
(lp3414
sg27
(dp3415
g29
(F0.3146
F0.0008
tp3416
sg31
(F49.0253
F0.0726
tp3417
sg33
(F0.4928
F0.0044
tp3418
sg35
(F17.1763
F0.0438
tp3419
sg7
(F170.6577
F0.0224
tp3420
sg9
(F125.5182
F0.0196
tp3421
sg11
(F-3.1489
F0.002
tp3422
sssS'ESO509-IG066NED01'
p3423
(dp3424
g3
I2
sg4
F1539.88294347251
sg5
(dp3425
g7
(F170.2083
F0.0104
tp3426
sg9
(F125.3012
F0.0101
tp3427
sg11
(F0.6675
F0.0044
tp3428
ssg13
(dp3429
g15
(F0.0
F0.0
tp3430
sg17
(F0.0
F0.0
tp3431
sg19
(F-2.469e-05
F3.077e-06
tp3432
ssg21
I5765
sg22
F0.2671089
sg23
I11
sg24
(lp3433
g26
asg27
(dp3434
g29
(F0.3894
F0.0049
tp3435
sg31
(F-8.3987
F0.6129
tp3436
sg33
(F0.024
Finf
tp3437
sg35
(F10.9036
F1029.571
tp3438
sg7
(F169.5069
F0.0364
tp3439
sg9
(F120.4106
F0.1006
tp3440
sg11
(F0.8705
F205.0409
tp3441
sssS'2MASXJ03534246+3714077'
p3442
(dp3443
g3
I2
sg4
F1533.48416633891
sg5
(dp3444
g7
(F166.8615
F0.0449
tp3445
sg9
(F125.4543
F0.0315
tp3446
sg11
(F1.4168
F0.0705
tp3447
ssg13
(dp3448
g15
(F0.0
F0.0
tp3449
sg17
(F0.0
F0.0
tp3450
sg19
(F-1.706e-05
F2.959e-06
tp3451
ssg21
I5765
sg22
F0.265999
sg23
I11
sg24
(lp3452
g26
asg27
(dp3453
g29
(F0.8368
F0.0216
tp3454
sg31
(F21.1621
F5.3355
tp3455
sg33
(F0.0186
Finf
tp3456
sg35
(F3.3227
F2.3553
tp3457
sg7
(F166.9808
F0.0398
tp3458
sg9
(F125.1051
F0.0366
tp3459
sg11
(F0.8198
F0.0393
tp3460
sssS'ESO383-18'
p3461
(dp3462
g3
I2
sg4
F1544.64364276635
sg5
(dp3463
g7
(F170.3126
F0.0604
tp3464
sg9
(F125.209
F0.047
tp3465
sg11
(F1.4479
F0.2219
tp3466
ssg13
(dp3467
g15
(F0.0
F0.0
tp3468
sg17
(F0.0
F0.0
tp3469
sg19
(F1.836e-05
F2.97e-06
tp3470
ssg21
I5765
sg22
F0.2679347
sg23
I11
sg24
(lp3471
sg27
(dp3472
g29
(F0.4897
F0.0255
tp3473
sg31
(F-0.2113
F2.1
tp3474
sg33
(F0.9486
F0.4086
tp3475
sg35
(F2.3049
F0.4423
tp3476
sg7
(F170.2543
F0.071
tp3477
sg9
(F125.3761
F0.0693
tp3478
sg11
(F1.1623
F0.1769
tp3479
sssS'2MASXJ11454045-1827149'
p3480
(dp3481
g3
I2
sg4
F1249.50689124536
sg5
(dp3482
g7
(F171.2269
F0.118
tp3483
sg9
(F125.1139
F0.1676
tp3484
sg11
(F3.3907
F0.1255
tp3485
ssg13
(dp3486
g15
(F0.0
F0.0
tp3487
sg17
(F0.0
F0.0
tp3488
sg19
(F2.988e-07
F2.592e-06
tp3489
ssg21
I5765
sg22
F0.2167401
sg23
I11
sg24
(lp3490
sg27
(dp3491
g29
(F0.4037
F0.0169
tp3492
sg31
(F-76.8161
F1.3743
tp3493
sg33
(F1.3454
F0.1254
tp3494
sg35
(F5.1816
F0.1693
tp3495
sg7
(F171.6041
F0.0694
tp3496
sg9
(F123.5212
F0.0461
tp3497
sg11
(F1.3597
F0.0223
tp3498
sssS'UGC03142'
p3499
(dp3500
g3
I2
sg4
F1869.19820108938
sg5
(dp3501
g7
(F170.8969
F0.0242
tp3502
sg9
(F123.2788
F0.0225
tp3503
sg11
(F1.2892
F0.0076
tp3504
ssg13
(dp3505
g15
(F0.0
F0.0
tp3506
sg17
(F0.0
F0.0
tp3507
sg19
(F3.224e-05
F3.309e-06
tp3508
ssg21
I5765
sg22
F0.3242321
sg23
I11
sg24
(lp3509
sg27
(dp3510
g29
(F0.8589
F0.009
tp3511
sg31
(F-34.7862
F2.8809
tp3512
sg33
(F0.3558
F0.0157
tp3513
sg35
(F11.5892
F0.1255
tp3514
sg7
(F169.86
F0.0975
tp3515
sg9
(F122.6971
F0.1005
tp3516
sg11
(F-0.1228
F0.0122
tp3517
sssS'NGC526A'
p3518
(dp3519
g3
I2
sg4
F1383.49423066916
sg5
(dp3520
g7
(F170.5833
F0.0354
tp3521
sg9
(F126.5149
F0.0355
tp3522
sg11
(F2.2242
F0.0218
tp3523
ssg13
(dp3524
g15
(F0.0
F0.0
tp3525
sg17
(F0.0
F0.0
tp3526
sg19
(F-7.169e-05
F2.901e-06
tp3527
ssg21
I5765
sg22
F0.2399817
sg23
I11
sg24
(lp3528
sg27
(dp3529
g29
(F0.1233
F0.0155
tp3530
sg31
(F59.4762
F1.3803
tp3531
sg33
(F6.5398
F3.1469
tp3532
sg35
(F40.7231
F42.0382
tp3533
sg7
(F169.1875
F0.2926
tp3534
sg9
(F128.9252
F0.1949
tp3535
sg11
(F1.2279
F0.4916
tp3536
sssS'NGC3783'
p3537
(dp3538
g3
I2
sg4
F7937.66104635995
sg5
(dp3539
g7
(F208.1815
F0.0102
tp3540
sg9
(F154.3491
F0.0097
tp3541
sg11
(F-0.3472
F0.0045
tp3542
ssg13
(dp3543
g15
(F0.0
F0.0
tp3544
sg17
(F0.0
F0.0
tp3545
sg19
(F5.528e-05
F2.469e-06
tp3546
ssg21
I5765
sg22
F1.376871
sg23
I11
sg24
(lp3547
sg27
(dp3548
g29
(F0.7452
F0.0028
tp3549
sg31
(F72.9225
F0.5789
tp3550
sg33
(F0.1231
F0.004
tp3551
sg35
(F12.8487
F0.0473
tp3552
sg7
(F208.4449
F0.042
tp3553
sg9
(F154.7401
F0.0382
tp3554
sg11
(F-0.5508
F0.0057
tp3555
sssS'1RXSJ045205.0+493248'
p3556
(dp3557
g3
I2
sg4
F1400.99589785151
sg5
(dp3558
g7
(F168.8896
F0.0192
tp3559
sg9
(F127.1142
F0.0185
tp3560
sg11
(F1.5713
F0.0108
tp3561
ssg13
(dp3562
g15
(F0.0
F0.0
tp3563
sg17
(F0.0
F0.0
tp3564
sg19
(F-4.541e-05
F2.955e-06
tp3565
ssg21
I5765
sg22
F0.2430175
sg23
I11
sg24
(lp3566
sg27
(dp3567
g29
(F0.505
F0.0163
tp3568
sg31
(F-25.4759
F1.741
tp3569
sg33
(F0.27
F0.0592
tp3570
sg35
(F6.9531
F0.2133
tp3571
sg7
(F169.0817
F0.0997
tp3572
sg9
(F127.7795
F0.1467
tp3573
sg11
(F1.6507
F0.0271
tp3574
sssS'NGC4939'
p3575
(dp3576
g3
I2
sg4
F1995.94123922838
sg5
(dp3577
g7
(F166.9303
F0.0266
tp3578
sg9
(F124.6572
F0.0245
tp3579
sg11
(F1.3824
F0.0106
tp3580
ssg13
(dp3581
g15
(F0.0
F0.0
tp3582
sg17
(F0.0
F0.0
tp3583
sg19
(F-9.78e-06
F3.423e-06
tp3584
ssg21
I5765
sg22
F0.346217
sg23
I11
sg24
(lp3585
sg27
(dp3586
g29
(F0.6461
F0.0044
tp3587
sg31
(F89.0648
F0.7335
tp3588
sg33
(F0.0751
F0.0077
tp3589
sg35
(F20.9514
F0.1201
tp3590
sg7
(F165.0521
F0.1452
tp3591
sg9
(F125.6603
F0.1053
tp3592
sg11
(F-0.425
F0.0137
tp3593
sssS'Mrk359'
p3594
(dp3595
g3
I2
sg4
F1421.95773969692
sg5
(dp3596
g7
(F166.3267
F0.0282
tp3597
sg9
(F125.2743
F0.0405
tp3598
sg11
(F0.5713
F0.1209
tp3599
ssg13
(dp3600
g15
(F0.0
F0.0
tp3601
sg17
(F0.0
F0.0
tp3602
sg19
(F-4.26e-05
F2.885e-06
tp3603
ssg21
I5765
sg22
F0.2466536
sg23
I11
sg24
(lp3604
sg27
(dp3605
g29
(F0.4757
F0.0148
tp3606
sg31
(F48.4792
F1.1873
tp3607
sg33
(F0.7159
F0.1967
tp3608
sg35
(F2.1905
F0.2314
tp3609
sg7
(F166.3586
F0.0299
tp3610
sg9
(F124.7916
F0.0308
tp3611
sg11
(F0.287
F0.0954
tp3612
sssS'2MASXJ01073963-1139117'
p3613
(dp3614
g3
I2
sg4
F1464.27074967701
sg5
(dp3615
g7
(F170.2426
F0.1079
tp3616
sg9
(F126.4328
F0.0522
tp3617
sg11
(F1.4223
F0.5396
tp3618
ssg13
(dp3619
g15
(F0.0
F0.0
tp3620
sg17
(F0.0
F0.0
tp3621
sg19
(F-4.138e-05
F2.931e-06
tp3622
ssg21
I5765
sg22
F0.2539932
sg23
I11
sg24
(lp3623
g26
asg27
(dp3624
g29
(F0.0437
Finf
tp3625
sg31
(F-44.442
F524.3309
tp3626
sg33
(F0.2298
F17.0266
tp3627
sg35
(F3.617
F53.6411
tp3628
sg7
(F170.4533
F0.2345
tp3629
sg9
(F126.5357
F0.877
tp3630
sg11
(F1.7817
F40.5313
tp3631
sssS'MCG-07-03-007'
p3632
(dp3633
g3
I2
sg4
F1298.61575446393
sg5
(dp3634
g7
(F168.5365
F0.0173
tp3635
sg9
(F125.4229
F0.0187
tp3636
sg11
(F1.677
F0.027
tp3637
ssg13
(dp3638
g15
(F0.0
F0.0
tp3639
sg17
(F0.0
F0.0
tp3640
sg19
(F9.819e-06
F2.673e-06
tp3641
ssg21
I5765
sg22
F0.2252586
sg23
I11
sg24
(lp3642
g26
asg27
(dp3643
g29
(F0.3801
F0.0451
tp3644
sg31
(F49.2647
F2.4163
tp3645
sg33
(F0.0473
Finf
tp3646
sg35
(F4.5631
F14.0767
tp3647
sg7
(F168.1075
F0.1152
tp3648
sg9
(F125.5208
F0.1101
tp3649
sg11
(F2.3989
F0.0615
tp3650
sssS'NGC7469'
p3651
(dp3652
g3
I2
sg4
F11616.7474934282
sg5
(dp3653
g7
(F209.0652
F0.0298
tp3654
sg9
(F158.193
F0.0468
tp3655
sg11
(F-1.791
F0.051
tp3656
ssg13
(dp3657
g15
(F0.0
F0.0
tp3658
sg17
(F0.0
F0.0
tp3659
sg19
(F4.965e-05
F3.18e-06
tp3660
ssg21
I5765
sg22
F2.015047
sg23
I11
sg24
(lp3661
sg27
(dp3662
g29
(F0.8283
F0.0081
tp3663
sg31
(F84.1872
F1.9677
tp3664
sg33
(F2.8816
F0.0708
tp3665
sg35
(F0.7566
F0.0186
tp3666
sg7
(F209.0448
F0.0085
tp3667
sg9
(F159.7861
F0.0147
tp3668
sg11
(F-3.3673
F0.0127
tp3669
sss.