(dp0
S'NGC7679'
p1
(dp2
S'nfix'
p3
I2
sS'chi2'
p4
F1980.76665221387
sS'sky'
p5
(dp6
S'sky_dx'
p7
(F0.0
F0.0
tp8
sS'sky_dy'
p9
(F0.0
F0.0
tp10
sS'sky_center'
p11
(F-7.324e-05
F3.536e-06
tp12
ssS'ndof'
p13
I5768
sS'chi2nu'
p14
F0.3434061
sS'nfree'
p15
I8
sS'sersic'
p16
(dp17
S'axis_ratio'
p18
(F0.9678
F0.0035
tp19
sS'pa'
p20
(F-77.6827
F4.1279
tp21
sS'n'
p22
(F0.8403
F0.0121
tp23
sS're'
p24
(F2.356
F0.0083
tp25
sS'center_x'
p26
(F170.9362
F0.0062
tp27
sS'center_y'
p28
(F124.282
F0.0057
tp29
sS'mag'
p30
(F-2.2767
F0.002
tp31
sssS'Mrk766'
p32
(dp33
g3
I2
sg4
F1483.99538110519
sg5
(dp34
g7
(F0.0
F0.0
tp35
sg9
(F0.0
F0.0
tp36
sg11
(F-2.489e-05
F3.166e-06
tp37
ssg13
I5768
sg14
F0.2572808
sg15
I8
sg16
(dp38
g18
(F0.4097
F0.0217
tp39
sg20
(F-6.8363
F1.3345
tp40
sg22
(F5.379
F0.478
tp41
sg24
(F0.3348
Finf
tp42
sg26
(F171.677
F0.0238
tp43
sg28
(F123.1731
F0.0171
tp44
sg30
(F-1.5144
F0.0058
tp45
sss.