(dp0
S'NGC4051'
p1
(dp2
S'nfix'
p3
I2
sS'chi2'
p4
F67056.7339976608
sS'sky'
p5
(dp6
S'sky_dx'
p7
(F0.0
F0.0
tp8
sS'sky_dy'
p9
(F0.0
F0.0
tp10
sS'sky_center'
p11
(F7.193e-05
F2.778e-06
tp12
ssS'ndof'
p13
I40393
sS'chi2nu'
p14
F1.660108
sS'nfree'
p15
I8
sS'fit_notes'
p16
(lp17
sS'sersic'
p18
(dp19
S'axis_ratio'
p20
(F0.4726
F0.0024
tp21
sS'pa'
p22
(F-41.0537
F0.1904
tp23
sS'n'
p24
(F0.0619
F0.0043
tp25
sS're'
p26
(F50.713
F0.2045
tp27
sS'center_x'
p28
(F319.9767
F0.1285
tp29
sS'center_y'
p30
(F327.1843
F0.1527
tp31
sS'mag'
p32
(F-2.319
F0.0087
tp33
sssS'NGC3783'
p34
(dp35
g3
I2
sg4
F28911.4509769313
sg5
(dp36
g7
(F0.0
F0.0
tp37
sg9
(F0.0
F0.0
tp38
sg11
(F-5.906e-05
F1.276e-05
tp39
ssg13
I5768
sg14
F5.012387
sg15
I8
sg16
(lp40
S'At least one problematic parameter.'
p41
asg18
(dp42
g20
(F0.6972
F0.0116
tp43
sg22
(F72.0162
F1.2868
tp44
sg24
(F19.9765
Finf
tp45
sg26
(F188.3652
F199.3254
tp46
sg28
(F208.1879
F0.0301
tp47
sg30
(F154.3584
F0.0279
tp48
sg32
(F-2.5818
F0.3541
tp49
sssS'PG2304+042'
p50
(dp51
g3
I2
sg4
F1400.19685544272
sg5
(dp52
g7
(F0.0
F0.0
tp53
sg9
(F0.0
F0.0
tp54
sg11
(F-1.309e-05
F2.846e-06
tp55
ssg13
I5768
sg14
F0.2427526
sg15
I8
sg16
(lp56
S'Source not detected.'
p57
asg18
(dp58
g20
(F0.7686
F0.0781
tp59
sg22
(F-72.1326
F11.238
tp60
sg24
(F7.3693
F4.5752
tp61
sg26
(F38.8214
F71.5279
tp62
sg28
(F210.3435
F0.1157
tp63
sg30
(F156.4506
F0.1023
tp64
sg32
(F1.9395
F0.9774
tp65
sssS'NGC4151'
p66
(dp67
g3
I2
sg4
F2156.31412446392
sg5
(dp68
g7
(F0.0
F0.0
tp69
sg9
(F0.0
F0.0
tp70
sg11
(F0.0002183
F4.913e-06
tp71
ssg13
I5768
sg14
F0.3738409
sg15
I8
sg16
(lp72
sg18
(dp73
g20
(F0.6698
F0.0107
tp74
sg22
(F68.0568
F1.0633
tp75
sg24
(F7.9051
F0.5409
tp76
sg26
(F1.8934
F0.0543
tp77
sg28
(F333.3083
F0.0173
tp78
sg30
(F327.241
F0.0183
tp79
sg32
(F-1.9086
F0.0164
tp80
sssS'NGC3035'
p81
(dp82
g3
I2
sg4
F1931.20172830373
sg5
(dp83
g7
(F0.0
F0.0
tp84
sg9
(F0.0
F0.0
tp85
sg11
(F4.55e-06
F9.308e-06
tp86
ssg13
I5768
sg14
F0.3348131
sg15
I8
sg16
(lp87
g41
asg18
(dp88
g20
(F0.7537
F0.0255
tp89
sg22
(F24.2512
F3.3598
tp90
sg24
(F19.9509
Finf
tp91
sg26
(F426.1109
F998.1215
tp92
sg28
(F167.6357
F0.0317
tp93
sg30
(F145.3295
F0.0335
tp94
sg32
(F-1.6036
F0.8553
tp95
sssS'Mrk290'
p96
(dp97
g3
I2
sg4
F1576.83959821812
sg5
(dp98
g7
(F0.0
F0.0
tp99
sg9
(F0.0
F0.0
tp100
sg11
(F-1.269e-05
F1.082e-06
tp101
ssg13
I5768
sg14
F0.2733772
sg15
I8
sg16
(lp102
g41
asg18
(dp103
g20
(F0.1491
F0.1123
tp104
sg22
(F-53.9921
F2.5027
tp105
sg24
(F5.0484
F1.3254
tp106
sg26
(F0.4068
Finf
tp107
sg28
(F206.2409
F0.0233
tp108
sg30
(F152.6019
F0.0354
tp109
sg32
(F1.9218
F0.0121
tp110
sssS'NGC6240'
p111
(dp112
g3
I2
sg4
F2071.29588300139
sg5
(dp113
g7
(F0.0
F0.0
tp114
sg9
(F0.0
F0.0
tp115
sg11
(F-0.000118
F4.889e-06
tp116
ssg13
I5768
sg14
F0.3591012
sg15
I8
sg16
(lp117
sg18
(dp118
g20
(F0.8082
F0.0109
tp119
sg22
(F53.9986
F1.759
tp120
sg24
(F5.5513
F0.2164
tp121
sg26
(F0.5479
F0.018
tp122
sg28
(F211.6048
F0.0134
tp123
sg30
(F247.4224
F0.0154
tp124
sg32
(F-3.4241
F0.0033
tp125
sssS'IC5063'
p126
(dp127
g3
I2
sg4
F5580.52138600115
sg5
(dp128
g7
(F0.0
F0.0
tp129
sg9
(F0.0
F0.0
tp130
sg11
(F-2.515e-05
F2.153e-06
tp131
ssg13
I5768
sg14
F0.9674968
sg15
I8
sg16
(lp132
sg18
(dp133
g20
(F0.5831
F0.0066
tp134
sg22
(F47.7531
F0.526
tp135
sg24
(F3.2212
F0.0868
tp136
sg26
(F1.2161
F0.0147
tp137
sg28
(F208.8885
F0.0067
tp138
sg30
(F150.1629
F0.0062
tp139
sg32
(F-1.6142
F0.0027
tp140
sssS'NGC3081'
p141
(dp142
g3
I2
sg4
F7910.68538334212
sg5
(dp143
g7
(F0.0
F0.0
tp144
sg9
(F0.0
F0.0
tp145
sg11
(F7.747e-05
F2.487e-06
tp146
ssg13
I5768
sg14
F1.371478
sg15
I8
sg16
(lp147
sg18
(dp148
g20
(F0.7577
F0.0091
tp149
sg22
(F33.2783
F1.633
tp150
sg24
(F3.8179
F0.1564
tp151
sg26
(F1.0372
F0.0135
tp152
sg28
(F210.0999
F0.0115
tp153
sg30
(F157.6652
F0.0108
tp154
sg32
(F-0.9426
F0.0033
tp155
sssS'WKK6471'
p156
(dp157
g3
I2
sg4
F1358.49706675354
sg5
(dp158
g7
(F0.0
F0.0
tp159
sg9
(F0.0
F0.0
tp160
sg11
(F-3.705e-05
F2.88e-06
tp161
ssg13
I5768
sg14
F0.2355231
sg15
I8
sg16
(lp162
sg18
(dp163
g20
(F0.5995
F0.0489
tp164
sg22
(F-5.7308
F4.8714
tp165
sg24
(F1.9095
F0.3671
tp166
sg26
(F4.9001
F0.5493
tp167
sg28
(F166.6818
F0.0938
tp168
sg30
(F141.8122
F0.1148
tp169
sg32
(F1.9905
F0.0749
tp170
sssS'Mrk348'
p171
(dp172
g3
I2
sg4
F2077.89222947144
sg5
(dp173
g7
(F0.0
F0.0
tp174
sg9
(F0.0
F0.0
tp175
sg11
(F3.025e-06
F1.265e-06
tp176
ssg13
I5768
sg14
F0.3602448
sg15
I8
sg16
(lp177
g41
asg18
(dp178
g20
(F0.8038
F0.0153
tp179
sg22
(F-69.9798
F2.5995
tp180
sg24
(F10.9897
Finf
tp181
sg26
(F0.8831
F0.0258
tp182
sg28
(F208.2083
F0.0101
tp183
sg30
(F152.1602
F0.0094
tp184
sg32
(F0.0583
F0.0246
tp185
sssS'SWIFTJ212745.6+565636'
p186
(dp187
g3
I2
sg4
F1459.21863515681
sg5
(dp188
g7
(F0.0
F0.0
tp189
sg9
(F0.0
F0.0
tp190
sg11
(F-3.741e-05
F2.918e-06
tp191
ssg13
I5768
sg14
F0.2529852
sg15
I8
sg16
(lp192
sg18
(dp193
g20
(F0.6459
F0.1196
tp194
sg22
(F-87.4349
F12.2398
tp195
sg24
(F0.9322
F1.0678
tp196
sg26
(F1.018
F0.2435
tp197
sg28
(F170.1346
F0.0424
tp198
sg30
(F137.1246
F0.0421
tp199
sg32
(F2.0504
F0.0151
tp200
sssS'CenA'
p201
(dp202
g3
I2
sg4
F1734554.70154278
sg5
(dp203
g7
(F0.0
F0.0
tp204
sg9
(F0.0
F0.0
tp205
sg11
(F7.823e-05
F3.323e-06
tp206
ssg13
I212052
sg14
F8.179855
sg15
I8
sg16
(lp207
sg18
(dp208
g20
(F0.2427
F0.0003
tp209
sg22
(F-28.6976
F0.0256
tp210
sg24
(F0.893
F0.0033
tp211
sg26
(F62.1945
F0.0873
tp212
sg28
(F937.2882
F0.0287
tp213
sg30
(F935.2438
F0.0526
tp214
sg32
(F-6.3123
F0.0011
tp215
sssS'MCG+02-57-002'
p216
(dp217
g3
I2
sg4
F1335.23406208835
sg5
(dp218
g7
(F0.0
F0.0
tp219
sg9
(F0.0
F0.0
tp220
sg11
(F-7.922e-05
F2.694e-06
tp221
ssg13
I5768
sg14
F0.23149
sg15
I8
sg16
(lp222
sg18
(dp223
g20
(F0.1713
F0.0321
tp224
sg22
(F83.8969
F1.5309
tp225
sg24
(F8.988
F1.8175
tp226
sg26
(F0.512
F0.0689
tp227
sg28
(F170.3844
F0.0296
tp228
sg30
(F144.699
F0.0681
tp229
sg32
(F0.5572
F0.0414
tp230
sssS'IISZ010'
p231
(dp232
g3
I2
sg4
F1375.16520476189
sg5
(dp233
g7
(F0.0
F0.0
tp234
sg9
(F0.0
F0.0
tp235
sg11
(F1.168e-05
F1.011e-06
tp236
ssg13
I5768
sg14
F0.2384128
sg15
I8
sg16
(lp237
sg18
(dp238
g20
(F0.351
F0.0383
tp239
sg22
(F-22.7544
F2.0232
tp240
sg24
(F3.163
F0.5657
tp241
sg26
(F1.6898
F0.0823
tp242
sg28
(F207.5033
F0.0268
tp243
sg30
(F148.3208
F0.0242
tp244
sg32
(F2.5424
F0.0195
tp245
sssS'WKK4438'
p246
(dp247
g3
I2
sg4
F1678.30883112401
sg5
(dp248
g7
(F0.0
F0.0
tp249
sg9
(F0.0
F0.0
tp250
sg11
(F-5.092e-05
F3.045e-06
tp251
ssg13
I5768
sg14
F0.2909689
sg15
I8
sg16
(lp252
sg18
(dp253
g20
(F0.4937
F0.0136
tp254
sg22
(F-20.7867
F1.002
tp255
sg24
(F3.6908
F0.2441
tp256
sg26
(F2.7753
F0.0595
tp257
sg28
(F172.6393
F0.0151
tp258
sg30
(F147.6645
F0.0174
tp259
sg32
(F0.1111
F0.0148
tp260
sssS'NGC3281'
p261
(dp262
g3
I2
sg4
F11852.5014532474
sg5
(dp263
g7
(F0.0
F0.0
tp264
sg9
(F0.0
F0.0
tp265
sg11
(F1.073e-05
F3.558e-06
tp266
ssg13
I5768
sg14
F2.054872
sg15
I8
sg16
(lp267
g41
asg18
(dp268
g20
(F0.9922
F284.3547
tp269
sg22
(F38.2179
F460585.5938
tp270
sg24
(F3.5893
F2.6626
tp271
sg26
(F0.0107
Finf
tp272
sg28
(F269.087
F3.8825
tp273
sg30
(F268.48
F1.723
tp274
sg32
(F-2.1139
F1.1703
tp275
sssS'WKK6092'
p276
(dp277
g3
I2
sg4
F1233.90374322654
sg5
(dp278
g7
(F0.0
F0.0
tp279
sg9
(F0.0
F0.0
tp280
sg11
(F3.25e-05
F2.737e-06
tp281
ssg13
I5768
sg14
F0.2139223
sg15
I8
sg16
(lp282
sg18
(dp283
g20
(F0.6688
F0.1552
tp284
sg22
(F-44.5188
F13.6737
tp285
sg24
(F1.1527
F1.3132
tp286
sg26
(F0.7462
F0.2233
tp287
sg28
(F167.1161
F0.0296
tp288
sg30
(F144.4875
F0.0285
tp289
sg32
(F1.8404
F0.0121
tp290
sssS'NGC5728'
p291
(dp292
g3
I2
sg4
F39325.6331516604
sg5
(dp293
g7
(F0.0
F0.0
tp294
sg9
(F0.0
F0.0
tp295
sg11
(F0.0002276
F5.75e-06
tp296
ssg13
I5768
sg14
F6.817898
sg15
I8
sg16
(lp297
sg18
(dp298
g20
(F0.9207
F0.0093
tp299
sg22
(F85.9203
F4.9019
tp300
sg24
(F1.2066
F0.051
tp301
sg26
(F1.6675
F0.0234
tp302
sg28
(F208.8538
F0.0124
tp303
sg30
(F156.6374
F0.0139
tp304
sg32
(F-2.3391
F0.0048
tp305
sssS'NGC5506'
p306
(dp307
g3
I2
sg4
F4580.69740728156
sg5
(dp308
g7
(F0.0
F0.0
tp309
sg9
(F0.0
F0.0
tp310
sg11
(F-2.655e-05
F1.986e-06
tp311
ssg13
I5768
sg14
F0.794157
sg15
I8
sg16
(lp312
g41
asg18
(dp313
g20
(F0.4605
F0.0085
tp314
sg22
(F-49.9216
F0.5305
tp315
sg24
(F17.8178
Finf
tp316
sg26
(F0.0816
Finf
tp317
sg28
(F207.4811
F0.0144
tp318
sg30
(F152.1183
F0.0127
tp319
sg32
(F-2.4914
F0.028
tp320
sssS'2MASSJ07594181-3843560'
p321
(dp322
g3
I2
sg4
F1432.87327868284
sg5
(dp323
g7
(F0.0
F0.0
tp324
sg9
(F0.0
F0.0
tp325
sg11
(F-4.732e-06
F2.962e-06
tp326
ssg13
I5768
sg14
F0.2484177
sg15
I8
sg16
(lp327
g57
ag41
asg18
(dp328
g20
(F0.042
Finf
tp329
sg22
(F-17.5728
F3.872
tp330
sg24
(F8.3679
F10.7629
tp331
sg26
(F2.6015
F1.4219
tp332
sg28
(F166.2401
F0.2028
tp333
sg30
(F145.5113
F1.301
tp334
sg32
(F3.1243
F0.2508
tp335
sssS'WKK4374'
p336
(dp337
g3
I2
sg4
F1596.07951578172
sg5
(dp338
g7
(F0.0
F0.0
tp339
sg9
(F0.0
F0.0
tp340
sg11
(F-3.682e-05
F2.982e-06
tp341
ssg13
I5768
sg14
F0.2767128
sg15
I8
sg16
(lp342
sg18
(dp343
g20
(F0.5471
F0.0539
tp344
sg22
(F-85.597
F4.6799
tp345
sg24
(F1.3911
F0.4776
tp346
sg26
(F1.1194
F0.0886
tp347
sg28
(F172.6816
F0.0282
tp348
sg30
(F147.9979
F0.0291
tp349
sg32
(F1.4098
F0.0093
tp350
sssS'NGC7469'
p351
(dp352
g3
I2
sg4
F12102.7371330459
sg5
(dp353
g7
(F0.0
F0.0
tp354
sg9
(F0.0
F0.0
tp355
sg11
(F5.44e-05
F3.245e-06
tp356
ssg13
I5768
sg14
F2.098255
sg15
I8
sg16
(lp357
sg18
(dp358
g20
(F0.9238
F0.0091
tp359
sg22
(F71.122
F3.8824
tp360
sg24
(F2.4706
F0.0655
tp361
sg26
(F0.7484
F0.0135
tp362
sg28
(F209.0442
F0.0058
tp363
sg30
(F159.4945
F0.0068
tp364
sg32
(F-3.5992
F0.0019
tp365
sssS'WKK1263'
p366
(dp367
g3
I2
sg4
F1604.30500715064
sg5
(dp368
g7
(F0.0
F0.0
tp369
sg9
(F0.0
F0.0
tp370
sg11
(F-6.188e-05
F3.013e-06
tp371
ssg13
I5768
sg14
F0.2781389
sg15
I8
sg16
(lp372
sg18
(dp373
g20
(F0.7108
F0.0142
tp374
sg22
(F27.073
F1.8944
tp375
sg24
(F1.7756
F0.0991
tp376
sg26
(F2.6245
F0.0426
tp377
sg28
(F171.6805
F0.0153
tp378
sg30
(F144.4485
F0.017
tp379
sg32
(F0.3166
F0.0084
tp380
sssS'NGC1365'
p381
(dp382
g3
I2
sg4
F965323.348894926
sg5
(dp383
g7
(F0.0
F0.0
tp384
sg9
(F0.0
F0.0
tp385
sg11
(F0.0004647
F3.979e-06
tp386
ssg13
I46864
sg14
F20.5984
sg15
I8
sg16
(lp387
sg18
(dp388
g20
(F0.4919
F0.0019
tp389
sg22
(F-35.6492
F0.1598
tp390
sg24
(F0.6143
F0.0053
tp391
sg26
(F6.6559
F0.0218
tp392
sg28
(F333.3933
F0.0105
tp393
sg30
(F334.839
F0.0126
tp394
sg32
(F-4.8688
F0.0028
tp395
sssS'Mrk841'
p396
(dp397
g3
I2
sg4
F1478.6317225086
sg5
(dp398
g7
(F0.0
F0.0
tp399
sg9
(F0.0
F0.0
tp400
sg11
(F-2.206e-05
F1.06e-06
tp401
ssg13
I5768
sg14
F0.2563508
sg15
I8
sg16
(lp402
g41
asg18
(dp403
g20
(F0.1758
F0.5524
tp404
sg22
(F-49.9009
F62.8894
tp405
sg24
(F1.3459
F29.2015
tp406
sg26
(F0.2504
Finf
tp407
sg28
(F209.9742
F0.0274
tp408
sg30
(F154.8254
F0.0488
tp409
sg32
(F0.9827
F0.1037
tp410
sssS'NGC2992'
p411
(dp412
g3
I2
sg4
F223469.276891873
sg5
(dp413
g7
(F0.0
F0.0
tp414
sg9
(F0.0
F0.0
tp415
sg11
(F0.0002117
F1.819e-05
tp416
ssg13
I5768
sg14
F38.74294
sg15
I8
sg16
(lp417
g57
ag41
asg18
(dp418
g20
(F0.3834
F0.1363
tp419
sg22
(F30.2507
F9.3892
tp420
sg24
(F19.9986
Finf
tp421
sg26
(F4.6712
F13.5991
tp422
sg28
(F310.921
F0.1488
tp423
sg30
(F310.7183
F0.1565
tp424
sg32
(F0.0889
F1.0396
tp425
sssS'Mrk335'
p426
(dp427
g3
I2
sg4
F1578.59023016401
sg5
(dp428
g7
(F0.0
F0.0
tp429
sg9
(F0.0
F0.0
tp430
sg11
(F-1.417e-05
F1.082e-06
tp431
ssg13
I5768
sg14
F0.2736807
sg15
I8
sg16
(lp432
g41
asg18
(dp433
g20
(F0.4803
F0.114
tp434
sg22
(F-26.1444
F6.3586
tp435
sg24
(F4.7083
F2.0394
tp436
sg26
(F0.1916
Finf
tp437
sg28
(F210.8846
F0.0387
tp438
sg30
(F154.0216
F0.0271
tp439
sg32
(F1.3546
F0.0252
tp440
sssS'NGC6860'
p441
(dp442
g3
I2
sg4
F6911.78533417503
sg5
(dp443
g7
(F0.0
F0.0
tp444
sg9
(F0.0
F0.0
tp445
sg11
(F-3.414e-05
F2.314e-06
tp446
ssg13
I5768
sg14
F1.198298
sg15
I8
sg16
(lp447
sg18
(dp448
g20
(F0.5848
F0.0044
tp449
sg22
(F-18.9724
F0.4629
tp450
sg24
(F1.2811
F0.0202
tp451
sg26
(F6.1676
F0.0531
tp452
sg28
(F210.4118
F0.0139
tp453
sg30
(F154.0235
F0.0189
tp454
sg32
(F-0.3898
F0.0058
tp455
sssS'NGC7582'
p456
(dp457
g3
I2
sg4
F64070.6903144476
sg5
(dp458
g7
(F0.0
F0.0
tp459
sg9
(F0.0
F0.0
tp460
sg11
(F0.00062
F2.08e-05
tp461
ssg13
I5768
sg14
F11.10796
sg15
I8
sg16
(lp462
g57
ag41
asg18
(dp463
g20
(F0.2456
F0.0071
tp464
sg22
(F-65.3633
F0.4062
tp465
sg24
(F19.9999
Finf
tp466
sg26
(F0.7034
F0.104
tp467
sg28
(F334.386
F0.0487
tp468
sg30
(F289.1336
F0.0444
tp469
sg32
(F-4.3159
F0.0473
tp470
sss.